
./build/target/image.elf:     file format elf32-littlearm


Disassembly of section .text:

08000188 <setjmp>:
 8000188:	1c02      	adds	r2, r0, #0
 800018a:	4673      	mov	r3, lr
 800018c:	c0f8      	stmia	r0!, {r3, r4, r5, r6, r7}
 800018e:	4643      	mov	r3, r8
 8000190:	464c      	mov	r4, r9
 8000192:	4655      	mov	r5, sl
 8000194:	465e      	mov	r6, fp
 8000196:	466f      	mov	r7, sp
 8000198:	c0f8      	stmia	r0!, {r3, r4, r5, r6, r7}
 800019a:	caf8      	ldmia	r2!, {r3, r4, r5, r6, r7}
 800019c:	2000      	movs	r0, #0
 800019e:	4770      	bx	lr

080001a0 <longjmp>:
 80001a0:	1c02      	adds	r2, r0, #0
 80001a2:	3014      	adds	r0, #20
 80001a4:	c8f8      	ldmia	r0!, {r3, r4, r5, r6, r7}
 80001a6:	4698      	mov	r8, r3
 80001a8:	46a1      	mov	r9, r4
 80001aa:	46aa      	mov	sl, r5
 80001ac:	46b3      	mov	fp, r6
 80001ae:	46bd      	mov	sp, r7
 80001b0:	caf8      	ldmia	r2!, {r3, r4, r5, r6, r7}
 80001b2:	1c08      	adds	r0, r1, #0
 80001b4:	d100      	bne.n	80001b8 <longjmp+0x18>
 80001b6:	2001      	movs	r0, #1
 80001b8:	4718      	bx	r3
 80001ba:	bf00      	nop

080001bc <PendSV_Handler>:
 80001bc:	f3ef 8009 	mrs	r0, PSP
 80001c0:	e920 0ff0 	stmdb	r0!, {r4, r5, r6, r7, r8, r9, sl, fp}
 80001c4:	4905      	ldr	r1, [pc, #20]	@ (80001dc <PendSV_Handler+0x20>)
 80001c6:	6809      	ldr	r1, [r1, #0]
 80001c8:	6008      	str	r0, [r1, #0]
 80001ca:	4905      	ldr	r1, [pc, #20]	@ (80001e0 <PendSV_Handler+0x24>)
 80001cc:	6809      	ldr	r1, [r1, #0]
 80001ce:	6808      	ldr	r0, [r1, #0]
 80001d0:	e8b0 0ff0 	ldmia.w	r0!, {r4, r5, r6, r7, r8, r9, sl, fp}
 80001d4:	f380 8809 	msr	PSP, r0
 80001d8:	4770      	bx	lr
 80001da:	0000      	.short	0x0000
 80001dc:	20000318 	.word	0x20000318
 80001e0:	20000314 	.word	0x20000314

080001e4 <gpio_sdl>:
 80001e4:	b530      	push	{r4, r5, lr}
 80001e6:	b1e8      	cbz	r0, 8000224 <gpio_sdl+0x40>
 80001e8:	2801      	cmp	r0, #1
 80001ea:	d00f      	beq.n	800020c <gpio_sdl+0x28>
 80001ec:	3001      	adds	r0, #1
 80001ee:	d116      	bne.n	800021e <gpio_sdl+0x3a>
 80001f0:	4d10      	ldr	r5, [pc, #64]	@ (8000234 <gpio_sdl+0x50>)
 80001f2:	4c11      	ldr	r4, [pc, #68]	@ (8000238 <gpio_sdl+0x54>)
 80001f4:	682b      	ldr	r3, [r5, #0]
 80001f6:	6820      	ldr	r0, [r4, #0]
 80001f8:	689b      	ldr	r3, [r3, #8]
 80001fa:	2180      	movs	r1, #128	@ 0x80
 80001fc:	4798      	blx	r3
 80001fe:	682b      	ldr	r3, [r5, #0]
 8000200:	6820      	ldr	r0, [r4, #0]
 8000202:	685b      	ldr	r3, [r3, #4]
 8000204:	4798      	blx	r3
 8000206:	f3c0 10c0 	ubfx	r0, r0, #7, #1
 800020a:	bd30      	pop	{r4, r5, pc}
 800020c:	4b09      	ldr	r3, [pc, #36]	@ (8000234 <gpio_sdl+0x50>)
 800020e:	4a0a      	ldr	r2, [pc, #40]	@ (8000238 <gpio_sdl+0x54>)
 8000210:	681b      	ldr	r3, [r3, #0]
 8000212:	6810      	ldr	r0, [r2, #0]
 8000214:	689b      	ldr	r3, [r3, #8]
 8000216:	2180      	movs	r1, #128	@ 0x80
 8000218:	4798      	blx	r3
 800021a:	2000      	movs	r0, #0
 800021c:	bd30      	pop	{r4, r5, pc}
 800021e:	f04f 30ff 	mov.w	r0, #4294967295	@ 0xffffffff
 8000222:	bd30      	pop	{r4, r5, pc}
 8000224:	4b03      	ldr	r3, [pc, #12]	@ (8000234 <gpio_sdl+0x50>)
 8000226:	4a04      	ldr	r2, [pc, #16]	@ (8000238 <gpio_sdl+0x54>)
 8000228:	681b      	ldr	r3, [r3, #0]
 800022a:	6810      	ldr	r0, [r2, #0]
 800022c:	68db      	ldr	r3, [r3, #12]
 800022e:	2180      	movs	r1, #128	@ 0x80
 8000230:	4798      	blx	r3
 8000232:	e7f2      	b.n	800021a <gpio_sdl+0x36>
 8000234:	20000004 	.word	0x20000004
 8000238:	20000008 	.word	0x20000008

0800023c <idle>:
 800023c:	e7fe      	b.n	800023c <idle>
 800023e:	bf00      	nop

08000240 <gpio_configpins>:
 8000240:	b500      	push	{lr}
 8000242:	4806      	ldr	r0, [pc, #24]	@ (800025c <gpio_configpins+0x1c>)
 8000244:	f001 f94c 	bl	80014e0 <ucx_printf>
 8000248:	4b05      	ldr	r3, [pc, #20]	@ (8000260 <gpio_configpins+0x20>)
 800024a:	4a06      	ldr	r2, [pc, #24]	@ (8000264 <gpio_configpins+0x24>)
 800024c:	681b      	ldr	r3, [r3, #0]
 800024e:	6810      	ldr	r0, [r2, #0]
 8000250:	681b      	ldr	r3, [r3, #0]
 8000252:	4798      	blx	r3
 8000254:	2000      	movs	r0, #0
 8000256:	f85d fb04 	ldr.w	pc, [sp], #4
 800025a:	bf00      	nop
 800025c:	08004954 	.word	0x08004954
 8000260:	20000004 	.word	0x20000004
 8000264:	20000008 	.word	0x20000008

08000268 <task1>:
 8000268:	e92d 43f0 	stmdb	sp!, {r4, r5, r6, r7, r8, r9, lr}
 800026c:	4f23      	ldr	r7, [pc, #140]	@ (80002fc <task1+0x94>)
 800026e:	f8df 9090 	ldr.w	r9, [pc, #144]	@ 8000300 <task1+0x98>
 8000272:	b09a      	sub	sp, #104	@ 0x68
 8000274:	2264      	movs	r2, #100	@ 0x64
 8000276:	2100      	movs	r1, #0
 8000278:	a801      	add	r0, sp, #4
 800027a:	f001 f927 	bl	80014cc <ucx_memset>
 800027e:	6838      	ldr	r0, [r7, #0]
 8000280:	2100      	movs	r1, #0
 8000282:	f8d0 8004 	ldr.w	r8, [r0, #4]
 8000286:	f000 f85d 	bl	8000344 <dev_open>
 800028a:	464a      	mov	r2, r9
 800028c:	2300      	movs	r3, #0
 800028e:	f802 3b63 	strb.w	r3, [r2], #99
 8000292:	f1c9 0032 	rsb	r0, r9, #50	@ 0x32
 8000296:	464b      	mov	r3, r9
 8000298:	18c1      	adds	r1, r0, r3
 800029a:	f803 1f01 	strb.w	r1, [r3, #1]!
 800029e:	4293      	cmp	r3, r2
 80002a0:	d1fa      	bne.n	8000298 <task1+0x30>
 80002a2:	6838      	ldr	r0, [r7, #0]
 80002a4:	220a      	movs	r2, #10
 80002a6:	a901      	add	r1, sp, #4
 80002a8:	f000 f850 	bl	800034c <dev_read>
 80002ac:	f10d 0503 	add.w	r5, sp, #3
 80002b0:	4606      	mov	r6, r0
 80002b2:	2400      	movs	r4, #0
 80002b4:	4621      	mov	r1, r4
 80002b6:	f815 2f01 	ldrb.w	r2, [r5, #1]!
 80002ba:	4812      	ldr	r0, [pc, #72]	@ (8000304 <task1+0x9c>)
 80002bc:	3401      	adds	r4, #1
 80002be:	f001 f90f 	bl	80014e0 <ucx_printf>
 80002c2:	2c07      	cmp	r4, #7
 80002c4:	d1f6      	bne.n	80002b4 <task1+0x4c>
 80002c6:	f8d8 2008 	ldr.w	r2, [r8, #8]
 80002ca:	480f      	ldr	r0, [pc, #60]	@ (8000308 <task1+0xa0>)
 80002cc:	4631      	mov	r1, r6
 80002ce:	f001 f907 	bl	80014e0 <ucx_printf>
 80002d2:	1cb3      	adds	r3, r6, #2
 80002d4:	d1e5      	bne.n	80002a2 <task1+0x3a>
 80002d6:	f8dd 4005 	ldr.w	r4, [sp, #5]
 80002da:	480b      	ldr	r0, [pc, #44]	@ (8000308 <task1+0xa0>)
 80002dc:	ba24      	rev	r4, r4
 80002de:	4631      	mov	r1, r6
 80002e0:	4622      	mov	r2, r4
 80002e2:	f001 f8fd 	bl	80014e0 <ucx_printf>
 80002e6:	454c      	cmp	r4, r9
 80002e8:	d1db      	bne.n	80002a2 <task1+0x3a>
 80002ea:	2032      	movs	r0, #50	@ 0x32
 80002ec:	f000 fd2a 	bl	8000d44 <_delay_ms>
 80002f0:	6838      	ldr	r0, [r7, #0]
 80002f2:	4903      	ldr	r1, [pc, #12]	@ (8000300 <task1+0x98>)
 80002f4:	2202      	movs	r2, #2
 80002f6:	f000 f82d 	bl	8000354 <dev_write>
 80002fa:	e7d2      	b.n	80002a2 <task1+0x3a>
 80002fc:	20000000 	.word	0x20000000
 8000300:	20000264 	.word	0x20000264
 8000304:	08004974 	.word	0x08004974
 8000308:	08004984 	.word	0x08004984

0800030c <app_main>:
 800030c:	b500      	push	{lr}
 800030e:	f44f 6100 	mov.w	r1, #2048	@ 0x800
 8000312:	4807      	ldr	r0, [pc, #28]	@ (8000330 <app_main+0x24>)
 8000314:	f001 ff30 	bl	8002178 <ucx_task_spawn>
 8000318:	f44f 6100 	mov.w	r1, #2048	@ 0x800
 800031c:	4805      	ldr	r0, [pc, #20]	@ (8000334 <app_main+0x28>)
 800031e:	f001 ff2b 	bl	8002178 <ucx_task_spawn>
 8000322:	4b05      	ldr	r3, [pc, #20]	@ (8000338 <app_main+0x2c>)
 8000324:	6818      	ldr	r0, [r3, #0]
 8000326:	f000 f809 	bl	800033c <dev_init>
 800032a:	2001      	movs	r0, #1
 800032c:	f85d fb04 	ldr.w	pc, [sp], #4
 8000330:	0800023d 	.word	0x0800023d
 8000334:	08000269 	.word	0x08000269
 8000338:	20000000 	.word	0x20000000

0800033c <dev_init>:
 800033c:	68c3      	ldr	r3, [r0, #12]
 800033e:	681b      	ldr	r3, [r3, #0]
 8000340:	4718      	bx	r3
 8000342:	bf00      	nop

08000344 <dev_open>:
 8000344:	68c3      	ldr	r3, [r0, #12]
 8000346:	689b      	ldr	r3, [r3, #8]
 8000348:	4718      	bx	r3
 800034a:	bf00      	nop

0800034c <dev_read>:
 800034c:	68c3      	ldr	r3, [r0, #12]
 800034e:	691b      	ldr	r3, [r3, #16]
 8000350:	4718      	bx	r3
 8000352:	bf00      	nop

08000354 <dev_write>:
 8000354:	68c3      	ldr	r3, [r0, #12]
 8000356:	695b      	ldr	r3, [r3, #20]
 8000358:	4718      	bx	r3
 800035a:	bf00      	nop

0800035c <driver_int_attach>:
 800035c:	6840      	ldr	r0, [r0, #4]
 800035e:	f000 ba8f 	b.w	8000880 <gpio_ll_int_attach>
 8000362:	bf00      	nop

08000364 <driver_toggle>:
 8000364:	6840      	ldr	r0, [r0, #4]
 8000366:	f000 b981 	b.w	800066c <gpio_ll_toggle>
 800036a:	bf00      	nop

0800036c <driver_clear>:
 800036c:	6840      	ldr	r0, [r0, #4]
 800036e:	f000 b95b 	b.w	8000628 <gpio_ll_clear>
 8000372:	bf00      	nop

08000374 <driver_set>:
 8000374:	6840      	ldr	r0, [r0, #4]
 8000376:	f000 b935 	b.w	80005e4 <gpio_ll_set>
 800037a:	bf00      	nop

0800037c <driver_get>:
 800037c:	b500      	push	{lr}
 800037e:	6840      	ldr	r0, [r0, #4]
 8000380:	f000 f910 	bl	80005a4 <gpio_ll_get>
 8000384:	2800      	cmp	r0, #0
 8000386:	bfa8      	it	ge
 8000388:	b280      	uxthge	r0, r0
 800038a:	f85d fb04 	ldr.w	pc, [sp], #4
 800038e:	bf00      	nop

08000390 <driver_setup>:
 8000390:	6840      	ldr	r0, [r0, #4]
 8000392:	f000 b801 	b.w	8000398 <gpio_ll_setup>
 8000396:	bf00      	nop

08000398 <gpio_ll_setup>:
 8000398:	e92d 43f0 	stmdb	sp!, {r4, r5, r6, r7, r8, r9, lr}
 800039c:	4606      	mov	r6, r0
 800039e:	b086      	sub	sp, #24
 80003a0:	2400      	movs	r4, #0
 80003a2:	f04f 0803 	mov.w	r8, #3
 80003a6:	8873      	ldrh	r3, [r6, #2]
 80003a8:	4123      	asrs	r3, r4
 80003aa:	07db      	lsls	r3, r3, #31
 80003ac:	d548      	bpl.n	8000440 <gpio_ll_setup+0xa8>
 80003ae:	0062      	lsls	r2, r4, #1
 80003b0:	6875      	ldr	r5, [r6, #4]
 80003b2:	fa08 f302 	lsl.w	r3, r8, r2
 80003b6:	401d      	ands	r5, r3
 80003b8:	40d5      	lsrs	r5, r2
 80003ba:	2d01      	cmp	r5, #1
 80003bc:	d02b      	beq.n	8000416 <gpio_ll_setup+0x7e>
 80003be:	2d02      	cmp	r5, #2
 80003c0:	d045      	beq.n	800044e <gpio_ll_setup+0xb6>
 80003c2:	bb1d      	cbnz	r5, 800040c <gpio_ll_setup+0x74>
 80003c4:	68b1      	ldr	r1, [r6, #8]
 80003c6:	f896 9000 	ldrb.w	r9, [r6]
 80003ca:	400b      	ands	r3, r1
 80003cc:	f1b9 0f01 	cmp.w	r9, #1
 80003d0:	fa23 f702 	lsr.w	r7, r3, r2
 80003d4:	f000 80c7 	beq.w	8000566 <gpio_ll_setup+0x1ce>
 80003d8:	f1b9 0f02 	cmp.w	r9, #2
 80003dc:	f000 80ab 	beq.w	8000536 <gpio_ll_setup+0x19e>
 80003e0:	f1b9 0f00 	cmp.w	r9, #0
 80003e4:	d112      	bne.n	800040c <gpio_ll_setup+0x74>
 80003e6:	2101      	movs	r1, #1
 80003e8:	4608      	mov	r0, r1
 80003ea:	f001 fd0d 	bl	8001e08 <RCC_AHB1PeriphClockCmd>
 80003ee:	2301      	movs	r3, #1
 80003f0:	9303      	str	r3, [sp, #12]
 80003f2:	2f01      	cmp	r7, #1
 80003f4:	fa03 f304 	lsl.w	r3, r3, r4
 80003f8:	f8cd 9008 	str.w	r9, [sp, #8]
 80003fc:	f8cd 9010 	str.w	r9, [sp, #16]
 8000400:	9301      	str	r3, [sp, #4]
 8000402:	d03f      	beq.n	8000484 <gpio_ll_setup+0xec>
 8000404:	2f02      	cmp	r7, #2
 8000406:	d03d      	beq.n	8000484 <gpio_ll_setup+0xec>
 8000408:	2f00      	cmp	r7, #0
 800040a:	d03b      	beq.n	8000484 <gpio_ll_setup+0xec>
 800040c:	f04f 30ff 	mov.w	r0, #4294967295	@ 0xffffffff
 8000410:	b006      	add	sp, #24
 8000412:	e8bd 83f0 	ldmia.w	sp!, {r4, r5, r6, r7, r8, r9, pc}
 8000416:	7837      	ldrb	r7, [r6, #0]
 8000418:	2f01      	cmp	r7, #1
 800041a:	d04e      	beq.n	80004ba <gpio_ll_setup+0x122>
 800041c:	2f02      	cmp	r7, #2
 800041e:	d037      	beq.n	8000490 <gpio_ll_setup+0xf8>
 8000420:	2f00      	cmp	r7, #0
 8000422:	d1f3      	bne.n	800040c <gpio_ll_setup+0x74>
 8000424:	4629      	mov	r1, r5
 8000426:	4628      	mov	r0, r5
 8000428:	f001 fcee 	bl	8001e08 <RCC_AHB1PeriphClockCmd>
 800042c:	9502      	str	r5, [sp, #8]
 800042e:	9503      	str	r5, [sp, #12]
 8000430:	4859      	ldr	r0, [pc, #356]	@ (8000598 <gpio_ll_setup+0x200>)
 8000432:	9704      	str	r7, [sp, #16]
 8000434:	40a5      	lsls	r5, r4
 8000436:	a901      	add	r1, sp, #4
 8000438:	9705      	str	r7, [sp, #20]
 800043a:	9501      	str	r5, [sp, #4]
 800043c:	f001 fc20 	bl	8001c80 <GPIO_Init>
 8000440:	3401      	adds	r4, #1
 8000442:	2c10      	cmp	r4, #16
 8000444:	d1af      	bne.n	80003a6 <gpio_ll_setup+0xe>
 8000446:	2000      	movs	r0, #0
 8000448:	b006      	add	sp, #24
 800044a:	e8bd 83f0 	ldmia.w	sp!, {r4, r5, r6, r7, r8, r9, pc}
 800044e:	7837      	ldrb	r7, [r6, #0]
 8000450:	2f01      	cmp	r7, #1
 8000452:	d05c      	beq.n	800050e <gpio_ll_setup+0x176>
 8000454:	2f02      	cmp	r7, #2
 8000456:	d045      	beq.n	80004e4 <gpio_ll_setup+0x14c>
 8000458:	2f00      	cmp	r7, #0
 800045a:	d1d7      	bne.n	800040c <gpio_ll_setup+0x74>
 800045c:	2101      	movs	r1, #1
 800045e:	4608      	mov	r0, r1
 8000460:	f001 fcd2 	bl	8001e08 <RCC_AHB1PeriphClockCmd>
 8000464:	2301      	movs	r3, #1
 8000466:	fa03 f204 	lsl.w	r2, r3, r4
 800046a:	484b      	ldr	r0, [pc, #300]	@ (8000598 <gpio_ll_setup+0x200>)
 800046c:	9201      	str	r2, [sp, #4]
 800046e:	a901      	add	r1, sp, #4
 8000470:	3401      	adds	r4, #1
 8000472:	9302      	str	r3, [sp, #8]
 8000474:	9304      	str	r3, [sp, #16]
 8000476:	9303      	str	r3, [sp, #12]
 8000478:	9305      	str	r3, [sp, #20]
 800047a:	f001 fc01 	bl	8001c80 <GPIO_Init>
 800047e:	2c10      	cmp	r4, #16
 8000480:	d191      	bne.n	80003a6 <gpio_ll_setup+0xe>
 8000482:	e7e0      	b.n	8000446 <gpio_ll_setup+0xae>
 8000484:	4844      	ldr	r0, [pc, #272]	@ (8000598 <gpio_ll_setup+0x200>)
 8000486:	9705      	str	r7, [sp, #20]
 8000488:	a901      	add	r1, sp, #4
 800048a:	f001 fbf9 	bl	8001c80 <GPIO_Init>
 800048e:	e7d7      	b.n	8000440 <gpio_ll_setup+0xa8>
 8000490:	4629      	mov	r1, r5
 8000492:	2004      	movs	r0, #4
 8000494:	f001 fcb8 	bl	8001e08 <RCC_AHB1PeriphClockCmd>
 8000498:	fa05 f304 	lsl.w	r3, r5, r4
 800049c:	9301      	str	r3, [sp, #4]
 800049e:	483f      	ldr	r0, [pc, #252]	@ (800059c <gpio_ll_setup+0x204>)
 80004a0:	9502      	str	r5, [sp, #8]
 80004a2:	2300      	movs	r3, #0
 80004a4:	a901      	add	r1, sp, #4
 80004a6:	3401      	adds	r4, #1
 80004a8:	9304      	str	r3, [sp, #16]
 80004aa:	9503      	str	r5, [sp, #12]
 80004ac:	9305      	str	r3, [sp, #20]
 80004ae:	f001 fbe7 	bl	8001c80 <GPIO_Init>
 80004b2:	2c10      	cmp	r4, #16
 80004b4:	f47f af77 	bne.w	80003a6 <gpio_ll_setup+0xe>
 80004b8:	e7c5      	b.n	8000446 <gpio_ll_setup+0xae>
 80004ba:	4639      	mov	r1, r7
 80004bc:	2002      	movs	r0, #2
 80004be:	f001 fca3 	bl	8001e08 <RCC_AHB1PeriphClockCmd>
 80004c2:	fa07 f304 	lsl.w	r3, r7, r4
 80004c6:	9301      	str	r3, [sp, #4]
 80004c8:	4835      	ldr	r0, [pc, #212]	@ (80005a0 <gpio_ll_setup+0x208>)
 80004ca:	9702      	str	r7, [sp, #8]
 80004cc:	2300      	movs	r3, #0
 80004ce:	a901      	add	r1, sp, #4
 80004d0:	3401      	adds	r4, #1
 80004d2:	9304      	str	r3, [sp, #16]
 80004d4:	9703      	str	r7, [sp, #12]
 80004d6:	9305      	str	r3, [sp, #20]
 80004d8:	f001 fbd2 	bl	8001c80 <GPIO_Init>
 80004dc:	2c10      	cmp	r4, #16
 80004de:	f47f af62 	bne.w	80003a6 <gpio_ll_setup+0xe>
 80004e2:	e7b0      	b.n	8000446 <gpio_ll_setup+0xae>
 80004e4:	2101      	movs	r1, #1
 80004e6:	2004      	movs	r0, #4
 80004e8:	f001 fc8e 	bl	8001e08 <RCC_AHB1PeriphClockCmd>
 80004ec:	2301      	movs	r3, #1
 80004ee:	fa03 f204 	lsl.w	r2, r3, r4
 80004f2:	482a      	ldr	r0, [pc, #168]	@ (800059c <gpio_ll_setup+0x204>)
 80004f4:	9201      	str	r2, [sp, #4]
 80004f6:	a901      	add	r1, sp, #4
 80004f8:	3401      	adds	r4, #1
 80004fa:	9302      	str	r3, [sp, #8]
 80004fc:	9304      	str	r3, [sp, #16]
 80004fe:	9303      	str	r3, [sp, #12]
 8000500:	9305      	str	r3, [sp, #20]
 8000502:	f001 fbbd 	bl	8001c80 <GPIO_Init>
 8000506:	2c10      	cmp	r4, #16
 8000508:	f47f af4d 	bne.w	80003a6 <gpio_ll_setup+0xe>
 800050c:	e79b      	b.n	8000446 <gpio_ll_setup+0xae>
 800050e:	4628      	mov	r0, r5
 8000510:	4639      	mov	r1, r7
 8000512:	f001 fc79 	bl	8001e08 <RCC_AHB1PeriphClockCmd>
 8000516:	fa07 f304 	lsl.w	r3, r7, r4
 800051a:	4821      	ldr	r0, [pc, #132]	@ (80005a0 <gpio_ll_setup+0x208>)
 800051c:	9301      	str	r3, [sp, #4]
 800051e:	a901      	add	r1, sp, #4
 8000520:	3401      	adds	r4, #1
 8000522:	9702      	str	r7, [sp, #8]
 8000524:	9704      	str	r7, [sp, #16]
 8000526:	9703      	str	r7, [sp, #12]
 8000528:	9705      	str	r7, [sp, #20]
 800052a:	f001 fba9 	bl	8001c80 <GPIO_Init>
 800052e:	2c10      	cmp	r4, #16
 8000530:	f47f af39 	bne.w	80003a6 <gpio_ll_setup+0xe>
 8000534:	e787      	b.n	8000446 <gpio_ll_setup+0xae>
 8000536:	2101      	movs	r1, #1
 8000538:	2004      	movs	r0, #4
 800053a:	f001 fc65 	bl	8001e08 <RCC_AHB1PeriphClockCmd>
 800053e:	2301      	movs	r3, #1
 8000540:	9303      	str	r3, [sp, #12]
 8000542:	2f01      	cmp	r7, #1
 8000544:	fa03 f304 	lsl.w	r3, r3, r4
 8000548:	9502      	str	r5, [sp, #8]
 800054a:	9504      	str	r5, [sp, #16]
 800054c:	9301      	str	r3, [sp, #4]
 800054e:	d004      	beq.n	800055a <gpio_ll_setup+0x1c2>
 8000550:	2f02      	cmp	r7, #2
 8000552:	d002      	beq.n	800055a <gpio_ll_setup+0x1c2>
 8000554:	2f00      	cmp	r7, #0
 8000556:	f47f af59 	bne.w	800040c <gpio_ll_setup+0x74>
 800055a:	4810      	ldr	r0, [pc, #64]	@ (800059c <gpio_ll_setup+0x204>)
 800055c:	9705      	str	r7, [sp, #20]
 800055e:	a901      	add	r1, sp, #4
 8000560:	f001 fb8e 	bl	8001c80 <GPIO_Init>
 8000564:	e76c      	b.n	8000440 <gpio_ll_setup+0xa8>
 8000566:	4649      	mov	r1, r9
 8000568:	2002      	movs	r0, #2
 800056a:	f001 fc4d 	bl	8001e08 <RCC_AHB1PeriphClockCmd>
 800056e:	fa09 f304 	lsl.w	r3, r9, r4
 8000572:	2f01      	cmp	r7, #1
 8000574:	9502      	str	r5, [sp, #8]
 8000576:	9504      	str	r5, [sp, #16]
 8000578:	f8cd 900c 	str.w	r9, [sp, #12]
 800057c:	9301      	str	r3, [sp, #4]
 800057e:	d004      	beq.n	800058a <gpio_ll_setup+0x1f2>
 8000580:	2f02      	cmp	r7, #2
 8000582:	d002      	beq.n	800058a <gpio_ll_setup+0x1f2>
 8000584:	2f00      	cmp	r7, #0
 8000586:	f47f af41 	bne.w	800040c <gpio_ll_setup+0x74>
 800058a:	4805      	ldr	r0, [pc, #20]	@ (80005a0 <gpio_ll_setup+0x208>)
 800058c:	9705      	str	r7, [sp, #20]
 800058e:	a901      	add	r1, sp, #4
 8000590:	f001 fb76 	bl	8001c80 <GPIO_Init>
 8000594:	e754      	b.n	8000440 <gpio_ll_setup+0xa8>
 8000596:	bf00      	nop
 8000598:	40020000 	.word	0x40020000
 800059c:	40020800 	.word	0x40020800
 80005a0:	40020400 	.word	0x40020400

080005a4 <gpio_ll_get>:
 80005a4:	b510      	push	{r4, lr}
 80005a6:	7803      	ldrb	r3, [r0, #0]
 80005a8:	2b01      	cmp	r3, #1
 80005aa:	4604      	mov	r4, r0
 80005ac:	d00f      	beq.n	80005ce <gpio_ll_get+0x2a>
 80005ae:	2b02      	cmp	r3, #2
 80005b0:	d006      	beq.n	80005c0 <gpio_ll_get+0x1c>
 80005b2:	b94b      	cbnz	r3, 80005c8 <gpio_ll_get+0x24>
 80005b4:	4808      	ldr	r0, [pc, #32]	@ (80005d8 <gpio_ll_get+0x34>)
 80005b6:	f001 fbb9 	bl	8001d2c <GPIO_ReadInputData>
 80005ba:	8863      	ldrh	r3, [r4, #2]
 80005bc:	4018      	ands	r0, r3
 80005be:	bd10      	pop	{r4, pc}
 80005c0:	4806      	ldr	r0, [pc, #24]	@ (80005dc <gpio_ll_get+0x38>)
 80005c2:	f001 fbb3 	bl	8001d2c <GPIO_ReadInputData>
 80005c6:	e7f8      	b.n	80005ba <gpio_ll_get+0x16>
 80005c8:	f04f 30ff 	mov.w	r0, #4294967295	@ 0xffffffff
 80005cc:	bd10      	pop	{r4, pc}
 80005ce:	4804      	ldr	r0, [pc, #16]	@ (80005e0 <gpio_ll_get+0x3c>)
 80005d0:	f001 fbac 	bl	8001d2c <GPIO_ReadInputData>
 80005d4:	e7f1      	b.n	80005ba <gpio_ll_get+0x16>
 80005d6:	bf00      	nop
 80005d8:	40020000 	.word	0x40020000
 80005dc:	40020800 	.word	0x40020800
 80005e0:	40020400 	.word	0x40020400

080005e4 <gpio_ll_set>:
 80005e4:	b500      	push	{lr}
 80005e6:	7803      	ldrb	r3, [r0, #0]
 80005e8:	8842      	ldrh	r2, [r0, #2]
 80005ea:	2b01      	cmp	r3, #1
 80005ec:	ea01 0102 	and.w	r1, r1, r2
 80005f0:	d00c      	beq.n	800060c <gpio_ll_set+0x28>
 80005f2:	2b02      	cmp	r3, #2
 80005f4:	d006      	beq.n	8000604 <gpio_ll_set+0x20>
 80005f6:	b96b      	cbnz	r3, 8000614 <gpio_ll_set+0x30>
 80005f8:	4808      	ldr	r0, [pc, #32]	@ (800061c <gpio_ll_set+0x38>)
 80005fa:	f001 fb9b 	bl	8001d34 <GPIO_SetBits>
 80005fe:	2000      	movs	r0, #0
 8000600:	f85d fb04 	ldr.w	pc, [sp], #4
 8000604:	4806      	ldr	r0, [pc, #24]	@ (8000620 <gpio_ll_set+0x3c>)
 8000606:	f001 fb95 	bl	8001d34 <GPIO_SetBits>
 800060a:	e7f8      	b.n	80005fe <gpio_ll_set+0x1a>
 800060c:	4805      	ldr	r0, [pc, #20]	@ (8000624 <gpio_ll_set+0x40>)
 800060e:	f001 fb91 	bl	8001d34 <GPIO_SetBits>
 8000612:	e7f4      	b.n	80005fe <gpio_ll_set+0x1a>
 8000614:	f04f 30ff 	mov.w	r0, #4294967295	@ 0xffffffff
 8000618:	f85d fb04 	ldr.w	pc, [sp], #4
 800061c:	40020000 	.word	0x40020000
 8000620:	40020800 	.word	0x40020800
 8000624:	40020400 	.word	0x40020400

08000628 <gpio_ll_clear>:
 8000628:	b500      	push	{lr}
 800062a:	7803      	ldrb	r3, [r0, #0]
 800062c:	8842      	ldrh	r2, [r0, #2]
 800062e:	2b01      	cmp	r3, #1
 8000630:	ea01 0102 	and.w	r1, r1, r2
 8000634:	d00c      	beq.n	8000650 <gpio_ll_clear+0x28>
 8000636:	2b02      	cmp	r3, #2
 8000638:	d006      	beq.n	8000648 <gpio_ll_clear+0x20>
 800063a:	b96b      	cbnz	r3, 8000658 <gpio_ll_clear+0x30>
 800063c:	4808      	ldr	r0, [pc, #32]	@ (8000660 <gpio_ll_clear+0x38>)
 800063e:	f001 fb7d 	bl	8001d3c <GPIO_ResetBits>
 8000642:	2000      	movs	r0, #0
 8000644:	f85d fb04 	ldr.w	pc, [sp], #4
 8000648:	4806      	ldr	r0, [pc, #24]	@ (8000664 <gpio_ll_clear+0x3c>)
 800064a:	f001 fb77 	bl	8001d3c <GPIO_ResetBits>
 800064e:	e7f8      	b.n	8000642 <gpio_ll_clear+0x1a>
 8000650:	4805      	ldr	r0, [pc, #20]	@ (8000668 <gpio_ll_clear+0x40>)
 8000652:	f001 fb73 	bl	8001d3c <GPIO_ResetBits>
 8000656:	e7f4      	b.n	8000642 <gpio_ll_clear+0x1a>
 8000658:	f04f 30ff 	mov.w	r0, #4294967295	@ 0xffffffff
 800065c:	f85d fb04 	ldr.w	pc, [sp], #4
 8000660:	40020000 	.word	0x40020000
 8000664:	40020800 	.word	0x40020800
 8000668:	40020400 	.word	0x40020400

0800066c <gpio_ll_toggle>:
 800066c:	b500      	push	{lr}
 800066e:	7803      	ldrb	r3, [r0, #0]
 8000670:	8842      	ldrh	r2, [r0, #2]
 8000672:	2b01      	cmp	r3, #1
 8000674:	ea01 0102 	and.w	r1, r1, r2
 8000678:	d00c      	beq.n	8000694 <gpio_ll_toggle+0x28>
 800067a:	2b02      	cmp	r3, #2
 800067c:	d006      	beq.n	800068c <gpio_ll_toggle+0x20>
 800067e:	b96b      	cbnz	r3, 800069c <gpio_ll_toggle+0x30>
 8000680:	4808      	ldr	r0, [pc, #32]	@ (80006a4 <gpio_ll_toggle+0x38>)
 8000682:	f001 fb5f 	bl	8001d44 <GPIO_ToggleBits>
 8000686:	2000      	movs	r0, #0
 8000688:	f85d fb04 	ldr.w	pc, [sp], #4
 800068c:	4806      	ldr	r0, [pc, #24]	@ (80006a8 <gpio_ll_toggle+0x3c>)
 800068e:	f001 fb59 	bl	8001d44 <GPIO_ToggleBits>
 8000692:	e7f8      	b.n	8000686 <gpio_ll_toggle+0x1a>
 8000694:	4805      	ldr	r0, [pc, #20]	@ (80006ac <gpio_ll_toggle+0x40>)
 8000696:	f001 fb55 	bl	8001d44 <GPIO_ToggleBits>
 800069a:	e7f4      	b.n	8000686 <gpio_ll_toggle+0x1a>
 800069c:	f04f 30ff 	mov.w	r0, #4294967295	@ 0xffffffff
 80006a0:	f85d fb04 	ldr.w	pc, [sp], #4
 80006a4:	40020000 	.word	0x40020000
 80006a8:	40020800 	.word	0x40020800
 80006ac:	40020400 	.word	0x40020400

080006b0 <EXTI0_IRQHandler>:
 80006b0:	b500      	push	{lr}
 80006b2:	2001      	movs	r0, #1
 80006b4:	f001 fad4 	bl	8001c60 <EXTI_GetITStatus>
 80006b8:	b138      	cbz	r0, 80006ca <EXTI0_IRQHandler+0x1a>
 80006ba:	4b05      	ldr	r3, [pc, #20]	@ (80006d0 <EXTI0_IRQHandler+0x20>)
 80006bc:	681b      	ldr	r3, [r3, #0]
 80006be:	4798      	blx	r3
 80006c0:	f85d eb04 	ldr.w	lr, [sp], #4
 80006c4:	2001      	movs	r0, #1
 80006c6:	f001 bad5 	b.w	8001c74 <EXTI_ClearITPendingBit>
 80006ca:	f85d fb04 	ldr.w	pc, [sp], #4
 80006ce:	bf00      	nop
 80006d0:	200002cc 	.word	0x200002cc

080006d4 <EXTI1_IRQHandler>:
 80006d4:	b500      	push	{lr}
 80006d6:	2002      	movs	r0, #2
 80006d8:	f001 fac2 	bl	8001c60 <EXTI_GetITStatus>
 80006dc:	b138      	cbz	r0, 80006ee <EXTI1_IRQHandler+0x1a>
 80006de:	4b05      	ldr	r3, [pc, #20]	@ (80006f4 <EXTI1_IRQHandler+0x20>)
 80006e0:	685b      	ldr	r3, [r3, #4]
 80006e2:	4798      	blx	r3
 80006e4:	f85d eb04 	ldr.w	lr, [sp], #4
 80006e8:	2002      	movs	r0, #2
 80006ea:	f001 bac3 	b.w	8001c74 <EXTI_ClearITPendingBit>
 80006ee:	f85d fb04 	ldr.w	pc, [sp], #4
 80006f2:	bf00      	nop
 80006f4:	200002cc 	.word	0x200002cc

080006f8 <EXTI2_IRQHandler>:
 80006f8:	b500      	push	{lr}
 80006fa:	2004      	movs	r0, #4
 80006fc:	f001 fab0 	bl	8001c60 <EXTI_GetITStatus>
 8000700:	b138      	cbz	r0, 8000712 <EXTI2_IRQHandler+0x1a>
 8000702:	4b05      	ldr	r3, [pc, #20]	@ (8000718 <EXTI2_IRQHandler+0x20>)
 8000704:	689b      	ldr	r3, [r3, #8]
 8000706:	4798      	blx	r3
 8000708:	f85d eb04 	ldr.w	lr, [sp], #4
 800070c:	2004      	movs	r0, #4
 800070e:	f001 bab1 	b.w	8001c74 <EXTI_ClearITPendingBit>
 8000712:	f85d fb04 	ldr.w	pc, [sp], #4
 8000716:	bf00      	nop
 8000718:	200002cc 	.word	0x200002cc

0800071c <EXTI3_IRQHandler>:
 800071c:	b500      	push	{lr}
 800071e:	2008      	movs	r0, #8
 8000720:	f001 fa9e 	bl	8001c60 <EXTI_GetITStatus>
 8000724:	b138      	cbz	r0, 8000736 <EXTI3_IRQHandler+0x1a>
 8000726:	4b05      	ldr	r3, [pc, #20]	@ (800073c <EXTI3_IRQHandler+0x20>)
 8000728:	68db      	ldr	r3, [r3, #12]
 800072a:	4798      	blx	r3
 800072c:	f85d eb04 	ldr.w	lr, [sp], #4
 8000730:	2008      	movs	r0, #8
 8000732:	f001 ba9f 	b.w	8001c74 <EXTI_ClearITPendingBit>
 8000736:	f85d fb04 	ldr.w	pc, [sp], #4
 800073a:	bf00      	nop
 800073c:	200002cc 	.word	0x200002cc

08000740 <EXTI4_IRQHandler>:
 8000740:	b500      	push	{lr}
 8000742:	2010      	movs	r0, #16
 8000744:	f001 fa8c 	bl	8001c60 <EXTI_GetITStatus>
 8000748:	b138      	cbz	r0, 800075a <EXTI4_IRQHandler+0x1a>
 800074a:	4b05      	ldr	r3, [pc, #20]	@ (8000760 <EXTI4_IRQHandler+0x20>)
 800074c:	691b      	ldr	r3, [r3, #16]
 800074e:	4798      	blx	r3
 8000750:	f85d eb04 	ldr.w	lr, [sp], #4
 8000754:	2010      	movs	r0, #16
 8000756:	f001 ba8d 	b.w	8001c74 <EXTI_ClearITPendingBit>
 800075a:	f85d fb04 	ldr.w	pc, [sp], #4
 800075e:	bf00      	nop
 8000760:	200002cc 	.word	0x200002cc

08000764 <EXTI9_5_IRQHandler>:
 8000764:	b500      	push	{lr}
 8000766:	2020      	movs	r0, #32
 8000768:	f001 fa7a 	bl	8001c60 <EXTI_GetITStatus>
 800076c:	b128      	cbz	r0, 800077a <EXTI9_5_IRQHandler+0x16>
 800076e:	4b1b      	ldr	r3, [pc, #108]	@ (80007dc <EXTI9_5_IRQHandler+0x78>)
 8000770:	695b      	ldr	r3, [r3, #20]
 8000772:	4798      	blx	r3
 8000774:	2020      	movs	r0, #32
 8000776:	f001 fa7d 	bl	8001c74 <EXTI_ClearITPendingBit>
 800077a:	2040      	movs	r0, #64	@ 0x40
 800077c:	f001 fa70 	bl	8001c60 <EXTI_GetITStatus>
 8000780:	b128      	cbz	r0, 800078e <EXTI9_5_IRQHandler+0x2a>
 8000782:	4b16      	ldr	r3, [pc, #88]	@ (80007dc <EXTI9_5_IRQHandler+0x78>)
 8000784:	699b      	ldr	r3, [r3, #24]
 8000786:	4798      	blx	r3
 8000788:	2040      	movs	r0, #64	@ 0x40
 800078a:	f001 fa73 	bl	8001c74 <EXTI_ClearITPendingBit>
 800078e:	2080      	movs	r0, #128	@ 0x80
 8000790:	f001 fa66 	bl	8001c60 <EXTI_GetITStatus>
 8000794:	b128      	cbz	r0, 80007a2 <EXTI9_5_IRQHandler+0x3e>
 8000796:	4b11      	ldr	r3, [pc, #68]	@ (80007dc <EXTI9_5_IRQHandler+0x78>)
 8000798:	69db      	ldr	r3, [r3, #28]
 800079a:	4798      	blx	r3
 800079c:	2080      	movs	r0, #128	@ 0x80
 800079e:	f001 fa69 	bl	8001c74 <EXTI_ClearITPendingBit>
 80007a2:	f44f 7080 	mov.w	r0, #256	@ 0x100
 80007a6:	f001 fa5b 	bl	8001c60 <EXTI_GetITStatus>
 80007aa:	b130      	cbz	r0, 80007ba <EXTI9_5_IRQHandler+0x56>
 80007ac:	4b0b      	ldr	r3, [pc, #44]	@ (80007dc <EXTI9_5_IRQHandler+0x78>)
 80007ae:	6a1b      	ldr	r3, [r3, #32]
 80007b0:	4798      	blx	r3
 80007b2:	f44f 7080 	mov.w	r0, #256	@ 0x100
 80007b6:	f001 fa5d 	bl	8001c74 <EXTI_ClearITPendingBit>
 80007ba:	f44f 7000 	mov.w	r0, #512	@ 0x200
 80007be:	f001 fa4f 	bl	8001c60 <EXTI_GetITStatus>
 80007c2:	b140      	cbz	r0, 80007d6 <EXTI9_5_IRQHandler+0x72>
 80007c4:	4b05      	ldr	r3, [pc, #20]	@ (80007dc <EXTI9_5_IRQHandler+0x78>)
 80007c6:	6a5b      	ldr	r3, [r3, #36]	@ 0x24
 80007c8:	4798      	blx	r3
 80007ca:	f85d eb04 	ldr.w	lr, [sp], #4
 80007ce:	f44f 7000 	mov.w	r0, #512	@ 0x200
 80007d2:	f001 ba4f 	b.w	8001c74 <EXTI_ClearITPendingBit>
 80007d6:	f85d fb04 	ldr.w	pc, [sp], #4
 80007da:	bf00      	nop
 80007dc:	200002cc 	.word	0x200002cc

080007e0 <EXTI15_10_IRQHandler>:
 80007e0:	b500      	push	{lr}
 80007e2:	f44f 6080 	mov.w	r0, #1024	@ 0x400
 80007e6:	f001 fa3b 	bl	8001c60 <EXTI_GetITStatus>
 80007ea:	b130      	cbz	r0, 80007fa <EXTI15_10_IRQHandler+0x1a>
 80007ec:	4b23      	ldr	r3, [pc, #140]	@ (800087c <EXTI15_10_IRQHandler+0x9c>)
 80007ee:	6a9b      	ldr	r3, [r3, #40]	@ 0x28
 80007f0:	4798      	blx	r3
 80007f2:	f44f 6080 	mov.w	r0, #1024	@ 0x400
 80007f6:	f001 fa3d 	bl	8001c74 <EXTI_ClearITPendingBit>
 80007fa:	f44f 6000 	mov.w	r0, #2048	@ 0x800
 80007fe:	f001 fa2f 	bl	8001c60 <EXTI_GetITStatus>
 8000802:	b130      	cbz	r0, 8000812 <EXTI15_10_IRQHandler+0x32>
 8000804:	4b1d      	ldr	r3, [pc, #116]	@ (800087c <EXTI15_10_IRQHandler+0x9c>)
 8000806:	6adb      	ldr	r3, [r3, #44]	@ 0x2c
 8000808:	4798      	blx	r3
 800080a:	f44f 6000 	mov.w	r0, #2048	@ 0x800
 800080e:	f001 fa31 	bl	8001c74 <EXTI_ClearITPendingBit>
 8000812:	f44f 5080 	mov.w	r0, #4096	@ 0x1000
 8000816:	f001 fa23 	bl	8001c60 <EXTI_GetITStatus>
 800081a:	b130      	cbz	r0, 800082a <EXTI15_10_IRQHandler+0x4a>
 800081c:	4b17      	ldr	r3, [pc, #92]	@ (800087c <EXTI15_10_IRQHandler+0x9c>)
 800081e:	6b1b      	ldr	r3, [r3, #48]	@ 0x30
 8000820:	4798      	blx	r3
 8000822:	f44f 5080 	mov.w	r0, #4096	@ 0x1000
 8000826:	f001 fa25 	bl	8001c74 <EXTI_ClearITPendingBit>
 800082a:	f44f 5000 	mov.w	r0, #8192	@ 0x2000
 800082e:	f001 fa17 	bl	8001c60 <EXTI_GetITStatus>
 8000832:	b130      	cbz	r0, 8000842 <EXTI15_10_IRQHandler+0x62>
 8000834:	4b11      	ldr	r3, [pc, #68]	@ (800087c <EXTI15_10_IRQHandler+0x9c>)
 8000836:	6b5b      	ldr	r3, [r3, #52]	@ 0x34
 8000838:	4798      	blx	r3
 800083a:	f44f 5000 	mov.w	r0, #8192	@ 0x2000
 800083e:	f001 fa19 	bl	8001c74 <EXTI_ClearITPendingBit>
 8000842:	f44f 4080 	mov.w	r0, #16384	@ 0x4000
 8000846:	f001 fa0b 	bl	8001c60 <EXTI_GetITStatus>
 800084a:	b130      	cbz	r0, 800085a <EXTI15_10_IRQHandler+0x7a>
 800084c:	4b0b      	ldr	r3, [pc, #44]	@ (800087c <EXTI15_10_IRQHandler+0x9c>)
 800084e:	6b9b      	ldr	r3, [r3, #56]	@ 0x38
 8000850:	4798      	blx	r3
 8000852:	f44f 4080 	mov.w	r0, #16384	@ 0x4000
 8000856:	f001 fa0d 	bl	8001c74 <EXTI_ClearITPendingBit>
 800085a:	f44f 4000 	mov.w	r0, #32768	@ 0x8000
 800085e:	f001 f9ff 	bl	8001c60 <EXTI_GetITStatus>
 8000862:	b140      	cbz	r0, 8000876 <EXTI15_10_IRQHandler+0x96>
 8000864:	4b05      	ldr	r3, [pc, #20]	@ (800087c <EXTI15_10_IRQHandler+0x9c>)
 8000866:	6bdb      	ldr	r3, [r3, #60]	@ 0x3c
 8000868:	4798      	blx	r3
 800086a:	f85d eb04 	ldr.w	lr, [sp], #4
 800086e:	f44f 4000 	mov.w	r0, #32768	@ 0x8000
 8000872:	f001 b9ff 	b.w	8001c74 <EXTI_ClearITPendingBit>
 8000876:	f85d fb04 	ldr.w	pc, [sp], #4
 800087a:	bf00      	nop
 800087c:	200002cc 	.word	0x200002cc

08000880 <gpio_ll_int_attach>:
 8000880:	b5f0      	push	{r4, r5, r6, r7, lr}
 8000882:	461d      	mov	r5, r3
 8000884:	b086      	sub	sp, #24
 8000886:	460c      	mov	r4, r1
 8000888:	4606      	mov	r6, r0
 800088a:	2101      	movs	r1, #1
 800088c:	f44f 4080 	mov.w	r0, #16384	@ 0x4000
 8000890:	4617      	mov	r7, r2
 8000892:	f001 fadd 	bl	8001e50 <RCC_APB2PeriphClockCmd>
 8000896:	2d03      	cmp	r5, #3
 8000898:	d04a      	beq.n	8000930 <gpio_ll_int_attach+0xb0>
 800089a:	2d04      	cmp	r5, #4
 800089c:	d042      	beq.n	8000924 <gpio_ll_int_attach+0xa4>
 800089e:	2d02      	cmp	r5, #2
 80008a0:	d142      	bne.n	8000928 <gpio_ll_int_attach+0xa8>
 80008a2:	2208      	movs	r2, #8
 80008a4:	7830      	ldrb	r0, [r6, #0]
 80008a6:	9204      	str	r2, [sp, #16]
 80008a8:	2301      	movs	r3, #1
 80008aa:	2100      	movs	r1, #0
 80008ac:	9305      	str	r3, [sp, #20]
 80008ae:	9301      	str	r3, [sp, #4]
 80008b0:	2801      	cmp	r0, #1
 80008b2:	f240 1301 	movw	r3, #257	@ 0x101
 80008b6:	9103      	str	r1, [sp, #12]
 80008b8:	f8ad 3001 	strh.w	r3, [sp, #1]
 80008bc:	d067      	beq.n	800098e <gpio_ll_int_attach+0x10e>
 80008be:	2802      	cmp	r0, #2
 80008c0:	d03e      	beq.n	8000940 <gpio_ll_int_attach+0xc0>
 80008c2:	bb88      	cbnz	r0, 8000928 <gpio_ll_int_attach+0xa8>
 80008c4:	f5b4 7f80 	cmp.w	r4, #256	@ 0x100
 80008c8:	f000 818f 	beq.w	8000bea <gpio_ll_int_attach+0x36a>
 80008cc:	f300 80b0 	bgt.w	8000a30 <gpio_ll_int_attach+0x1b0>
 80008d0:	2c20      	cmp	r4, #32
 80008d2:	f300 815d 	bgt.w	8000b90 <gpio_ll_int_attach+0x310>
 80008d6:	428c      	cmp	r4, r1
 80008d8:	dd26      	ble.n	8000928 <gpio_ll_int_attach+0xa8>
 80008da:	3c01      	subs	r4, #1
 80008dc:	2c1f      	cmp	r4, #31
 80008de:	d823      	bhi.n	8000928 <gpio_ll_int_attach+0xa8>
 80008e0:	e8df f014 	tbh	[pc, r4, lsl #1]
 80008e4:	01500153 	.word	0x01500153
 80008e8:	014d0022 	.word	0x014d0022
 80008ec:	00220022 	.word	0x00220022
 80008f0:	014a0022 	.word	0x014a0022
 80008f4:	00220022 	.word	0x00220022
 80008f8:	00220022 	.word	0x00220022
 80008fc:	00220022 	.word	0x00220022
 8000900:	01470022 	.word	0x01470022
 8000904:	00220022 	.word	0x00220022
 8000908:	00220022 	.word	0x00220022
 800090c:	00220022 	.word	0x00220022
 8000910:	00220022 	.word	0x00220022
 8000914:	00220022 	.word	0x00220022
 8000918:	00220022 	.word	0x00220022
 800091c:	00220022 	.word	0x00220022
 8000920:	01440022 	.word	0x01440022
 8000924:	2210      	movs	r2, #16
 8000926:	e7bd      	b.n	80008a4 <gpio_ll_int_attach+0x24>
 8000928:	f04f 30ff 	mov.w	r0, #4294967295	@ 0xffffffff
 800092c:	b006      	add	sp, #24
 800092e:	bdf0      	pop	{r4, r5, r6, r7, pc}
 8000930:	220c      	movs	r2, #12
 8000932:	e7b7      	b.n	80008a4 <gpio_ll_int_attach+0x24>
 8000934:	f5b4 5f80 	cmp.w	r4, #4096	@ 0x1000
 8000938:	f000 8139 	beq.w	8000bae <gpio_ll_int_attach+0x32e>
 800093c:	f340 80a0 	ble.w	8000a80 <gpio_ll_int_attach+0x200>
 8000940:	f5b4 4f80 	cmp.w	r4, #16384	@ 0x4000
 8000944:	d019      	beq.n	800097a <gpio_ll_int_attach+0xfa>
 8000946:	f5b4 4f00 	cmp.w	r4, #32768	@ 0x8000
 800094a:	f000 808f 	beq.w	8000a6c <gpio_ll_int_attach+0x1ec>
 800094e:	f5b4 5f00 	cmp.w	r4, #8192	@ 0x2000
 8000952:	d1e9      	bne.n	8000928 <gpio_ll_int_attach+0xa8>
 8000954:	210d      	movs	r1, #13
 8000956:	f001 fa93 	bl	8001e80 <SYSCFG_EXTILineConfig>
 800095a:	4bae      	ldr	r3, [pc, #696]	@ (8000c14 <gpio_ll_int_attach+0x394>)
 800095c:	9402      	str	r4, [sp, #8]
 800095e:	2228      	movs	r2, #40	@ 0x28
 8000960:	f88d 2000 	strb.w	r2, [sp]
 8000964:	635f      	str	r7, [r3, #52]	@ 0x34
 8000966:	a802      	add	r0, sp, #8
 8000968:	f001 f93e 	bl	8001be8 <EXTI_Init>
 800096c:	48aa      	ldr	r0, [pc, #680]	@ (8000c18 <gpio_ll_int_attach+0x398>)
 800096e:	4669      	mov	r1, sp
 8000970:	f000 faf0 	bl	8000f54 <syscall>
 8000974:	2000      	movs	r0, #0
 8000976:	b006      	add	sp, #24
 8000978:	bdf0      	pop	{r4, r5, r6, r7, pc}
 800097a:	210e      	movs	r1, #14
 800097c:	f001 fa80 	bl	8001e80 <SYSCFG_EXTILineConfig>
 8000980:	4ba4      	ldr	r3, [pc, #656]	@ (8000c14 <gpio_ll_int_attach+0x394>)
 8000982:	9402      	str	r4, [sp, #8]
 8000984:	2228      	movs	r2, #40	@ 0x28
 8000986:	f88d 2000 	strb.w	r2, [sp]
 800098a:	639f      	str	r7, [r3, #56]	@ 0x38
 800098c:	e7eb      	b.n	8000966 <gpio_ll_int_attach+0xe6>
 800098e:	f5b4 7f80 	cmp.w	r4, #256	@ 0x100
 8000992:	f000 812a 	beq.w	8000bea <gpio_ll_int_attach+0x36a>
 8000996:	dccd      	bgt.n	8000934 <gpio_ll_int_attach+0xb4>
 8000998:	2c20      	cmp	r4, #32
 800099a:	f300 80f9 	bgt.w	8000b90 <gpio_ll_int_attach+0x310>
 800099e:	2c00      	cmp	r4, #0
 80009a0:	ddc2      	ble.n	8000928 <gpio_ll_int_attach+0xa8>
 80009a2:	3c01      	subs	r4, #1
 80009a4:	2c1f      	cmp	r4, #31
 80009a6:	d8bf      	bhi.n	8000928 <gpio_ll_int_attach+0xa8>
 80009a8:	a301      	add	r3, pc, #4	@ (adr r3, 80009b0 <gpio_ll_int_attach+0x130>)
 80009aa:	f853 f024 	ldr.w	pc, [r3, r4, lsl #2]
 80009ae:	bf00      	nop
 80009b0:	08000b55 	.word	0x08000b55
 80009b4:	08000b3d 	.word	0x08000b3d
 80009b8:	08000929 	.word	0x08000929
 80009bc:	08000b25 	.word	0x08000b25
 80009c0:	08000929 	.word	0x08000929
 80009c4:	08000929 	.word	0x08000929
 80009c8:	08000929 	.word	0x08000929
 80009cc:	08000b0d 	.word	0x08000b0d
 80009d0:	08000929 	.word	0x08000929
 80009d4:	08000929 	.word	0x08000929
 80009d8:	08000929 	.word	0x08000929
 80009dc:	08000929 	.word	0x08000929
 80009e0:	08000929 	.word	0x08000929
 80009e4:	08000929 	.word	0x08000929
 80009e8:	08000929 	.word	0x08000929
 80009ec:	08000af5 	.word	0x08000af5
 80009f0:	08000929 	.word	0x08000929
 80009f4:	08000929 	.word	0x08000929
 80009f8:	08000929 	.word	0x08000929
 80009fc:	08000929 	.word	0x08000929
 8000a00:	08000929 	.word	0x08000929
 8000a04:	08000929 	.word	0x08000929
 8000a08:	08000929 	.word	0x08000929
 8000a0c:	08000929 	.word	0x08000929
 8000a10:	08000929 	.word	0x08000929
 8000a14:	08000929 	.word	0x08000929
 8000a18:	08000929 	.word	0x08000929
 8000a1c:	08000929 	.word	0x08000929
 8000a20:	08000929 	.word	0x08000929
 8000a24:	08000929 	.word	0x08000929
 8000a28:	08000929 	.word	0x08000929
 8000a2c:	08000add 	.word	0x08000add
 8000a30:	f5b4 5f80 	cmp.w	r4, #4096	@ 0x1000
 8000a34:	f000 80bb 	beq.w	8000bae <gpio_ll_int_attach+0x32e>
 8000a38:	dc38      	bgt.n	8000aac <gpio_ll_int_attach+0x22c>
 8000a3a:	f5b4 6f80 	cmp.w	r4, #1024	@ 0x400
 8000a3e:	f000 80ca 	beq.w	8000bd6 <gpio_ll_int_attach+0x356>
 8000a42:	f5b4 6f00 	cmp.w	r4, #2048	@ 0x800
 8000a46:	f000 80bc 	beq.w	8000bc2 <gpio_ll_int_attach+0x342>
 8000a4a:	f5b4 7f00 	cmp.w	r4, #512	@ 0x200
 8000a4e:	f47f af6b 	bne.w	8000928 <gpio_ll_int_attach+0xa8>
 8000a52:	2109      	movs	r1, #9
 8000a54:	2000      	movs	r0, #0
 8000a56:	f001 fa13 	bl	8001e80 <SYSCFG_EXTILineConfig>
 8000a5a:	4b6e      	ldr	r3, [pc, #440]	@ (8000c14 <gpio_ll_int_attach+0x394>)
 8000a5c:	f44f 7100 	mov.w	r1, #512	@ 0x200
 8000a60:	2217      	movs	r2, #23
 8000a62:	9102      	str	r1, [sp, #8]
 8000a64:	f88d 2000 	strb.w	r2, [sp]
 8000a68:	625f      	str	r7, [r3, #36]	@ 0x24
 8000a6a:	e77c      	b.n	8000966 <gpio_ll_int_attach+0xe6>
 8000a6c:	210f      	movs	r1, #15
 8000a6e:	f001 fa07 	bl	8001e80 <SYSCFG_EXTILineConfig>
 8000a72:	4b68      	ldr	r3, [pc, #416]	@ (8000c14 <gpio_ll_int_attach+0x394>)
 8000a74:	9402      	str	r4, [sp, #8]
 8000a76:	2228      	movs	r2, #40	@ 0x28
 8000a78:	f88d 2000 	strb.w	r2, [sp]
 8000a7c:	63df      	str	r7, [r3, #60]	@ 0x3c
 8000a7e:	e772      	b.n	8000966 <gpio_ll_int_attach+0xe6>
 8000a80:	f5b4 6f80 	cmp.w	r4, #1024	@ 0x400
 8000a84:	f000 80a7 	beq.w	8000bd6 <gpio_ll_int_attach+0x356>
 8000a88:	f5b4 6f00 	cmp.w	r4, #2048	@ 0x800
 8000a8c:	f000 8099 	beq.w	8000bc2 <gpio_ll_int_attach+0x342>
 8000a90:	f5b4 7f00 	cmp.w	r4, #512	@ 0x200
 8000a94:	f47f af48 	bne.w	8000928 <gpio_ll_int_attach+0xa8>
 8000a98:	2109      	movs	r1, #9
 8000a9a:	f001 f9f1 	bl	8001e80 <SYSCFG_EXTILineConfig>
 8000a9e:	4b5d      	ldr	r3, [pc, #372]	@ (8000c14 <gpio_ll_int_attach+0x394>)
 8000aa0:	9402      	str	r4, [sp, #8]
 8000aa2:	2217      	movs	r2, #23
 8000aa4:	f88d 2000 	strb.w	r2, [sp]
 8000aa8:	625f      	str	r7, [r3, #36]	@ 0x24
 8000aaa:	e75c      	b.n	8000966 <gpio_ll_int_attach+0xe6>
 8000aac:	f5b4 4f80 	cmp.w	r4, #16384	@ 0x4000
 8000ab0:	f43f af63 	beq.w	800097a <gpio_ll_int_attach+0xfa>
 8000ab4:	f5b4 4f00 	cmp.w	r4, #32768	@ 0x8000
 8000ab8:	d0d8      	beq.n	8000a6c <gpio_ll_int_attach+0x1ec>
 8000aba:	f5b4 5f00 	cmp.w	r4, #8192	@ 0x2000
 8000abe:	f47f af33 	bne.w	8000928 <gpio_ll_int_attach+0xa8>
 8000ac2:	210d      	movs	r1, #13
 8000ac4:	2000      	movs	r0, #0
 8000ac6:	f001 f9db 	bl	8001e80 <SYSCFG_EXTILineConfig>
 8000aca:	4b52      	ldr	r3, [pc, #328]	@ (8000c14 <gpio_ll_int_attach+0x394>)
 8000acc:	f44f 5100 	mov.w	r1, #8192	@ 0x2000
 8000ad0:	2228      	movs	r2, #40	@ 0x28
 8000ad2:	9102      	str	r1, [sp, #8]
 8000ad4:	f88d 2000 	strb.w	r2, [sp]
 8000ad8:	635f      	str	r7, [r3, #52]	@ 0x34
 8000ada:	e744      	b.n	8000966 <gpio_ll_int_attach+0xe6>
 8000adc:	2105      	movs	r1, #5
 8000ade:	2001      	movs	r0, #1
 8000ae0:	f001 f9ce 	bl	8001e80 <SYSCFG_EXTILineConfig>
 8000ae4:	4b4b      	ldr	r3, [pc, #300]	@ (8000c14 <gpio_ll_int_attach+0x394>)
 8000ae6:	2120      	movs	r1, #32
 8000ae8:	2217      	movs	r2, #23
 8000aea:	9102      	str	r1, [sp, #8]
 8000aec:	f88d 2000 	strb.w	r2, [sp]
 8000af0:	615f      	str	r7, [r3, #20]
 8000af2:	e738      	b.n	8000966 <gpio_ll_int_attach+0xe6>
 8000af4:	2104      	movs	r1, #4
 8000af6:	2001      	movs	r0, #1
 8000af8:	f001 f9c2 	bl	8001e80 <SYSCFG_EXTILineConfig>
 8000afc:	4b45      	ldr	r3, [pc, #276]	@ (8000c14 <gpio_ll_int_attach+0x394>)
 8000afe:	2110      	movs	r1, #16
 8000b00:	220a      	movs	r2, #10
 8000b02:	9102      	str	r1, [sp, #8]
 8000b04:	f88d 2000 	strb.w	r2, [sp]
 8000b08:	611f      	str	r7, [r3, #16]
 8000b0a:	e72c      	b.n	8000966 <gpio_ll_int_attach+0xe6>
 8000b0c:	2103      	movs	r1, #3
 8000b0e:	2001      	movs	r0, #1
 8000b10:	f001 f9b6 	bl	8001e80 <SYSCFG_EXTILineConfig>
 8000b14:	4b3f      	ldr	r3, [pc, #252]	@ (8000c14 <gpio_ll_int_attach+0x394>)
 8000b16:	2108      	movs	r1, #8
 8000b18:	2209      	movs	r2, #9
 8000b1a:	9102      	str	r1, [sp, #8]
 8000b1c:	f88d 2000 	strb.w	r2, [sp]
 8000b20:	60df      	str	r7, [r3, #12]
 8000b22:	e720      	b.n	8000966 <gpio_ll_int_attach+0xe6>
 8000b24:	2102      	movs	r1, #2
 8000b26:	2001      	movs	r0, #1
 8000b28:	f001 f9aa 	bl	8001e80 <SYSCFG_EXTILineConfig>
 8000b2c:	4b39      	ldr	r3, [pc, #228]	@ (8000c14 <gpio_ll_int_attach+0x394>)
 8000b2e:	2104      	movs	r1, #4
 8000b30:	2208      	movs	r2, #8
 8000b32:	9102      	str	r1, [sp, #8]
 8000b34:	f88d 2000 	strb.w	r2, [sp]
 8000b38:	609f      	str	r7, [r3, #8]
 8000b3a:	e714      	b.n	8000966 <gpio_ll_int_attach+0xe6>
 8000b3c:	2101      	movs	r1, #1
 8000b3e:	4608      	mov	r0, r1
 8000b40:	f001 f99e 	bl	8001e80 <SYSCFG_EXTILineConfig>
 8000b44:	4b33      	ldr	r3, [pc, #204]	@ (8000c14 <gpio_ll_int_attach+0x394>)
 8000b46:	2102      	movs	r1, #2
 8000b48:	2207      	movs	r2, #7
 8000b4a:	9102      	str	r1, [sp, #8]
 8000b4c:	f88d 2000 	strb.w	r2, [sp]
 8000b50:	605f      	str	r7, [r3, #4]
 8000b52:	e708      	b.n	8000966 <gpio_ll_int_attach+0xe6>
 8000b54:	2100      	movs	r1, #0
 8000b56:	2001      	movs	r0, #1
 8000b58:	f001 f992 	bl	8001e80 <SYSCFG_EXTILineConfig>
 8000b5c:	4b2d      	ldr	r3, [pc, #180]	@ (8000c14 <gpio_ll_int_attach+0x394>)
 8000b5e:	2101      	movs	r1, #1
 8000b60:	2206      	movs	r2, #6
 8000b62:	9102      	str	r1, [sp, #8]
 8000b64:	f88d 2000 	strb.w	r2, [sp]
 8000b68:	601f      	str	r7, [r3, #0]
 8000b6a:	e6fc      	b.n	8000966 <gpio_ll_int_attach+0xe6>
 8000b6c:	2105      	movs	r1, #5
 8000b6e:	2000      	movs	r0, #0
 8000b70:	e7b6      	b.n	8000ae0 <gpio_ll_int_attach+0x260>
 8000b72:	2104      	movs	r1, #4
 8000b74:	2000      	movs	r0, #0
 8000b76:	e7bf      	b.n	8000af8 <gpio_ll_int_attach+0x278>
 8000b78:	2103      	movs	r1, #3
 8000b7a:	2000      	movs	r0, #0
 8000b7c:	e7c8      	b.n	8000b10 <gpio_ll_int_attach+0x290>
 8000b7e:	2102      	movs	r1, #2
 8000b80:	2000      	movs	r0, #0
 8000b82:	e7d1      	b.n	8000b28 <gpio_ll_int_attach+0x2a8>
 8000b84:	2101      	movs	r1, #1
 8000b86:	2000      	movs	r0, #0
 8000b88:	e7da      	b.n	8000b40 <gpio_ll_int_attach+0x2c0>
 8000b8a:	2100      	movs	r1, #0
 8000b8c:	4608      	mov	r0, r1
 8000b8e:	e7e3      	b.n	8000b58 <gpio_ll_int_attach+0x2d8>
 8000b90:	2c40      	cmp	r4, #64	@ 0x40
 8000b92:	d034      	beq.n	8000bfe <gpio_ll_int_attach+0x37e>
 8000b94:	2c80      	cmp	r4, #128	@ 0x80
 8000b96:	f47f aec7 	bne.w	8000928 <gpio_ll_int_attach+0xa8>
 8000b9a:	2107      	movs	r1, #7
 8000b9c:	f001 f970 	bl	8001e80 <SYSCFG_EXTILineConfig>
 8000ba0:	4b1c      	ldr	r3, [pc, #112]	@ (8000c14 <gpio_ll_int_attach+0x394>)
 8000ba2:	9402      	str	r4, [sp, #8]
 8000ba4:	2217      	movs	r2, #23
 8000ba6:	f88d 2000 	strb.w	r2, [sp]
 8000baa:	61df      	str	r7, [r3, #28]
 8000bac:	e6db      	b.n	8000966 <gpio_ll_int_attach+0xe6>
 8000bae:	210c      	movs	r1, #12
 8000bb0:	f001 f966 	bl	8001e80 <SYSCFG_EXTILineConfig>
 8000bb4:	4b17      	ldr	r3, [pc, #92]	@ (8000c14 <gpio_ll_int_attach+0x394>)
 8000bb6:	9402      	str	r4, [sp, #8]
 8000bb8:	2228      	movs	r2, #40	@ 0x28
 8000bba:	f88d 2000 	strb.w	r2, [sp]
 8000bbe:	631f      	str	r7, [r3, #48]	@ 0x30
 8000bc0:	e6d1      	b.n	8000966 <gpio_ll_int_attach+0xe6>
 8000bc2:	210b      	movs	r1, #11
 8000bc4:	f001 f95c 	bl	8001e80 <SYSCFG_EXTILineConfig>
 8000bc8:	4b12      	ldr	r3, [pc, #72]	@ (8000c14 <gpio_ll_int_attach+0x394>)
 8000bca:	9402      	str	r4, [sp, #8]
 8000bcc:	2228      	movs	r2, #40	@ 0x28
 8000bce:	f88d 2000 	strb.w	r2, [sp]
 8000bd2:	62df      	str	r7, [r3, #44]	@ 0x2c
 8000bd4:	e6c7      	b.n	8000966 <gpio_ll_int_attach+0xe6>
 8000bd6:	210a      	movs	r1, #10
 8000bd8:	f001 f952 	bl	8001e80 <SYSCFG_EXTILineConfig>
 8000bdc:	4b0d      	ldr	r3, [pc, #52]	@ (8000c14 <gpio_ll_int_attach+0x394>)
 8000bde:	9402      	str	r4, [sp, #8]
 8000be0:	2228      	movs	r2, #40	@ 0x28
 8000be2:	f88d 2000 	strb.w	r2, [sp]
 8000be6:	629f      	str	r7, [r3, #40]	@ 0x28
 8000be8:	e6bd      	b.n	8000966 <gpio_ll_int_attach+0xe6>
 8000bea:	2108      	movs	r1, #8
 8000bec:	f001 f948 	bl	8001e80 <SYSCFG_EXTILineConfig>
 8000bf0:	4b08      	ldr	r3, [pc, #32]	@ (8000c14 <gpio_ll_int_attach+0x394>)
 8000bf2:	9402      	str	r4, [sp, #8]
 8000bf4:	2217      	movs	r2, #23
 8000bf6:	f88d 2000 	strb.w	r2, [sp]
 8000bfa:	621f      	str	r7, [r3, #32]
 8000bfc:	e6b3      	b.n	8000966 <gpio_ll_int_attach+0xe6>
 8000bfe:	2106      	movs	r1, #6
 8000c00:	f001 f93e 	bl	8001e80 <SYSCFG_EXTILineConfig>
 8000c04:	4b03      	ldr	r3, [pc, #12]	@ (8000c14 <gpio_ll_int_attach+0x394>)
 8000c06:	9402      	str	r4, [sp, #8]
 8000c08:	2217      	movs	r2, #23
 8000c0a:	f88d 2000 	strb.w	r2, [sp]
 8000c0e:	619f      	str	r7, [r3, #24]
 8000c10:	e6a9      	b.n	8000966 <gpio_ll_int_attach+0xe6>
 8000c12:	bf00      	nop
 8000c14:	200002cc 	.word	0x200002cc
 8000c18:	080017b5 	.word	0x080017b5

08000c1c <Dummy_Handler>:
 8000c1c:	4770      	bx	lr
 8000c1e:	bf00      	nop

08000c20 <SVC_Handler>:
 8000c20:	f3ef 8309 	mrs	r3, PSP
 8000c24:	681a      	ldr	r2, [r3, #0]
 8000c26:	6858      	ldr	r0, [r3, #4]
 8000c28:	4710      	bx	r2
 8000c2a:	bf00      	nop

08000c2c <_delay_update>:
 8000c2c:	6843      	ldr	r3, [r0, #4]
 8000c2e:	f893 2066 	ldrb.w	r2, [r3, #102]	@ 0x66
 8000c32:	2a03      	cmp	r2, #3
 8000c34:	d001      	beq.n	8000c3a <_delay_update+0xe>
 8000c36:	2000      	movs	r0, #0
 8000c38:	4770      	bx	lr
 8000c3a:	f8b3 2062 	ldrh.w	r2, [r3, #98]	@ 0x62
 8000c3e:	2a00      	cmp	r2, #0
 8000c40:	d0f9      	beq.n	8000c36 <_delay_update+0xa>
 8000c42:	3a01      	subs	r2, #1
 8000c44:	b292      	uxth	r2, r2
 8000c46:	f8a3 2062 	strh.w	r2, [r3, #98]	@ 0x62
 8000c4a:	2a00      	cmp	r2, #0
 8000c4c:	d1f3      	bne.n	8000c36 <_delay_update+0xa>
 8000c4e:	2201      	movs	r2, #1
 8000c50:	f883 2066 	strb.w	r2, [r3, #102]	@ 0x66
 8000c54:	e7ef      	b.n	8000c36 <_delay_update+0xa>
 8000c56:	bf00      	nop

08000c58 <timer_enable>:
 8000c58:	f04f 22e0 	mov.w	r2, #3758153728	@ 0xe000e000
 8000c5c:	6913      	ldr	r3, [r2, #16]
 8000c5e:	f043 0301 	orr.w	r3, r3, #1
 8000c62:	6113      	str	r3, [r2, #16]
 8000c64:	4770      	bx	lr
 8000c66:	bf00      	nop

08000c68 <timer_disable>:
 8000c68:	f04f 22e0 	mov.w	r2, #3758153728	@ 0xe000e000
 8000c6c:	6913      	ldr	r3, [r2, #16]
 8000c6e:	f023 0301 	bic.w	r3, r3, #1
 8000c72:	6113      	str	r3, [r2, #16]
 8000c74:	4770      	bx	lr
 8000c76:	bf00      	nop

08000c78 <Reset_Handler>:
 8000c78:	4b11      	ldr	r3, [pc, #68]	@ (8000cc0 <Reset_Handler+0x48>)
 8000c7a:	4a12      	ldr	r2, [pc, #72]	@ (8000cc4 <Reset_Handler+0x4c>)
 8000c7c:	4293      	cmp	r3, r2
 8000c7e:	b500      	push	{lr}
 8000c80:	d20c      	bcs.n	8000c9c <Reset_Handler+0x24>
 8000c82:	3a01      	subs	r2, #1
 8000c84:	1ad2      	subs	r2, r2, r3
 8000c86:	f022 0203 	bic.w	r2, r2, #3
 8000c8a:	3204      	adds	r2, #4
 8000c8c:	490e      	ldr	r1, [pc, #56]	@ (8000cc8 <Reset_Handler+0x50>)
 8000c8e:	441a      	add	r2, r3
 8000c90:	f851 0b04 	ldr.w	r0, [r1], #4
 8000c94:	f843 0b04 	str.w	r0, [r3], #4
 8000c98:	4293      	cmp	r3, r2
 8000c9a:	d1f9      	bne.n	8000c90 <Reset_Handler+0x18>
 8000c9c:	4b0b      	ldr	r3, [pc, #44]	@ (8000ccc <Reset_Handler+0x54>)
 8000c9e:	4a0c      	ldr	r2, [pc, #48]	@ (8000cd0 <Reset_Handler+0x58>)
 8000ca0:	4293      	cmp	r3, r2
 8000ca2:	d20a      	bcs.n	8000cba <Reset_Handler+0x42>
 8000ca4:	3a01      	subs	r2, #1
 8000ca6:	1ad2      	subs	r2, r2, r3
 8000ca8:	f022 0203 	bic.w	r2, r2, #3
 8000cac:	3204      	adds	r2, #4
 8000cae:	441a      	add	r2, r3
 8000cb0:	2100      	movs	r1, #0
 8000cb2:	f843 1b04 	str.w	r1, [r3], #4
 8000cb6:	4293      	cmp	r3, r2
 8000cb8:	d1fb      	bne.n	8000cb2 <Reset_Handler+0x3a>
 8000cba:	f000 fc7d 	bl	80015b8 <main>
 8000cbe:	e7fe      	b.n	8000cbe <Reset_Handler+0x46>
 8000cc0:	20000000 	.word	0x20000000
 8000cc4:	20000264 	.word	0x20000264
 8000cc8:	08004cb0 	.word	0x08004cb0
 8000ccc:	20000264 	.word	0x20000264
 8000cd0:	200013fc 	.word	0x200013fc

08000cd4 <_stack_check>:
 8000cd4:	4b0c      	ldr	r3, [pc, #48]	@ (8000d08 <_stack_check+0x34>)
 8000cd6:	681b      	ldr	r3, [r3, #0]
 8000cd8:	685b      	ldr	r3, [r3, #4]
 8000cda:	b510      	push	{r4, lr}
 8000cdc:	685c      	ldr	r4, [r3, #4]
 8000cde:	6d60      	ldr	r0, [r4, #84]	@ 0x54
 8000ce0:	6803      	ldr	r3, [r0, #0]
 8000ce2:	f1b3 3f33 	cmp.w	r3, #858993459	@ 0x33333333
 8000ce6:	d100      	bne.n	8000cea <_stack_check+0x16>
 8000ce8:	bd10      	pop	{r4, pc}
 8000cea:	6da1      	ldr	r1, [r4, #88]	@ 0x58
 8000cec:	f002 fc92 	bl	8003614 <hexdump>
 8000cf0:	6da3      	ldr	r3, [r4, #88]	@ 0x58
 8000cf2:	6d62      	ldr	r2, [r4, #84]	@ 0x54
 8000cf4:	f8b4 1060 	ldrh.w	r1, [r4, #96]	@ 0x60
 8000cf8:	4804      	ldr	r0, [pc, #16]	@ (8000d0c <_stack_check+0x38>)
 8000cfa:	f000 fbf1 	bl	80014e0 <ucx_printf>
 8000cfe:	e8bd 4010 	ldmia.w	sp!, {r4, lr}
 8000d02:	4803      	ldr	r0, [pc, #12]	@ (8000d10 <_stack_check+0x3c>)
 8000d04:	f001 b9d2 	b.w	80020ac <krnl_panic>
 8000d08:	20000048 	.word	0x20000048
 8000d0c:	080049b8 	.word	0x080049b8
 8000d10:	ffffc00a 	.word	0xffffc00a

08000d14 <__kbhit>:
 8000d14:	b500      	push	{lr}
 8000d16:	2000      	movs	r0, #0
 8000d18:	f001 fc7a 	bl	8002610 <usart_rxsize>
 8000d1c:	3800      	subs	r0, #0
 8000d1e:	bf18      	it	ne
 8000d20:	2001      	movne	r0, #1
 8000d22:	f85d fb04 	ldr.w	pc, [sp], #4
 8000d26:	bf00      	nop

08000d28 <__getchar>:
 8000d28:	b500      	push	{lr}
 8000d2a:	2000      	movs	r0, #0
 8000d2c:	f001 fcf8 	bl	8002720 <usart_rx>
 8000d30:	f85d fb04 	ldr.w	pc, [sp], #4

08000d34 <__putchar>:
 8000d34:	b510      	push	{r4, lr}
 8000d36:	b2c1      	uxtb	r1, r0
 8000d38:	4604      	mov	r4, r0
 8000d3a:	2000      	movs	r0, #0
 8000d3c:	f001 fca6 	bl	800268c <usart_tx>
 8000d40:	4620      	mov	r0, r4
 8000d42:	bd10      	pop	{r4, pc}

08000d44 <_delay_ms>:
 8000d44:	e92d 47f0 	stmdb	sp!, {r4, r5, r6, r7, r8, r9, sl, lr}
 8000d48:	4b2d      	ldr	r3, [pc, #180]	@ (8000e00 <_delay_ms+0xbc>)
 8000d4a:	f8df 80b8 	ldr.w	r8, [pc, #184]	@ 8000e04 <_delay_ms+0xc0>
 8000d4e:	6a5b      	ldr	r3, [r3, #36]	@ 0x24
 8000d50:	4f2d      	ldr	r7, [pc, #180]	@ (8000e08 <_delay_ms+0xc4>)
 8000d52:	f8b8 2000 	ldrh.w	r2, [r8]
 8000d56:	683c      	ldr	r4, [r7, #0]
 8000d58:	4e29      	ldr	r6, [pc, #164]	@ (8000e00 <_delay_ms+0xbc>)
 8000d5a:	b086      	sub	sp, #24
 8000d5c:	b29b      	uxth	r3, r3
 8000d5e:	f8ad 300c 	strh.w	r3, [sp, #12]
 8000d62:	f8bd 300c 	ldrh.w	r3, [sp, #12]
 8000d66:	b29b      	uxth	r3, r3
 8000d68:	429a      	cmp	r2, r3
 8000d6a:	f8bd 300c 	ldrh.w	r3, [sp, #12]
 8000d6e:	f8bd a00c 	ldrh.w	sl, [sp, #12]
 8000d72:	bf88      	it	hi
 8000d74:	3401      	addhi	r4, #1
 8000d76:	fa1f fa8a 	uxth.w	sl, sl
 8000d7a:	ea4f 4204 	mov.w	r2, r4, lsl #16
 8000d7e:	f44f 757a 	mov.w	r5, #1000	@ 0x3e8
 8000d82:	bf88      	it	hi
 8000d84:	603c      	strhi	r4, [r7, #0]
 8000d86:	ea4f 4c14 	mov.w	ip, r4, lsr #16
 8000d8a:	fba0 5e05 	umull	r5, lr, r0, r5
 8000d8e:	eb12 000a 	adds.w	r0, r2, sl
 8000d92:	f14c 0100 	adc.w	r1, ip, #0
 8000d96:	9004      	str	r0, [sp, #16]
 8000d98:	9105      	str	r1, [sp, #20]
 8000d9a:	b29b      	uxth	r3, r3
 8000d9c:	f04f 0900 	mov.w	r9, #0
 8000da0:	6a71      	ldr	r1, [r6, #36]	@ 0x24
 8000da2:	b289      	uxth	r1, r1
 8000da4:	f8ad 100e 	strh.w	r1, [sp, #14]
 8000da8:	f8bd 100e 	ldrh.w	r1, [sp, #14]
 8000dac:	b289      	uxth	r1, r1
 8000dae:	4299      	cmp	r1, r3
 8000db0:	d205      	bcs.n	8000dbe <_delay_ms+0x7a>
 8000db2:	3401      	adds	r4, #1
 8000db4:	ea4f 4c14 	mov.w	ip, r4, lsr #16
 8000db8:	0422      	lsls	r2, r4, #16
 8000dba:	f04f 0901 	mov.w	r9, #1
 8000dbe:	f8bd 300e 	ldrh.w	r3, [sp, #14]
 8000dc2:	f8bd a00e 	ldrh.w	sl, [sp, #14]
 8000dc6:	a904      	add	r1, sp, #16
 8000dc8:	c903      	ldmia	r1, {r0, r1}
 8000dca:	e88d 0003 	stmia.w	sp, {r0, r1}
 8000dce:	9900      	ldr	r1, [sp, #0]
 8000dd0:	fa1f fa8a 	uxth.w	sl, sl
 8000dd4:	ebba 0001 	subs.w	r0, sl, r1
 8000dd8:	9901      	ldr	r1, [sp, #4]
 8000dda:	eb61 0141 	sbc.w	r1, r1, r1, lsl #1
 8000dde:	1810      	adds	r0, r2, r0
 8000de0:	eb41 010c 	adc.w	r1, r1, ip
 8000de4:	42a8      	cmp	r0, r5
 8000de6:	eb71 010e 	sbcs.w	r1, r1, lr
 8000dea:	b29b      	uxth	r3, r3
 8000dec:	d3d8      	bcc.n	8000da0 <_delay_ms+0x5c>
 8000dee:	f8a8 3000 	strh.w	r3, [r8]
 8000df2:	f1b9 0f00 	cmp.w	r9, #0
 8000df6:	d000      	beq.n	8000dfa <_delay_ms+0xb6>
 8000df8:	603c      	str	r4, [r7, #0]
 8000dfa:	b006      	add	sp, #24
 8000dfc:	e8bd 87f0 	ldmia.w	sp!, {r4, r5, r6, r7, r8, r9, sl, pc}
 8000e00:	40014800 	.word	0x40014800
 8000e04:	20000310 	.word	0x20000310
 8000e08:	2000030c 	.word	0x2000030c

08000e0c <_delay_us>:
 8000e0c:	e92d 43f0 	stmdb	sp!, {r4, r5, r6, r7, r8, r9, lr}
 8000e10:	4b29      	ldr	r3, [pc, #164]	@ (8000eb8 <_delay_us+0xac>)
 8000e12:	f8df 80a8 	ldr.w	r8, [pc, #168]	@ 8000ebc <_delay_us+0xb0>
 8000e16:	6a5b      	ldr	r3, [r3, #36]	@ 0x24
 8000e18:	f8df e0a4 	ldr.w	lr, [pc, #164]	@ 8000ec0 <_delay_us+0xb4>
 8000e1c:	f8b8 2000 	ldrh.w	r2, [r8]
 8000e20:	f8de 6000 	ldr.w	r6, [lr]
 8000e24:	4f24      	ldr	r7, [pc, #144]	@ (8000eb8 <_delay_us+0xac>)
 8000e26:	b084      	sub	sp, #16
 8000e28:	b29b      	uxth	r3, r3
 8000e2a:	f8ad 3004 	strh.w	r3, [sp, #4]
 8000e2e:	f8bd 3004 	ldrh.w	r3, [sp, #4]
 8000e32:	b29b      	uxth	r3, r3
 8000e34:	429a      	cmp	r2, r3
 8000e36:	f8bd 2004 	ldrh.w	r2, [sp, #4]
 8000e3a:	f8bd 3004 	ldrh.w	r3, [sp, #4]
 8000e3e:	bf88      	it	hi
 8000e40:	3601      	addhi	r6, #1
 8000e42:	b29b      	uxth	r3, r3
 8000e44:	ea4f 4106 	mov.w	r1, r6, lsl #16
 8000e48:	bf88      	it	hi
 8000e4a:	f8ce 6000 	strhi.w	r6, [lr]
 8000e4e:	ea4f 4c16 	mov.w	ip, r6, lsr #16
 8000e52:	18cc      	adds	r4, r1, r3
 8000e54:	f14c 0500 	adc.w	r5, ip, #0
 8000e58:	9402      	str	r4, [sp, #8]
 8000e5a:	9503      	str	r5, [sp, #12]
 8000e5c:	b292      	uxth	r2, r2
 8000e5e:	f04f 0900 	mov.w	r9, #0
 8000e62:	6a7b      	ldr	r3, [r7, #36]	@ 0x24
 8000e64:	b29b      	uxth	r3, r3
 8000e66:	f8ad 3006 	strh.w	r3, [sp, #6]
 8000e6a:	f8bd 3006 	ldrh.w	r3, [sp, #6]
 8000e6e:	b29b      	uxth	r3, r3
 8000e70:	4293      	cmp	r3, r2
 8000e72:	d205      	bcs.n	8000e80 <_delay_us+0x74>
 8000e74:	3601      	adds	r6, #1
 8000e76:	ea4f 4c16 	mov.w	ip, r6, lsr #16
 8000e7a:	0431      	lsls	r1, r6, #16
 8000e7c:	f04f 0901 	mov.w	r9, #1
 8000e80:	f8bd 2006 	ldrh.w	r2, [sp, #6]
 8000e84:	f8bd 3006 	ldrh.w	r3, [sp, #6]
 8000e88:	ad02      	add	r5, sp, #8
 8000e8a:	cd30      	ldmia	r5, {r4, r5}
 8000e8c:	b29b      	uxth	r3, r3
 8000e8e:	1b1b      	subs	r3, r3, r4
 8000e90:	eb65 0445 	sbc.w	r4, r5, r5, lsl #1
 8000e94:	18cb      	adds	r3, r1, r3
 8000e96:	eb44 040c 	adc.w	r4, r4, ip
 8000e9a:	4283      	cmp	r3, r0
 8000e9c:	f174 0400 	sbcs.w	r4, r4, #0
 8000ea0:	b292      	uxth	r2, r2
 8000ea2:	d3de      	bcc.n	8000e62 <_delay_us+0x56>
 8000ea4:	f8a8 2000 	strh.w	r2, [r8]
 8000ea8:	f1b9 0f00 	cmp.w	r9, #0
 8000eac:	d001      	beq.n	8000eb2 <_delay_us+0xa6>
 8000eae:	f8ce 6000 	str.w	r6, [lr]
 8000eb2:	b004      	add	sp, #16
 8000eb4:	e8bd 83f0 	ldmia.w	sp!, {r4, r5, r6, r7, r8, r9, pc}
 8000eb8:	40014800 	.word	0x40014800
 8000ebc:	20000310 	.word	0x20000310
 8000ec0:	2000030c 	.word	0x2000030c

08000ec4 <_read_us>:
 8000ec4:	b410      	push	{r4}
 8000ec6:	4b10      	ldr	r3, [pc, #64]	@ (8000f08 <_read_us+0x44>)
 8000ec8:	4c10      	ldr	r4, [pc, #64]	@ (8000f0c <_read_us+0x48>)
 8000eca:	6a5b      	ldr	r3, [r3, #36]	@ 0x24
 8000ecc:	4910      	ldr	r1, [pc, #64]	@ (8000f10 <_read_us+0x4c>)
 8000ece:	8820      	ldrh	r0, [r4, #0]
 8000ed0:	b082      	sub	sp, #8
 8000ed2:	b29b      	uxth	r3, r3
 8000ed4:	f8ad 3006 	strh.w	r3, [sp, #6]
 8000ed8:	f8bd 2006 	ldrh.w	r2, [sp, #6]
 8000edc:	680b      	ldr	r3, [r1, #0]
 8000ede:	f8bd c006 	ldrh.w	ip, [sp, #6]
 8000ee2:	f8a4 c000 	strh.w	ip, [r4]
 8000ee6:	b292      	uxth	r2, r2
 8000ee8:	4290      	cmp	r0, r2
 8000eea:	f8bd 2006 	ldrh.w	r2, [sp, #6]
 8000eee:	bf84      	itt	hi
 8000ef0:	3301      	addhi	r3, #1
 8000ef2:	600b      	strhi	r3, [r1, #0]
 8000ef4:	b292      	uxth	r2, r2
 8000ef6:	0c19      	lsrs	r1, r3, #16
 8000ef8:	041b      	lsls	r3, r3, #16
 8000efa:	1898      	adds	r0, r3, r2
 8000efc:	f141 0100 	adc.w	r1, r1, #0
 8000f00:	b002      	add	sp, #8
 8000f02:	bc10      	pop	{r4}
 8000f04:	4770      	bx	lr
 8000f06:	bf00      	nop
 8000f08:	40014800 	.word	0x40014800
 8000f0c:	20000310 	.word	0x20000310
 8000f10:	2000030c 	.word	0x2000030c

08000f14 <SysTick_Handler>:
 8000f14:	b530      	push	{r4, r5, lr}
 8000f16:	4d0b      	ldr	r5, [pc, #44]	@ (8000f44 <SysTick_Handler+0x30>)
 8000f18:	682b      	ldr	r3, [r5, #0]
 8000f1a:	685b      	ldr	r3, [r3, #4]
 8000f1c:	685c      	ldr	r4, [r3, #4]
 8000f1e:	f7ff ffd1 	bl	8000ec4 <_read_us>
 8000f22:	4b09      	ldr	r3, [pc, #36]	@ (8000f48 <SysTick_Handler+0x34>)
 8000f24:	342c      	adds	r4, #44	@ 0x2c
 8000f26:	601c      	str	r4, [r3, #0]
 8000f28:	f001 f91c 	bl	8002164 <krnl_dispatcher>
 8000f2c:	682b      	ldr	r3, [r5, #0]
 8000f2e:	4a07      	ldr	r2, [pc, #28]	@ (8000f4c <SysTick_Handler+0x38>)
 8000f30:	685b      	ldr	r3, [r3, #4]
 8000f32:	4907      	ldr	r1, [pc, #28]	@ (8000f50 <SysTick_Handler+0x3c>)
 8000f34:	685b      	ldr	r3, [r3, #4]
 8000f36:	332c      	adds	r3, #44	@ 0x2c
 8000f38:	600b      	str	r3, [r1, #0]
 8000f3a:	6853      	ldr	r3, [r2, #4]
 8000f3c:	f043 5380 	orr.w	r3, r3, #268435456	@ 0x10000000
 8000f40:	6053      	str	r3, [r2, #4]
 8000f42:	bd30      	pop	{r4, r5, pc}
 8000f44:	20000048 	.word	0x20000048
 8000f48:	20000318 	.word	0x20000318
 8000f4c:	e000ed00 	.word	0xe000ed00
 8000f50:	20000314 	.word	0x20000314

08000f54 <syscall>:
 8000f54:	df0b      	svc	11
 8000f56:	4770      	bx	lr

08000f58 <_dispatch>:
 8000f58:	b510      	push	{r4, lr}
 8000f5a:	4c0a      	ldr	r4, [pc, #40]	@ (8000f84 <_dispatch+0x2c>)
 8000f5c:	6823      	ldr	r3, [r4, #0]
 8000f5e:	681b      	ldr	r3, [r3, #0]
 8000f60:	689b      	ldr	r3, [r3, #8]
 8000f62:	b15b      	cbz	r3, 8000f7c <_dispatch+0x24>
 8000f64:	f7ff feb6 	bl	8000cd4 <_stack_check>
 8000f68:	6823      	ldr	r3, [r4, #0]
 8000f6a:	4907      	ldr	r1, [pc, #28]	@ (8000f88 <_dispatch+0x30>)
 8000f6c:	6818      	ldr	r0, [r3, #0]
 8000f6e:	2200      	movs	r2, #0
 8000f70:	f000 fb0e 	bl	8001590 <list_foreach>
 8000f74:	e8bd 4010 	ldmia.w	sp!, {r4, lr}
 8000f78:	f001 b8ba 	b.w	80020f0 <krnl_schedule>
 8000f7c:	4803      	ldr	r0, [pc, #12]	@ (8000f8c <_dispatch+0x34>)
 8000f7e:	f001 f895 	bl	80020ac <krnl_panic>
 8000f82:	e7ef      	b.n	8000f64 <_dispatch+0xc>
 8000f84:	20000048 	.word	0x20000048
 8000f88:	08000c2d 	.word	0x08000c2d
 8000f8c:	ffffc001 	.word	0xffffc001

08000f90 <_hardware_init>:
 8000f90:	e92d 47f0 	stmdb	sp!, {r4, r5, r6, r7, r8, r9, sl, lr}
 8000f94:	4e52      	ldr	r6, [pc, #328]	@ (80010e0 <_hardware_init+0x150>)
 8000f96:	f8df 914c 	ldr.w	r9, [pc, #332]	@ 80010e4 <_hardware_init+0x154>
 8000f9a:	f8df 814c 	ldr.w	r8, [pc, #332]	@ 80010e8 <_hardware_init+0x158>
 8000f9e:	b086      	sub	sp, #24
 8000fa0:	f000 ffd2 	bl	8001f48 <SystemInit>
 8000fa4:	f001 f846 	bl	8002034 <SystemCoreClockUpdate>
 8000fa8:	6833      	ldr	r3, [r6, #0]
 8000faa:	4950      	ldr	r1, [pc, #320]	@ (80010ec <_hardware_init+0x15c>)
 8000fac:	4850      	ldr	r0, [pc, #320]	@ (80010f0 <_hardware_init+0x160>)
 8000fae:	fba1 1303 	umull	r1, r3, r1, r3
 8000fb2:	f04f 22e0 	mov.w	r2, #3758153728	@ 0xe000e000
 8000fb6:	f3c3 1357 	ubfx	r3, r3, #5, #24
 8000fba:	3b01      	subs	r3, #1
 8000fbc:	6153      	str	r3, [r2, #20]
 8000fbe:	2400      	movs	r4, #0
 8000fc0:	2306      	movs	r3, #6
 8000fc2:	25f0      	movs	r5, #240	@ 0xf0
 8000fc4:	f880 5023 	strb.w	r5, [r0, #35]	@ 0x23
 8000fc8:	2101      	movs	r1, #1
 8000fca:	6194      	str	r4, [r2, #24]
 8000fcc:	6113      	str	r3, [r2, #16]
 8000fce:	f880 5022 	strb.w	r5, [r0, #34]	@ 0x22
 8000fd2:	f44f 2080 	mov.w	r0, #262144	@ 0x40000
 8000fd6:	f000 ff3b 	bl	8001e50 <RCC_APB2PeriphClockCmd>
 8000fda:	a803      	add	r0, sp, #12
 8000fdc:	f000 ffa0 	bl	8001f20 <TIM_TimeBaseStructInit>
 8000fe0:	4a44      	ldr	r2, [pc, #272]	@ (80010f4 <_hardware_init+0x164>)
 8000fe2:	6833      	ldr	r3, [r6, #0]
 8000fe4:	4d44      	ldr	r5, [pc, #272]	@ (80010f8 <_hardware_init+0x168>)
 8000fe6:	f8ad 4014 	strh.w	r4, [sp, #20]
 8000fea:	fba2 2303 	umull	r2, r3, r2, r3
 8000fee:	f64f 71ff 	movw	r1, #65535	@ 0xffff
 8000ff2:	0c9b      	lsrs	r3, r3, #18
 8000ff4:	4628      	mov	r0, r5
 8000ff6:	9104      	str	r1, [sp, #16]
 8000ff8:	a903      	add	r1, sp, #12
 8000ffa:	f8ad 300c 	strh.w	r3, [sp, #12]
 8000ffe:	f8ad 400e 	strh.w	r4, [sp, #14]
 8001002:	f000 ff55 	bl	8001eb0 <TIM_TimeBaseInit>
 8001006:	4621      	mov	r1, r4
 8001008:	4628      	mov	r0, r5
 800100a:	f000 ff91 	bl	8001f30 <TIM_Cmd>
 800100e:	626c      	str	r4, [r5, #36]	@ 0x24
 8001010:	4628      	mov	r0, r5
 8001012:	2101      	movs	r1, #1
 8001014:	f000 ff8c 	bl	8001f30 <TIM_Cmd>
 8001018:	4622      	mov	r2, r4
 800101a:	f44f 31e1 	mov.w	r1, #115200	@ 0x1c200
 800101e:	4620      	mov	r0, r4
 8001020:	f001 f9c0 	bl	80023a4 <usart_init>
 8001024:	4835      	ldr	r0, [pc, #212]	@ (80010fc <_hardware_init+0x16c>)
 8001026:	4e34      	ldr	r6, [pc, #208]	@ (80010f8 <_hardware_init+0x168>)
 8001028:	f002 fad8 	bl	80035dc <_stdout_install>
 800102c:	4834      	ldr	r0, [pc, #208]	@ (8001100 <_hardware_init+0x170>)
 800102e:	f002 fadb 	bl	80035e8 <_stdin_install>
 8001032:	4834      	ldr	r0, [pc, #208]	@ (8001104 <_hardware_init+0x174>)
 8001034:	f002 fade 	bl	80035f4 <_stdpoll_install>
 8001038:	6a6b      	ldr	r3, [r5, #36]	@ 0x24
 800103a:	f8b9 2000 	ldrh.w	r2, [r9]
 800103e:	f8d8 4000 	ldr.w	r4, [r8]
 8001042:	4d31      	ldr	r5, [pc, #196]	@ (8001108 <_hardware_init+0x178>)
 8001044:	b29b      	uxth	r3, r3
 8001046:	f8ad 3008 	strh.w	r3, [sp, #8]
 800104a:	f8bd 3008 	ldrh.w	r3, [sp, #8]
 800104e:	b29b      	uxth	r3, r3
 8001050:	429a      	cmp	r2, r3
 8001052:	f8bd 3008 	ldrh.w	r3, [sp, #8]
 8001056:	f8bd a008 	ldrh.w	sl, [sp, #8]
 800105a:	bf88      	it	hi
 800105c:	3401      	addhi	r4, #1
 800105e:	fa1f fa8a 	uxth.w	sl, sl
 8001062:	ea4f 4204 	mov.w	r2, r4, lsl #16
 8001066:	bf88      	it	hi
 8001068:	f8c8 4000 	strhi.w	r4, [r8]
 800106c:	ea4f 4c14 	mov.w	ip, r4, lsr #16
 8001070:	eb12 000a 	adds.w	r0, r2, sl
 8001074:	f14c 0100 	adc.w	r1, ip, #0
 8001078:	9003      	str	r0, [sp, #12]
 800107a:	9104      	str	r1, [sp, #16]
 800107c:	2700      	movs	r7, #0
 800107e:	b29b      	uxth	r3, r3
 8001080:	46be      	mov	lr, r7
 8001082:	6a71      	ldr	r1, [r6, #36]	@ 0x24
 8001084:	b289      	uxth	r1, r1
 8001086:	f8ad 100a 	strh.w	r1, [sp, #10]
 800108a:	f8bd 100a 	ldrh.w	r1, [sp, #10]
 800108e:	b289      	uxth	r1, r1
 8001090:	4299      	cmp	r1, r3
 8001092:	d204      	bcs.n	800109e <_hardware_init+0x10e>
 8001094:	3401      	adds	r4, #1
 8001096:	ea4f 4c14 	mov.w	ip, r4, lsr #16
 800109a:	0422      	lsls	r2, r4, #16
 800109c:	2701      	movs	r7, #1
 800109e:	f8bd 300a 	ldrh.w	r3, [sp, #10]
 80010a2:	f8bd a00a 	ldrh.w	sl, [sp, #10]
 80010a6:	a903      	add	r1, sp, #12
 80010a8:	c903      	ldmia	r1, {r0, r1}
 80010aa:	e88d 0003 	stmia.w	sp, {r0, r1}
 80010ae:	9900      	ldr	r1, [sp, #0]
 80010b0:	fa1f fa8a 	uxth.w	sl, sl
 80010b4:	ebba 0001 	subs.w	r0, sl, r1
 80010b8:	9901      	ldr	r1, [sp, #4]
 80010ba:	eb61 0141 	sbc.w	r1, r1, r1, lsl #1
 80010be:	1810      	adds	r0, r2, r0
 80010c0:	eb41 010c 	adc.w	r1, r1, ip
 80010c4:	4285      	cmp	r5, r0
 80010c6:	eb7e 0101 	sbcs.w	r1, lr, r1
 80010ca:	b29b      	uxth	r3, r3
 80010cc:	d2d9      	bcs.n	8001082 <_hardware_init+0xf2>
 80010ce:	f8a9 3000 	strh.w	r3, [r9]
 80010d2:	b10f      	cbz	r7, 80010d8 <_hardware_init+0x148>
 80010d4:	f8c8 4000 	str.w	r4, [r8]
 80010d8:	b006      	add	sp, #24
 80010da:	e8bd 87f0 	ldmia.w	sp!, {r4, r5, r6, r7, r8, r9, sl, pc}
 80010de:	bf00      	nop
 80010e0:	20000044 	.word	0x20000044
 80010e4:	20000310 	.word	0x20000310
 80010e8:	2000030c 	.word	0x2000030c
 80010ec:	51eb851f 	.word	0x51eb851f
 80010f0:	e000ed00 	.word	0xe000ed00
 80010f4:	431bde83 	.word	0x431bde83
 80010f8:	40014800 	.word	0x40014800
 80010fc:	08000d35 	.word	0x08000d35
 8001100:	08000d29 	.word	0x08000d29
 8001104:	08000d15 	.word	0x08000d15
 8001108:	001e847f 	.word	0x001e847f

0800110c <_di>:
 800110c:	b672      	cpsid	i
 800110e:	4770      	bx	lr

08001110 <_ei>:
 8001110:	b662      	cpsie	i
 8001112:	f3bf 8f6f 	isb	sy
 8001116:	4770      	bx	lr

08001118 <_timer_enable>:
 8001118:	4801      	ldr	r0, [pc, #4]	@ (8001120 <_timer_enable+0x8>)
 800111a:	2100      	movs	r1, #0
 800111c:	f7ff bf1a 	b.w	8000f54 <syscall>
 8001120:	08000c59 	.word	0x08000c59

08001124 <_timer_disable>:
 8001124:	4801      	ldr	r0, [pc, #4]	@ (800112c <_timer_disable+0x8>)
 8001126:	2100      	movs	r1, #0
 8001128:	f7ff bf14 	b.w	8000f54 <syscall>
 800112c:	08000c69 	.word	0x08000c69

08001130 <_dispatch_init>:
 8001130:	4b0c      	ldr	r3, [pc, #48]	@ (8001164 <_dispatch_init+0x34>)
 8001132:	681b      	ldr	r3, [r3, #0]
 8001134:	685a      	ldr	r2, [r3, #4]
 8001136:	f893 3066 	ldrb.w	r3, [r3, #102]	@ 0x66
 800113a:	6852      	ldr	r2, [r2, #4]
 800113c:	2b79      	cmp	r3, #121	@ 0x79
 800113e:	d105      	bne.n	800114c <_dispatch_init+0x1c>
 8001140:	f04f 21e0 	mov.w	r1, #3758153728	@ 0xe000e000
 8001144:	690b      	ldr	r3, [r1, #16]
 8001146:	f043 0301 	orr.w	r3, r3, #1
 800114a:	610b      	str	r3, [r1, #16]
 800114c:	6a83      	ldr	r3, [r0, #40]	@ 0x28
 800114e:	3340      	adds	r3, #64	@ 0x40
 8001150:	f383 8809 	msr	PSP, r3
 8001154:	2303      	movs	r3, #3
 8001156:	f383 8814 	msr	CONTROL, r3
 800115a:	f3bf 8f6f 	isb	sy
 800115e:	6813      	ldr	r3, [r2, #0]
 8001160:	4718      	bx	r3
 8001162:	bf00      	nop
 8001164:	20000048 	.word	0x20000048

08001168 <_context_init>:
 8001168:	4411      	add	r1, r2
 800116a:	b410      	push	{r4}
 800116c:	f1a1 0240 	sub.w	r2, r1, #64	@ 0x40
 8001170:	f04f 7480 	mov.w	r4, #16777216	@ 0x1000000
 8001174:	6241      	str	r1, [r0, #36]	@ 0x24
 8001176:	6003      	str	r3, [r0, #0]
 8001178:	6282      	str	r2, [r0, #40]	@ 0x28
 800117a:	e901 0018 	stmdb	r1, {r3, r4}
 800117e:	bc10      	pop	{r4}
 8001180:	4770      	bx	lr
 8001182:	bf00      	nop

08001184 <ucx_vsprintf.isra.0>:
 8001184:	e92d 4ff0 	stmdb	sp!, {r4, r5, r6, r7, r8, r9, sl, fp, lr}
 8001188:	460c      	mov	r4, r1
 800118a:	7809      	ldrb	r1, [r1, #0]
 800118c:	b084      	sub	sp, #16
 800118e:	4680      	mov	r8, r0
 8001190:	4616      	mov	r6, r2
 8001192:	2900      	cmp	r1, #0
 8001194:	d03d      	beq.n	8001212 <ucx_vsprintf.isra.0+0x8e>
 8001196:	2925      	cmp	r1, #37	@ 0x25
 8001198:	f040 814b 	bne.w	8001432 <ucx_vsprintf.isra.0+0x2ae>
 800119c:	7863      	ldrb	r3, [r4, #1]
 800119e:	2b30      	cmp	r3, #48	@ 0x30
 80011a0:	f000 8130 	beq.w	8001404 <ucx_vsprintf.isra.0+0x280>
 80011a4:	f1a3 0230 	sub.w	r2, r3, #48	@ 0x30
 80011a8:	2a09      	cmp	r2, #9
 80011aa:	f104 0901 	add.w	r9, r4, #1
 80011ae:	f04f 0a20 	mov.w	sl, #32
 80011b2:	f240 8130 	bls.w	8001416 <ucx_vsprintf.isra.0+0x292>
 80011b6:	f04f 34ff 	mov.w	r4, #4294967295	@ 0xffffffff
 80011ba:	3b58      	subs	r3, #88	@ 0x58
 80011bc:	2b20      	cmp	r3, #32
 80011be:	d822      	bhi.n	8001206 <ucx_vsprintf.isra.0+0x82>
 80011c0:	e8df f013 	tbh	[pc, r3, lsl #1]
 80011c4:	00210036 	.word	0x00210036
 80011c8:	00210021 	.word	0x00210021
 80011cc:	00210021 	.word	0x00210021
 80011d0:	00210021 	.word	0x00210021
 80011d4:	00210021 	.word	0x00210021
 80011d8:	00a70021 	.word	0x00a70021
 80011dc:	0021011a 	.word	0x0021011a
 80011e0:	00210021 	.word	0x00210021
 80011e4:	00210021 	.word	0x00210021
 80011e8:	00210021 	.word	0x00210021
 80011ec:	00210114 	.word	0x00210114
 80011f0:	00210021 	.word	0x00210021
 80011f4:	0021010a 	.word	0x0021010a
 80011f8:	00d90021 	.word	0x00d90021
 80011fc:	00c00021 	.word	0x00c00021
 8001200:	00210021 	.word	0x00210021
 8001204:	0036      	.short	0x0036
 8001206:	f899 1001 	ldrb.w	r1, [r9, #1]
 800120a:	f109 0401 	add.w	r4, r9, #1
 800120e:	2900      	cmp	r1, #0
 8001210:	d1c1      	bne.n	8001196 <ucx_vsprintf.isra.0+0x12>
 8001212:	f1b8 0f00 	cmp.w	r8, #0
 8001216:	d008      	beq.n	800122a <ucx_vsprintf.isra.0+0xa6>
 8001218:	f8d8 3000 	ldr.w	r3, [r8]
 800121c:	2200      	movs	r2, #0
 800121e:	701a      	strb	r2, [r3, #0]
 8001220:	f8d8 3000 	ldr.w	r3, [r8]
 8001224:	3301      	adds	r3, #1
 8001226:	f8c8 3000 	str.w	r3, [r8]
 800122a:	b004      	add	sp, #16
 800122c:	e8bd 8ff0 	ldmia.w	sp!, {r4, r5, r6, r7, r8, r9, sl, fp, pc}
 8001230:	f856 7b04 	ldr.w	r7, [r6], #4
 8001234:	2110      	movs	r1, #16
 8001236:	2f00      	cmp	r7, #0
 8001238:	f040 808a 	bne.w	8001350 <ucx_vsprintf.isra.0+0x1cc>
 800123c:	2330      	movs	r3, #48	@ 0x30
 800123e:	f88d 3000 	strb.w	r3, [sp]
 8001242:	46eb      	mov	fp, sp
 8001244:	2301      	movs	r3, #1
 8001246:	1ae4      	subs	r4, r4, r3
 8001248:	2c00      	cmp	r4, #0
 800124a:	f104 35ff 	add.w	r5, r4, #4294967295	@ 0xffffffff
 800124e:	dd0e      	ble.n	800126e <ucx_vsprintf.isra.0+0xea>
 8001250:	f1b8 0f00 	cmp.w	r8, #0
 8001254:	d036      	beq.n	80012c4 <ucx_vsprintf.isra.0+0x140>
 8001256:	f8d8 3000 	ldr.w	r3, [r8]
 800125a:	f883 a000 	strb.w	sl, [r3]
 800125e:	f8d8 3000 	ldr.w	r3, [r8]
 8001262:	3d01      	subs	r5, #1
 8001264:	3301      	adds	r3, #1
 8001266:	1c6a      	adds	r2, r5, #1
 8001268:	f8c8 3000 	str.w	r3, [r8]
 800126c:	d1f5      	bne.n	800125a <ucx_vsprintf.isra.0+0xd6>
 800126e:	1c7a      	adds	r2, r7, #1
 8001270:	445a      	add	r2, fp
 8001272:	1e54      	subs	r4, r2, #1
 8001274:	f812 0c01 	ldrb.w	r0, [r2, #-1]
 8001278:	f1b8 0f00 	cmp.w	r8, #0
 800127c:	d02d      	beq.n	80012da <ucx_vsprintf.isra.0+0x156>
 800127e:	f8d8 3000 	ldr.w	r3, [r8]
 8001282:	e001      	b.n	8001288 <ucx_vsprintf.isra.0+0x104>
 8001284:	f814 0d01 	ldrb.w	r0, [r4, #-1]!
 8001288:	7018      	strb	r0, [r3, #0]
 800128a:	f8d8 3000 	ldr.w	r3, [r8]
 800128e:	45a3      	cmp	fp, r4
 8001290:	f103 0301 	add.w	r3, r3, #1
 8001294:	f8c8 3000 	str.w	r3, [r8]
 8001298:	d1f4      	bne.n	8001284 <ucx_vsprintf.isra.0+0x100>
 800129a:	f899 1001 	ldrb.w	r1, [r9, #1]
 800129e:	f109 0401 	add.w	r4, r9, #1
 80012a2:	2900      	cmp	r1, #0
 80012a4:	d0b5      	beq.n	8001212 <ucx_vsprintf.isra.0+0x8e>
 80012a6:	2925      	cmp	r1, #37	@ 0x25
 80012a8:	f43f af78 	beq.w	800119c <ucx_vsprintf.isra.0+0x18>
 80012ac:	4622      	mov	r2, r4
 80012ae:	7019      	strb	r1, [r3, #0]
 80012b0:	f8d8 3000 	ldr.w	r3, [r8]
 80012b4:	3301      	adds	r3, #1
 80012b6:	f8c8 3000 	str.w	r3, [r8]
 80012ba:	7851      	ldrb	r1, [r2, #1]
 80012bc:	3401      	adds	r4, #1
 80012be:	2900      	cmp	r1, #0
 80012c0:	d1f1      	bne.n	80012a6 <ucx_vsprintf.isra.0+0x122>
 80012c2:	e7ab      	b.n	800121c <ucx_vsprintf.isra.0+0x98>
 80012c4:	4650      	mov	r0, sl
 80012c6:	f002 f99b 	bl	8003600 <_putchar>
 80012ca:	3d01      	subs	r5, #1
 80012cc:	d3cf      	bcc.n	800126e <ucx_vsprintf.isra.0+0xea>
 80012ce:	4650      	mov	r0, sl
 80012d0:	f002 f996 	bl	8003600 <_putchar>
 80012d4:	3d01      	subs	r5, #1
 80012d6:	d2f5      	bcs.n	80012c4 <ucx_vsprintf.isra.0+0x140>
 80012d8:	e7c9      	b.n	800126e <ucx_vsprintf.isra.0+0xea>
 80012da:	b928      	cbnz	r0, 80012e8 <ucx_vsprintf.isra.0+0x164>
 80012dc:	45a3      	cmp	fp, r4
 80012de:	d007      	beq.n	80012f0 <ucx_vsprintf.isra.0+0x16c>
 80012e0:	f814 0d01 	ldrb.w	r0, [r4, #-1]!
 80012e4:	2800      	cmp	r0, #0
 80012e6:	d0f9      	beq.n	80012dc <ucx_vsprintf.isra.0+0x158>
 80012e8:	f002 f98a 	bl	8003600 <_putchar>
 80012ec:	45a3      	cmp	fp, r4
 80012ee:	d1f7      	bne.n	80012e0 <ucx_vsprintf.isra.0+0x15c>
 80012f0:	f899 1001 	ldrb.w	r1, [r9, #1]
 80012f4:	f109 0401 	add.w	r4, r9, #1
 80012f8:	2900      	cmp	r1, #0
 80012fa:	d096      	beq.n	800122a <ucx_vsprintf.isra.0+0xa6>
 80012fc:	2925      	cmp	r1, #37	@ 0x25
 80012fe:	f43f af4d 	beq.w	800119c <ucx_vsprintf.isra.0+0x18>
 8001302:	4608      	mov	r0, r1
 8001304:	f002 f97c 	bl	8003600 <_putchar>
 8001308:	7861      	ldrb	r1, [r4, #1]
 800130a:	3401      	adds	r4, #1
 800130c:	2900      	cmp	r1, #0
 800130e:	d1f5      	bne.n	80012fc <ucx_vsprintf.isra.0+0x178>
 8001310:	e78b      	b.n	800122a <ucx_vsprintf.isra.0+0xa6>
 8001312:	f856 0b04 	ldr.w	r0, [r6], #4
 8001316:	f1b8 0f00 	cmp.w	r8, #0
 800131a:	f000 80ac 	beq.w	8001476 <ucx_vsprintf.isra.0+0x2f2>
 800131e:	f8d8 2000 	ldr.w	r2, [r8]
 8001322:	7010      	strb	r0, [r2, #0]
 8001324:	f8d8 3000 	ldr.w	r3, [r8]
 8001328:	3301      	adds	r3, #1
 800132a:	f8c8 3000 	str.w	r3, [r8]
 800132e:	f899 1001 	ldrb.w	r1, [r9, #1]
 8001332:	2900      	cmp	r1, #0
 8001334:	f43f af72 	beq.w	800121c <ucx_vsprintf.isra.0+0x98>
 8001338:	2925      	cmp	r1, #37	@ 0x25
 800133a:	f109 0401 	add.w	r4, r9, #1
 800133e:	f43f af2d 	beq.w	800119c <ucx_vsprintf.isra.0+0x18>
 8001342:	e7b3      	b.n	80012ac <ucx_vsprintf.isra.0+0x128>
 8001344:	f856 7b04 	ldr.w	r7, [r6], #4
 8001348:	210a      	movs	r1, #10
 800134a:	2f00      	cmp	r7, #0
 800134c:	f43f af76 	beq.w	800123c <ucx_vsprintf.isra.0+0xb8>
 8001350:	463d      	mov	r5, r7
 8001352:	46eb      	mov	fp, sp
 8001354:	46ec      	mov	ip, sp
 8001356:	2300      	movs	r3, #0
 8001358:	4628      	mov	r0, r5
 800135a:	4f5a      	ldr	r7, [pc, #360]	@ (80014c4 <ucx_vsprintf.isra.0+0x340>)
 800135c:	fbb5 f5f1 	udiv	r5, r5, r1
 8001360:	fb01 0215 	mls	r2, r1, r5, r0
 8001364:	4288      	cmp	r0, r1
 8001366:	5cba      	ldrb	r2, [r7, r2]
 8001368:	f80c 2b01 	strb.w	r2, [ip], #1
 800136c:	461f      	mov	r7, r3
 800136e:	f103 0301 	add.w	r3, r3, #1
 8001372:	d2f1      	bcs.n	8001358 <ucx_vsprintf.isra.0+0x1d4>
 8001374:	e767      	b.n	8001246 <ucx_vsprintf.isra.0+0xc2>
 8001376:	f856 5b04 	ldr.w	r5, [r6], #4
 800137a:	2d00      	cmp	r5, #0
 800137c:	d078      	beq.n	8001470 <ucx_vsprintf.isra.0+0x2ec>
 800137e:	7828      	ldrb	r0, [r5, #0]
 8001380:	b1a8      	cbz	r0, 80013ae <ucx_vsprintf.isra.0+0x22a>
 8001382:	2c00      	cmp	r4, #0
 8001384:	f43f af3f 	beq.w	8001206 <ucx_vsprintf.isra.0+0x82>
 8001388:	f1b8 0f00 	cmp.w	r8, #0
 800138c:	d05c      	beq.n	8001448 <ucx_vsprintf.isra.0+0x2c4>
 800138e:	f8d8 3000 	ldr.w	r3, [r8]
 8001392:	e001      	b.n	8001398 <ucx_vsprintf.isra.0+0x214>
 8001394:	2c00      	cmp	r4, #0
 8001396:	d080      	beq.n	800129a <ucx_vsprintf.isra.0+0x116>
 8001398:	7018      	strb	r0, [r3, #0]
 800139a:	f8d8 3000 	ldr.w	r3, [r8]
 800139e:	3301      	adds	r3, #1
 80013a0:	f8c8 3000 	str.w	r3, [r8]
 80013a4:	f815 0f01 	ldrb.w	r0, [r5, #1]!
 80013a8:	3c01      	subs	r4, #1
 80013aa:	2800      	cmp	r0, #0
 80013ac:	d1f2      	bne.n	8001394 <ucx_vsprintf.isra.0+0x210>
 80013ae:	2c00      	cmp	r4, #0
 80013b0:	f104 35ff 	add.w	r5, r4, #4294967295	@ 0xffffffff
 80013b4:	f77f af27 	ble.w	8001206 <ucx_vsprintf.isra.0+0x82>
 80013b8:	f1b8 0f00 	cmp.w	r8, #0
 80013bc:	d04c      	beq.n	8001458 <ucx_vsprintf.isra.0+0x2d4>
 80013be:	f8d8 3000 	ldr.w	r3, [r8]
 80013c2:	f883 a000 	strb.w	sl, [r3]
 80013c6:	f8d8 3000 	ldr.w	r3, [r8]
 80013ca:	3d01      	subs	r5, #1
 80013cc:	3301      	adds	r3, #1
 80013ce:	1c69      	adds	r1, r5, #1
 80013d0:	f8c8 3000 	str.w	r3, [r8]
 80013d4:	d1f5      	bne.n	80013c2 <ucx_vsprintf.isra.0+0x23e>
 80013d6:	e760      	b.n	800129a <ucx_vsprintf.isra.0+0x116>
 80013d8:	f856 7b04 	ldr.w	r7, [r6], #4
 80013dc:	2f00      	cmp	r7, #0
 80013de:	d168      	bne.n	80014b2 <ucx_vsprintf.isra.0+0x32e>
 80013e0:	2330      	movs	r3, #48	@ 0x30
 80013e2:	f88d 3000 	strb.w	r3, [sp]
 80013e6:	2502      	movs	r5, #2
 80013e8:	46eb      	mov	fp, sp
 80013ea:	e731      	b.n	8001250 <ucx_vsprintf.isra.0+0xcc>
 80013ec:	f856 7b04 	ldr.w	r7, [r6], #4
 80013f0:	f109 0901 	add.w	r9, r9, #1
 80013f4:	210a      	movs	r1, #10
 80013f6:	e71e      	b.n	8001236 <ucx_vsprintf.isra.0+0xb2>
 80013f8:	f856 7b04 	ldr.w	r7, [r6], #4
 80013fc:	2f00      	cmp	r7, #0
 80013fe:	db48      	blt.n	8001492 <ucx_vsprintf.isra.0+0x30e>
 8001400:	210a      	movs	r1, #10
 8001402:	e718      	b.n	8001236 <ucx_vsprintf.isra.0+0xb2>
 8001404:	469a      	mov	sl, r3
 8001406:	78a3      	ldrb	r3, [r4, #2]
 8001408:	f1a3 0230 	sub.w	r2, r3, #48	@ 0x30
 800140c:	2a09      	cmp	r2, #9
 800140e:	f104 0902 	add.w	r9, r4, #2
 8001412:	f63f aed0 	bhi.w	80011b6 <ucx_vsprintf.isra.0+0x32>
 8001416:	2400      	movs	r4, #0
 8001418:	eb04 0484 	add.w	r4, r4, r4, lsl #2
 800141c:	eb03 0444 	add.w	r4, r3, r4, lsl #1
 8001420:	f819 3f01 	ldrb.w	r3, [r9, #1]!
 8001424:	f1a3 0230 	sub.w	r2, r3, #48	@ 0x30
 8001428:	2a09      	cmp	r2, #9
 800142a:	f1a4 0430 	sub.w	r4, r4, #48	@ 0x30
 800142e:	d9f3      	bls.n	8001418 <ucx_vsprintf.isra.0+0x294>
 8001430:	e6c3      	b.n	80011ba <ucx_vsprintf.isra.0+0x36>
 8001432:	f1b8 0f00 	cmp.w	r8, #0
 8001436:	f43f af64 	beq.w	8001302 <ucx_vsprintf.isra.0+0x17e>
 800143a:	f8d8 3000 	ldr.w	r3, [r8]
 800143e:	4622      	mov	r2, r4
 8001440:	e735      	b.n	80012ae <ucx_vsprintf.isra.0+0x12a>
 8001442:	2c00      	cmp	r4, #0
 8001444:	f43f aedf 	beq.w	8001206 <ucx_vsprintf.isra.0+0x82>
 8001448:	f002 f8da 	bl	8003600 <_putchar>
 800144c:	f815 0f01 	ldrb.w	r0, [r5, #1]!
 8001450:	3c01      	subs	r4, #1
 8001452:	2800      	cmp	r0, #0
 8001454:	d1f5      	bne.n	8001442 <ucx_vsprintf.isra.0+0x2be>
 8001456:	e7aa      	b.n	80013ae <ucx_vsprintf.isra.0+0x22a>
 8001458:	4650      	mov	r0, sl
 800145a:	f002 f8d1 	bl	8003600 <_putchar>
 800145e:	3d01      	subs	r5, #1
 8001460:	f4ff af46 	bcc.w	80012f0 <ucx_vsprintf.isra.0+0x16c>
 8001464:	4650      	mov	r0, sl
 8001466:	f002 f8cb 	bl	8003600 <_putchar>
 800146a:	3d01      	subs	r5, #1
 800146c:	d2f4      	bcs.n	8001458 <ucx_vsprintf.isra.0+0x2d4>
 800146e:	e73f      	b.n	80012f0 <ucx_vsprintf.isra.0+0x16c>
 8001470:	4d15      	ldr	r5, [pc, #84]	@ (80014c8 <ucx_vsprintf.isra.0+0x344>)
 8001472:	203c      	movs	r0, #60	@ 0x3c
 8001474:	e785      	b.n	8001382 <ucx_vsprintf.isra.0+0x1fe>
 8001476:	f010 00ff 	ands.w	r0, r0, #255	@ 0xff
 800147a:	f43f af39 	beq.w	80012f0 <ucx_vsprintf.isra.0+0x16c>
 800147e:	f002 f8bf 	bl	8003600 <_putchar>
 8001482:	f899 1001 	ldrb.w	r1, [r9, #1]
 8001486:	f109 0401 	add.w	r4, r9, #1
 800148a:	2900      	cmp	r1, #0
 800148c:	f47f af36 	bne.w	80012fc <ucx_vsprintf.isra.0+0x178>
 8001490:	e6cb      	b.n	800122a <ucx_vsprintf.isra.0+0xa6>
 8001492:	427d      	negs	r5, r7
 8001494:	f1b8 0f00 	cmp.w	r8, #0
 8001498:	d00f      	beq.n	80014ba <ucx_vsprintf.isra.0+0x336>
 800149a:	f8d8 3000 	ldr.w	r3, [r8]
 800149e:	222d      	movs	r2, #45	@ 0x2d
 80014a0:	701a      	strb	r2, [r3, #0]
 80014a2:	f8d8 3000 	ldr.w	r3, [r8]
 80014a6:	3301      	adds	r3, #1
 80014a8:	f8c8 3000 	str.w	r3, [r8]
 80014ac:	3c01      	subs	r4, #1
 80014ae:	210a      	movs	r1, #10
 80014b0:	e74f      	b.n	8001352 <ucx_vsprintf.isra.0+0x1ce>
 80014b2:	463d      	mov	r5, r7
 80014b4:	2110      	movs	r1, #16
 80014b6:	2404      	movs	r4, #4
 80014b8:	e74b      	b.n	8001352 <ucx_vsprintf.isra.0+0x1ce>
 80014ba:	202d      	movs	r0, #45	@ 0x2d
 80014bc:	f002 f8a0 	bl	8003600 <_putchar>
 80014c0:	e7f4      	b.n	80014ac <ucx_vsprintf.isra.0+0x328>
 80014c2:	bf00      	nop
 80014c4:	080049e8 	.word	0x080049e8
 80014c8:	080049e0 	.word	0x080049e0

080014cc <ucx_memset>:
 80014cc:	b132      	cbz	r2, 80014dc <ucx_memset+0x10>
 80014ce:	b2c9      	uxtb	r1, r1
 80014d0:	4402      	add	r2, r0
 80014d2:	4603      	mov	r3, r0
 80014d4:	f803 1b01 	strb.w	r1, [r3], #1
 80014d8:	429a      	cmp	r2, r3
 80014da:	d1fb      	bne.n	80014d4 <ucx_memset+0x8>
 80014dc:	4770      	bx	lr
 80014de:	bf00      	nop

080014e0 <ucx_printf>:
 80014e0:	b40f      	push	{r0, r1, r2, r3}
 80014e2:	b500      	push	{lr}
 80014e4:	b082      	sub	sp, #8
 80014e6:	aa03      	add	r2, sp, #12
 80014e8:	2000      	movs	r0, #0
 80014ea:	f852 1b04 	ldr.w	r1, [r2], #4
 80014ee:	9201      	str	r2, [sp, #4]
 80014f0:	f7ff fe48 	bl	8001184 <ucx_vsprintf.isra.0>
 80014f4:	2000      	movs	r0, #0
 80014f6:	b002      	add	sp, #8
 80014f8:	f85d eb04 	ldr.w	lr, [sp], #4
 80014fc:	b004      	add	sp, #16
 80014fe:	4770      	bx	lr

08001500 <list_create>:
 8001500:	b530      	push	{r4, r5, lr}
 8001502:	200c      	movs	r0, #12
 8001504:	f000 f8da 	bl	80016bc <ucx_malloc>
 8001508:	4604      	mov	r4, r0
 800150a:	b1c8      	cbz	r0, 8001540 <list_create+0x40>
 800150c:	2008      	movs	r0, #8
 800150e:	f000 f8d5 	bl	80016bc <ucx_malloc>
 8001512:	4605      	mov	r5, r0
 8001514:	b188      	cbz	r0, 800153a <list_create+0x3a>
 8001516:	2008      	movs	r0, #8
 8001518:	f000 f8d0 	bl	80016bc <ucx_malloc>
 800151c:	b198      	cbz	r0, 8001546 <list_create+0x46>
 800151e:	f64d 63ad 	movw	r3, #57005	@ 0xdead
 8001522:	e885 0009 	stmia.w	r5, {r0, r3}
 8001526:	2200      	movs	r2, #0
 8001528:	2300      	movs	r3, #0
 800152a:	e880 000c 	stmia.w	r0, {r2, r3}
 800152e:	2300      	movs	r3, #0
 8001530:	6060      	str	r0, [r4, #4]
 8001532:	6025      	str	r5, [r4, #0]
 8001534:	60a3      	str	r3, [r4, #8]
 8001536:	4620      	mov	r0, r4
 8001538:	bd30      	pop	{r4, r5, pc}
 800153a:	4620      	mov	r0, r4
 800153c:	f000 f890 	bl	8001660 <ucx_free>
 8001540:	2400      	movs	r4, #0
 8001542:	4620      	mov	r0, r4
 8001544:	bd30      	pop	{r4, r5, pc}
 8001546:	4620      	mov	r0, r4
 8001548:	f000 f88a 	bl	8001660 <ucx_free>
 800154c:	4628      	mov	r0, r5
 800154e:	f000 f887 	bl	8001660 <ucx_free>
 8001552:	e7f5      	b.n	8001540 <list_create+0x40>

08001554 <list_pushback>:
 8001554:	b530      	push	{r4, r5, lr}
 8001556:	4604      	mov	r4, r0
 8001558:	2008      	movs	r0, #8
 800155a:	460d      	mov	r5, r1
 800155c:	f000 f8ae 	bl	80016bc <ucx_malloc>
 8001560:	4603      	mov	r3, r0
 8001562:	b150      	cbz	r0, 800157a <list_pushback+0x26>
 8001564:	2000      	movs	r0, #0
 8001566:	2100      	movs	r1, #0
 8001568:	e883 0003 	stmia.w	r3, {r0, r1}
 800156c:	68a2      	ldr	r2, [r4, #8]
 800156e:	6860      	ldr	r0, [r4, #4]
 8001570:	3201      	adds	r2, #1
 8001572:	e880 0028 	stmia.w	r0, {r3, r5}
 8001576:	6063      	str	r3, [r4, #4]
 8001578:	60a2      	str	r2, [r4, #8]
 800157a:	bd30      	pop	{r4, r5, pc}

0800157c <list_cnext>:
 800157c:	680b      	ldr	r3, [r1, #0]
 800157e:	681a      	ldr	r2, [r3, #0]
 8001580:	b10a      	cbz	r2, 8001586 <list_cnext+0xa>
 8001582:	4618      	mov	r0, r3
 8001584:	4770      	bx	lr
 8001586:	6803      	ldr	r3, [r0, #0]
 8001588:	681b      	ldr	r3, [r3, #0]
 800158a:	4618      	mov	r0, r3
 800158c:	4770      	bx	lr
 800158e:	bf00      	nop

08001590 <list_foreach>:
 8001590:	6803      	ldr	r3, [r0, #0]
 8001592:	b570      	push	{r4, r5, r6, lr}
 8001594:	681c      	ldr	r4, [r3, #0]
 8001596:	6823      	ldr	r3, [r4, #0]
 8001598:	460e      	mov	r6, r1
 800159a:	4615      	mov	r5, r2
 800159c:	b91b      	cbnz	r3, 80015a6 <list_foreach+0x16>
 800159e:	e008      	b.n	80015b2 <list_foreach+0x22>
 80015a0:	6824      	ldr	r4, [r4, #0]
 80015a2:	6823      	ldr	r3, [r4, #0]
 80015a4:	b12b      	cbz	r3, 80015b2 <list_foreach+0x22>
 80015a6:	4629      	mov	r1, r5
 80015a8:	4620      	mov	r0, r4
 80015aa:	47b0      	blx	r6
 80015ac:	2800      	cmp	r0, #0
 80015ae:	d0f7      	beq.n	80015a0 <list_foreach+0x10>
 80015b0:	bd70      	pop	{r4, r5, r6, pc}
 80015b2:	2000      	movs	r0, #0
 80015b4:	bd70      	pop	{r4, r5, r6, pc}
 80015b6:	bf00      	nop

080015b8 <main>:
 80015b8:	b530      	push	{r4, r5, lr}
 80015ba:	b081      	sub	sp, #4
 80015bc:	f7ff fce8 	bl	8000f90 <_hardware_init>
 80015c0:	4a1e      	ldr	r2, [pc, #120]	@ (800163c <main+0x84>)
 80015c2:	491f      	ldr	r1, [pc, #124]	@ (8001640 <main+0x88>)
 80015c4:	481f      	ldr	r0, [pc, #124]	@ (8001644 <main+0x8c>)
 80015c6:	4c20      	ldr	r4, [pc, #128]	@ (8001648 <main+0x90>)
 80015c8:	f7ff ff8a 	bl	80014e0 <ucx_printf>
 80015cc:	481f      	ldr	r0, [pc, #124]	@ (800164c <main+0x94>)
 80015ce:	4920      	ldr	r1, [pc, #128]	@ (8001650 <main+0x98>)
 80015d0:	f000 f8cc 	bl	800176c <ucx_heap_init>
 80015d4:	491e      	ldr	r1, [pc, #120]	@ (8001650 <main+0x98>)
 80015d6:	481f      	ldr	r0, [pc, #124]	@ (8001654 <main+0x9c>)
 80015d8:	f7ff ff82 	bl	80014e0 <ucx_printf>
 80015dc:	6825      	ldr	r5, [r4, #0]
 80015de:	f7ff ff8f 	bl	8001500 <list_create>
 80015e2:	6823      	ldr	r3, [r4, #0]
 80015e4:	6028      	str	r0, [r5, #0]
 80015e6:	681b      	ldr	r3, [r3, #0]
 80015e8:	b31b      	cbz	r3, 8001632 <main+0x7a>
 80015ea:	f7fe fe8f 	bl	800030c <app_main>
 80015ee:	4b16      	ldr	r3, [pc, #88]	@ (8001648 <main+0x90>)
 80015f0:	9000      	str	r0, [sp, #0]
 80015f2:	6818      	ldr	r0, [r3, #0]
 80015f4:	3008      	adds	r0, #8
 80015f6:	f7fe fdc7 	bl	8000188 <setjmp>
 80015fa:	4c13      	ldr	r4, [pc, #76]	@ (8001648 <main+0x90>)
 80015fc:	6823      	ldr	r3, [r4, #0]
 80015fe:	681a      	ldr	r2, [r3, #0]
 8001600:	6891      	ldr	r1, [r2, #8]
 8001602:	b181      	cbz	r1, 8001626 <main+0x6e>
 8001604:	9900      	ldr	r1, [sp, #0]
 8001606:	2900      	cmp	r1, #0
 8001608:	bf0c      	ite	eq
 800160a:	216e      	moveq	r1, #110	@ 0x6e
 800160c:	2179      	movne	r1, #121	@ 0x79
 800160e:	f883 1066 	strb.w	r1, [r3, #102]	@ 0x66
 8001612:	6812      	ldr	r2, [r2, #0]
 8001614:	6812      	ldr	r2, [r2, #0]
 8001616:	605a      	str	r2, [r3, #4]
 8001618:	6850      	ldr	r0, [r2, #4]
 800161a:	3004      	adds	r0, #4
 800161c:	f7ff fd88 	bl	8001130 <_dispatch_init>
 8001620:	2000      	movs	r0, #0
 8001622:	b001      	add	sp, #4
 8001624:	bd30      	pop	{r4, r5, pc}
 8001626:	480c      	ldr	r0, [pc, #48]	@ (8001658 <main+0xa0>)
 8001628:	f000 fd40 	bl	80020ac <krnl_panic>
 800162c:	6823      	ldr	r3, [r4, #0]
 800162e:	681a      	ldr	r2, [r3, #0]
 8001630:	e7e8      	b.n	8001604 <main+0x4c>
 8001632:	480a      	ldr	r0, [pc, #40]	@ (800165c <main+0xa4>)
 8001634:	f000 fd3a 	bl	80020ac <krnl_panic>
 8001638:	e7d7      	b.n	80015ea <main+0x32>
 800163a:	bf00      	nop
 800163c:	080049fc 	.word	0x080049fc
 8001640:	08004a18 	.word	0x08004a18
 8001644:	08004a20 	.word	0x08004a20
 8001648:	20000048 	.word	0x20000048
 800164c:	200013fc 	.word	0x200013fc
 8001650:	0001cc04 	.word	0x0001cc04
 8001654:	08004a38 	.word	0x08004a38
 8001658:	ffffc001 	.word	0xffffc001
 800165c:	ffffc002 	.word	0xffffc002

08001660 <ucx_free>:
 8001660:	b530      	push	{r4, r5, lr}
 8001662:	4d13      	ldr	r5, [pc, #76]	@ (80016b0 <ucx_free+0x50>)
 8001664:	682b      	ldr	r3, [r5, #0]
 8001666:	f893 3066 	ldrb.w	r3, [r3, #102]	@ 0x66
 800166a:	2b79      	cmp	r3, #121	@ 0x79
 800166c:	4604      	mov	r4, r0
 800166e:	d00a      	beq.n	8001686 <ucx_free+0x26>
 8001670:	f850 3c04 	ldr.w	r3, [r0, #-4]
 8001674:	490f      	ldr	r1, [pc, #60]	@ (80016b4 <ucx_free+0x54>)
 8001676:	4a10      	ldr	r2, [pc, #64]	@ (80016b8 <ucx_free+0x58>)
 8001678:	6809      	ldr	r1, [r1, #0]
 800167a:	f023 0301 	bic.w	r3, r3, #1
 800167e:	f840 3c04 	str.w	r3, [r0, #-4]
 8001682:	6011      	str	r1, [r2, #0]
 8001684:	bd30      	pop	{r4, r5, pc}
 8001686:	f7ff fd41 	bl	800110c <_di>
 800168a:	682a      	ldr	r2, [r5, #0]
 800168c:	f854 3c04 	ldr.w	r3, [r4, #-4]
 8001690:	f892 2066 	ldrb.w	r2, [r2, #102]	@ 0x66
 8001694:	4807      	ldr	r0, [pc, #28]	@ (80016b4 <ucx_free+0x54>)
 8001696:	4908      	ldr	r1, [pc, #32]	@ (80016b8 <ucx_free+0x58>)
 8001698:	6800      	ldr	r0, [r0, #0]
 800169a:	f023 0301 	bic.w	r3, r3, #1
 800169e:	2a79      	cmp	r2, #121	@ 0x79
 80016a0:	f844 3c04 	str.w	r3, [r4, #-4]
 80016a4:	6008      	str	r0, [r1, #0]
 80016a6:	d1ed      	bne.n	8001684 <ucx_free+0x24>
 80016a8:	e8bd 4030 	ldmia.w	sp!, {r4, r5, lr}
 80016ac:	f7ff bd30 	b.w	8001110 <_ei>
 80016b0:	20000048 	.word	0x20000048
 80016b4:	20000320 	.word	0x20000320
 80016b8:	2000031c 	.word	0x2000031c

080016bc <ucx_malloc>:
 80016bc:	b5f0      	push	{r4, r5, r6, r7, lr}
 80016be:	4c29      	ldr	r4, [pc, #164]	@ (8001764 <ucx_malloc+0xa8>)
 80016c0:	6823      	ldr	r3, [r4, #0]
 80016c2:	f893 e066 	ldrb.w	lr, [r3, #102]	@ 0x66
 80016c6:	1cc6      	adds	r6, r0, #3
 80016c8:	f1be 0f79 	cmp.w	lr, #121	@ 0x79
 80016cc:	b081      	sub	sp, #4
 80016ce:	f026 0603 	bic.w	r6, r6, #3
 80016d2:	d035      	beq.n	8001740 <ucx_malloc+0x84>
 80016d4:	4f24      	ldr	r7, [pc, #144]	@ (8001768 <ucx_malloc+0xac>)
 80016d6:	6839      	ldr	r1, [r7, #0]
 80016d8:	f06f 0507 	mvn.w	r5, #7
 80016dc:	460c      	mov	r4, r1
 80016de:	f106 0c08 	add.w	ip, r6, #8
 80016e2:	6808      	ldr	r0, [r1, #0]
 80016e4:	2800      	cmp	r0, #0
 80016e6:	d034      	beq.n	8001752 <ucx_malloc+0x96>
 80016e8:	684b      	ldr	r3, [r1, #4]
 80016ea:	f013 0301 	ands.w	r3, r3, #1
 80016ee:	d101      	bne.n	80016f4 <ucx_malloc+0x38>
 80016f0:	e006      	b.n	8001700 <ucx_malloc+0x44>
 80016f2:	6800      	ldr	r0, [r0, #0]
 80016f4:	6843      	ldr	r3, [r0, #4]
 80016f6:	f013 0301 	ands.w	r3, r3, #1
 80016fa:	d1fa      	bne.n	80016f2 <ucx_malloc+0x36>
 80016fc:	4604      	mov	r4, r0
 80016fe:	4601      	mov	r1, r0
 8001700:	b93b      	cbnz	r3, 8001712 <ucx_malloc+0x56>
 8001702:	680a      	ldr	r2, [r1, #0]
 8001704:	b12a      	cbz	r2, 8001712 <ucx_malloc+0x56>
 8001706:	6853      	ldr	r3, [r2, #4]
 8001708:	f003 0301 	and.w	r3, r3, #1
 800170c:	4611      	mov	r1, r2
 800170e:	2b00      	cmp	r3, #0
 8001710:	d0f7      	beq.n	8001702 <ucx_malloc+0x46>
 8001712:	1b2b      	subs	r3, r5, r4
 8001714:	440b      	add	r3, r1
 8001716:	4563      	cmp	r3, ip
 8001718:	e884 000a 	stmia.w	r4, {r1, r3}
 800171c:	d3e1      	bcc.n	80016e2 <ucx_malloc+0x26>
 800171e:	eb04 030c 	add.w	r3, r4, ip
 8001722:	f046 0601 	orr.w	r6, r6, #1
 8001726:	f1be 0f79 	cmp.w	lr, #121	@ 0x79
 800172a:	603c      	str	r4, [r7, #0]
 800172c:	6066      	str	r6, [r4, #4]
 800172e:	6023      	str	r3, [r4, #0]
 8001730:	f844 100c 	str.w	r1, [r4, ip]
 8001734:	605d      	str	r5, [r3, #4]
 8001736:	d009      	beq.n	800174c <ucx_malloc+0x90>
 8001738:	f104 0008 	add.w	r0, r4, #8
 800173c:	b001      	add	sp, #4
 800173e:	bdf0      	pop	{r4, r5, r6, r7, pc}
 8001740:	f7ff fce4 	bl	800110c <_di>
 8001744:	6823      	ldr	r3, [r4, #0]
 8001746:	f893 e066 	ldrb.w	lr, [r3, #102]	@ 0x66
 800174a:	e7c3      	b.n	80016d4 <ucx_malloc+0x18>
 800174c:	f7ff fce0 	bl	8001110 <_ei>
 8001750:	e7f2      	b.n	8001738 <ucx_malloc+0x7c>
 8001752:	f1be 0f79 	cmp.w	lr, #121	@ 0x79
 8001756:	d1f1      	bne.n	800173c <ucx_malloc+0x80>
 8001758:	9000      	str	r0, [sp, #0]
 800175a:	f7ff fcd9 	bl	8001110 <_ei>
 800175e:	9800      	ldr	r0, [sp, #0]
 8001760:	e7ec      	b.n	800173c <ucx_malloc+0x80>
 8001762:	bf00      	nop
 8001764:	20000048 	.word	0x20000048
 8001768:	2000031c 	.word	0x2000031c

0800176c <ucx_heap_init>:
 800176c:	f1a1 0c08 	sub.w	ip, r1, #8
 8001770:	3103      	adds	r1, #3
 8001772:	f021 0103 	bic.w	r1, r1, #3
 8001776:	3910      	subs	r1, #16
 8001778:	b410      	push	{r4}
 800177a:	eb00 030c 	add.w	r3, r0, ip
 800177e:	6041      	str	r1, [r0, #4]
 8001780:	4c05      	ldr	r4, [pc, #20]	@ (8001798 <ucx_heap_init+0x2c>)
 8001782:	4906      	ldr	r1, [pc, #24]	@ (800179c <ucx_heap_init+0x30>)
 8001784:	6003      	str	r3, [r0, #0]
 8001786:	2200      	movs	r2, #0
 8001788:	f840 200c 	str.w	r2, [r0, ip]
 800178c:	6020      	str	r0, [r4, #0]
 800178e:	605a      	str	r2, [r3, #4]
 8001790:	bc10      	pop	{r4}
 8001792:	6008      	str	r0, [r1, #0]
 8001794:	4770      	bx	lr
 8001796:	bf00      	nop
 8001798:	20000320 	.word	0x20000320
 800179c:	2000031c 	.word	0x2000031c

080017a0 <NVIC_PriorityGroupConfig>:
 80017a0:	4b03      	ldr	r3, [pc, #12]	@ (80017b0 <NVIC_PriorityGroupConfig+0x10>)
 80017a2:	f040 60bf 	orr.w	r0, r0, #100139008	@ 0x5f80000
 80017a6:	f440 3000 	orr.w	r0, r0, #131072	@ 0x20000
 80017aa:	60d8      	str	r0, [r3, #12]
 80017ac:	4770      	bx	lr
 80017ae:	bf00      	nop
 80017b0:	e000ed00 	.word	0xe000ed00

080017b4 <NVIC_Init>:
 80017b4:	b510      	push	{r4, lr}
 80017b6:	7802      	ldrb	r2, [r0, #0]
 80017b8:	6843      	ldr	r3, [r0, #4]
 80017ba:	2101      	movs	r1, #1
 80017bc:	f002 041f 	and.w	r4, r2, #31
 80017c0:	ea4f 1e52 	mov.w	lr, r2, lsr #5
 80017c4:	40a1      	lsls	r1, r4
 80017c6:	b1db      	cbz	r3, 8001800 <NVIC_Init+0x4c>
 80017c8:	4b10      	ldr	r3, [pc, #64]	@ (800180c <NVIC_Init+0x58>)
 80017ca:	7844      	ldrb	r4, [r0, #1]
 80017cc:	68db      	ldr	r3, [r3, #12]
 80017ce:	ea6f 0c03 	mvn.w	ip, r3
 80017d2:	f3cc 2c02 	ubfx	ip, ip, #8, #3
 80017d6:	7883      	ldrb	r3, [r0, #2]
 80017d8:	f1cc 0004 	rsb	r0, ip, #4
 80017dc:	b2c0      	uxtb	r0, r0
 80017de:	fa04 f000 	lsl.w	r0, r4, r0
 80017e2:	240f      	movs	r4, #15
 80017e4:	fa44 f40c 	asr.w	r4, r4, ip
 80017e8:	b2c0      	uxtb	r0, r0
 80017ea:	4023      	ands	r3, r4
 80017ec:	4303      	orrs	r3, r0
 80017ee:	4808      	ldr	r0, [pc, #32]	@ (8001810 <NVIC_Init+0x5c>)
 80017f0:	011b      	lsls	r3, r3, #4
 80017f2:	4402      	add	r2, r0
 80017f4:	b2db      	uxtb	r3, r3
 80017f6:	f882 3300 	strb.w	r3, [r2, #768]	@ 0x300
 80017fa:	f840 102e 	str.w	r1, [r0, lr, lsl #2]
 80017fe:	bd10      	pop	{r4, pc}
 8001800:	4b03      	ldr	r3, [pc, #12]	@ (8001810 <NVIC_Init+0x5c>)
 8001802:	f10e 0e20 	add.w	lr, lr, #32
 8001806:	f843 102e 	str.w	r1, [r3, lr, lsl #2]
 800180a:	bd10      	pop	{r4, pc}
 800180c:	e000ed00 	.word	0xe000ed00
 8001810:	e000e100 	.word	0xe000e100

08001814 <slb_driver_init>:
 8001814:	b530      	push	{r4, r5, lr}
 8001816:	6885      	ldr	r5, [r0, #8]
 8001818:	6844      	ldr	r4, [r0, #4]
 800181a:	2300      	movs	r3, #0
 800181c:	802b      	strh	r3, [r5, #0]
 800181e:	68e3      	ldr	r3, [r4, #12]
 8001820:	4798      	blx	r3
 8001822:	2800      	cmp	r0, #0
 8001824:	db0a      	blt.n	800183c <slb_driver_init+0x28>
 8001826:	7923      	ldrb	r3, [r4, #4]
 8001828:	b14b      	cbz	r3, 800183e <slb_driver_init+0x2a>
 800182a:	2b01      	cmp	r3, #1
 800182c:	d10b      	bne.n	8001846 <slb_driver_init+0x32>
 800182e:	6923      	ldr	r3, [r4, #16]
 8001830:	f04f 30ff 	mov.w	r0, #4294967295	@ 0xffffffff
 8001834:	4798      	blx	r3
 8001836:	2301      	movs	r3, #1
 8001838:	702b      	strb	r3, [r5, #0]
 800183a:	2000      	movs	r0, #0
 800183c:	bd30      	pop	{r4, r5, pc}
 800183e:	6923      	ldr	r3, [r4, #16]
 8001840:	2001      	movs	r0, #1
 8001842:	4798      	blx	r3
 8001844:	e7f7      	b.n	8001836 <slb_driver_init+0x22>
 8001846:	f04f 30ff 	mov.w	r0, #4294967295	@ 0xffffffff
 800184a:	bd30      	pop	{r4, r5, pc}

0800184c <slb_driver_close>:
 800184c:	b530      	push	{r4, r5, lr}
 800184e:	6884      	ldr	r4, [r0, #8]
 8001850:	7823      	ldrb	r3, [r4, #0]
 8001852:	b1ab      	cbz	r3, 8001880 <slb_driver_close+0x34>
 8001854:	4d0c      	ldr	r5, [pc, #48]	@ (8001888 <slb_driver_close+0x3c>)
 8001856:	682b      	ldr	r3, [r5, #0]
 8001858:	f893 3066 	ldrb.w	r3, [r3, #102]	@ 0x66
 800185c:	2b79      	cmp	r3, #121	@ 0x79
 800185e:	d003      	beq.n	8001868 <slb_driver_close+0x1c>
 8001860:	2300      	movs	r3, #0
 8001862:	7063      	strb	r3, [r4, #1]
 8001864:	2000      	movs	r0, #0
 8001866:	bd30      	pop	{r4, r5, pc}
 8001868:	f7ff fc50 	bl	800110c <_di>
 800186c:	682b      	ldr	r3, [r5, #0]
 800186e:	f893 3066 	ldrb.w	r3, [r3, #102]	@ 0x66
 8001872:	2200      	movs	r2, #0
 8001874:	2b79      	cmp	r3, #121	@ 0x79
 8001876:	7062      	strb	r2, [r4, #1]
 8001878:	d1f4      	bne.n	8001864 <slb_driver_close+0x18>
 800187a:	f7ff fc49 	bl	8001110 <_ei>
 800187e:	e7f1      	b.n	8001864 <slb_driver_close+0x18>
 8001880:	f04f 30ff 	mov.w	r0, #4294967295	@ 0xffffffff
 8001884:	bd30      	pop	{r4, r5, pc}
 8001886:	bf00      	nop
 8001888:	20000048 	.word	0x20000048

0800188c <slb_driver_open>:
 800188c:	b570      	push	{r4, r5, r6, lr}
 800188e:	6885      	ldr	r5, [r0, #8]
 8001890:	782b      	ldrb	r3, [r5, #0]
 8001892:	b081      	sub	sp, #4
 8001894:	460c      	mov	r4, r1
 8001896:	b313      	cbz	r3, 80018de <slb_driver_open+0x52>
 8001898:	4e12      	ldr	r6, [pc, #72]	@ (80018e4 <slb_driver_open+0x58>)
 800189a:	6833      	ldr	r3, [r6, #0]
 800189c:	f893 3066 	ldrb.w	r3, [r3, #102]	@ 0x66
 80018a0:	2b79      	cmp	r3, #121	@ 0x79
 80018a2:	d009      	beq.n	80018b8 <slb_driver_open+0x2c>
 80018a4:	7868      	ldrb	r0, [r5, #1]
 80018a6:	b920      	cbnz	r0, 80018b2 <slb_driver_open+0x26>
 80018a8:	2301      	movs	r3, #1
 80018aa:	706b      	strb	r3, [r5, #1]
 80018ac:	b9bc      	cbnz	r4, 80018de <slb_driver_open+0x52>
 80018ae:	b001      	add	sp, #4
 80018b0:	bd70      	pop	{r4, r5, r6, pc}
 80018b2:	f04f 30ff 	mov.w	r0, #4294967295	@ 0xffffffff
 80018b6:	e7f9      	b.n	80018ac <slb_driver_open+0x20>
 80018b8:	f7ff fc28 	bl	800110c <_di>
 80018bc:	6833      	ldr	r3, [r6, #0]
 80018be:	7868      	ldrb	r0, [r5, #1]
 80018c0:	f893 3066 	ldrb.w	r3, [r3, #102]	@ 0x66
 80018c4:	b140      	cbz	r0, 80018d8 <slb_driver_open+0x4c>
 80018c6:	f04f 30ff 	mov.w	r0, #4294967295	@ 0xffffffff
 80018ca:	2b79      	cmp	r3, #121	@ 0x79
 80018cc:	d1ee      	bne.n	80018ac <slb_driver_open+0x20>
 80018ce:	9000      	str	r0, [sp, #0]
 80018d0:	f7ff fc1e 	bl	8001110 <_ei>
 80018d4:	9800      	ldr	r0, [sp, #0]
 80018d6:	e7e9      	b.n	80018ac <slb_driver_open+0x20>
 80018d8:	2201      	movs	r2, #1
 80018da:	706a      	strb	r2, [r5, #1]
 80018dc:	e7f5      	b.n	80018ca <slb_driver_open+0x3e>
 80018de:	f04f 30ff 	mov.w	r0, #4294967295	@ 0xffffffff
 80018e2:	e7e4      	b.n	80018ae <slb_driver_open+0x22>
 80018e4:	20000048 	.word	0x20000048

080018e8 <slb_driver_read>:
 80018e8:	e92d 4ff0 	stmdb	sp!, {r4, r5, r6, r7, r8, r9, sl, fp, lr}
 80018ec:	6883      	ldr	r3, [r0, #8]
 80018ee:	b086      	sub	sp, #24
 80018f0:	781b      	ldrb	r3, [r3, #0]
 80018f2:	9202      	str	r2, [sp, #8]
 80018f4:	4683      	mov	fp, r0
 80018f6:	2b00      	cmp	r3, #0
 80018f8:	f000 80aa 	beq.w	8001a50 <slb_driver_read+0x168>
 80018fc:	9b02      	ldr	r3, [sp, #8]
 80018fe:	6846      	ldr	r6, [r0, #4]
 8001900:	3301      	adds	r3, #1
 8001902:	9301      	str	r3, [sp, #4]
 8001904:	1e4b      	subs	r3, r1, #1
 8001906:	9303      	str	r3, [sp, #12]
 8001908:	4689      	mov	r9, r1
 800190a:	4b5e      	ldr	r3, [pc, #376]	@ (8001a84 <slb_driver_read+0x19c>)
 800190c:	681b      	ldr	r3, [r3, #0]
 800190e:	f893 3066 	ldrb.w	r3, [r3, #102]	@ 0x66
 8001912:	2b79      	cmp	r3, #121	@ 0x79
 8001914:	f000 8099 	beq.w	8001a4a <slb_driver_read+0x162>
 8001918:	6933      	ldr	r3, [r6, #16]
 800191a:	f04f 30ff 	mov.w	r0, #4294967295	@ 0xffffffff
 800191e:	4798      	blx	r3
 8001920:	2800      	cmp	r0, #0
 8001922:	d1f9      	bne.n	8001918 <slb_driver_read+0x30>
 8001924:	f7ff face 	bl	8000ec4 <_read_us>
 8001928:	4604      	mov	r4, r0
 800192a:	460d      	mov	r5, r1
 800192c:	6933      	ldr	r3, [r6, #16]
 800192e:	f04f 30ff 	mov.w	r0, #4294967295	@ 0xffffffff
 8001932:	4798      	blx	r3
 8001934:	2800      	cmp	r0, #0
 8001936:	d0f9      	beq.n	800192c <slb_driver_read+0x44>
 8001938:	f7ff fac4 	bl	8000ec4 <_read_us>
 800193c:	1b00      	subs	r0, r0, r4
 800193e:	eb61 0105 	sbc.w	r1, r1, r5
 8001942:	f5b0 7f16 	cmp.w	r0, #600	@ 0x258
 8001946:	f171 0100 	sbcs.w	r1, r1, #0
 800194a:	d3de      	bcc.n	800190a <slb_driver_read+0x22>
 800194c:	f7ff faba 	bl	8000ec4 <_read_us>
 8001950:	4604      	mov	r4, r0
 8001952:	460d      	mov	r5, r1
 8001954:	6933      	ldr	r3, [r6, #16]
 8001956:	f04f 30ff 	mov.w	r0, #4294967295	@ 0xffffffff
 800195a:	4798      	blx	r3
 800195c:	2800      	cmp	r0, #0
 800195e:	d1f9      	bne.n	8001954 <slb_driver_read+0x6c>
 8001960:	4607      	mov	r7, r0
 8001962:	f7ff faaf 	bl	8000ec4 <_read_us>
 8001966:	1b00      	subs	r0, r0, r4
 8001968:	eb61 0105 	sbc.w	r1, r1, r5
 800196c:	285a      	cmp	r0, #90	@ 0x5a
 800196e:	f171 0100 	sbcs.w	r1, r1, #0
 8001972:	d3ca      	bcc.n	800190a <slb_driver_read+0x22>
 8001974:	9b02      	ldr	r3, [sp, #8]
 8001976:	1c5a      	adds	r2, r3, #1
 8001978:	d071      	beq.n	8001a5e <slb_driver_read+0x176>
 800197a:	9f03      	ldr	r7, [sp, #12]
 800197c:	9604      	str	r6, [sp, #16]
 800197e:	eb09 0a03 	add.w	sl, r9, r3
 8001982:	9700      	str	r7, [sp, #0]
 8001984:	f8cd 9014 	str.w	r9, [sp, #20]
 8001988:	f04f 0908 	mov.w	r9, #8
 800198c:	2400      	movs	r4, #0
 800198e:	f8db 7004 	ldr.w	r7, [fp, #4]
 8001992:	693b      	ldr	r3, [r7, #16]
 8001994:	f04f 30ff 	mov.w	r0, #4294967295	@ 0xffffffff
 8001998:	4798      	blx	r3
 800199a:	2800      	cmp	r0, #0
 800199c:	d0f9      	beq.n	8001992 <slb_driver_read+0xaa>
 800199e:	f7ff fa91 	bl	8000ec4 <_read_us>
 80019a2:	4605      	mov	r5, r0
 80019a4:	4688      	mov	r8, r1
 80019a6:	e002      	b.n	80019ae <slb_driver_read+0xc6>
 80019a8:	693b      	ldr	r3, [r7, #16]
 80019aa:	4798      	blx	r3
 80019ac:	b150      	cbz	r0, 80019c4 <slb_driver_read+0xdc>
 80019ae:	f7ff fa89 	bl	8000ec4 <_read_us>
 80019b2:	1b46      	subs	r6, r0, r5
 80019b4:	eb61 0108 	sbc.w	r1, r1, r8
 80019b8:	2e65      	cmp	r6, #101	@ 0x65
 80019ba:	f171 0100 	sbcs.w	r1, r1, #0
 80019be:	f04f 30ff 	mov.w	r0, #4294967295	@ 0xffffffff
 80019c2:	d3f1      	bcc.n	80019a8 <slb_driver_read+0xc0>
 80019c4:	2e50      	cmp	r6, #80	@ 0x50
 80019c6:	dc38      	bgt.n	8001a3a <slb_driver_read+0x152>
 80019c8:	2e28      	cmp	r6, #40	@ 0x28
 80019ca:	bfd4      	ite	le
 80019cc:	2000      	movle	r0, #0
 80019ce:	2001      	movgt	r0, #1
 80019d0:	ea40 0044 	orr.w	r0, r0, r4, lsl #1
 80019d4:	f1b9 0901 	subs.w	r9, r9, #1
 80019d8:	b2c4      	uxtb	r4, r0
 80019da:	d1d8      	bne.n	800198e <slb_driver_read+0xa6>
 80019dc:	9b00      	ldr	r3, [sp, #0]
 80019de:	f803 4f01 	strb.w	r4, [r3, #1]!
 80019e2:	4553      	cmp	r3, sl
 80019e4:	9300      	str	r3, [sp, #0]
 80019e6:	d1cf      	bne.n	8001988 <slb_driver_read+0xa0>
 80019e8:	9b01      	ldr	r3, [sp, #4]
 80019ea:	f8dd 9014 	ldr.w	r9, [sp, #20]
 80019ee:	9e04      	ldr	r6, [sp, #16]
 80019f0:	f899 4000 	ldrb.w	r4, [r9]
 80019f4:	2b01      	cmp	r3, #1
 80019f6:	d041      	beq.n	8001a7c <slb_driver_read+0x194>
 80019f8:	7973      	ldrb	r3, [r6, #5]
 80019fa:	ebb3 0f54 	cmp.w	r3, r4, lsr #1
 80019fe:	d184      	bne.n	800190a <slb_driver_read+0x22>
 8001a00:	46c8      	mov	r8, r9
 8001a02:	9b02      	ldr	r3, [sp, #8]
 8001a04:	1e59      	subs	r1, r3, #1
 8001a06:	9b03      	ldr	r3, [sp, #12]
 8001a08:	4441      	add	r1, r8
 8001a0a:	2200      	movs	r2, #0
 8001a0c:	f813 0f01 	ldrb.w	r0, [r3, #1]!
 8001a10:	428b      	cmp	r3, r1
 8001a12:	4402      	add	r2, r0
 8001a14:	d1fa      	bne.n	8001a0c <slb_driver_read+0x124>
 8001a16:	07e3      	lsls	r3, r4, #31
 8001a18:	d526      	bpl.n	8001a68 <slb_driver_read+0x180>
 8001a1a:	9b01      	ldr	r3, [sp, #4]
 8001a1c:	f818 3003 	ldrb.w	r3, [r8, r3]
 8001a20:	b2d2      	uxtb	r2, r2
 8001a22:	4293      	cmp	r3, r2
 8001a24:	d114      	bne.n	8001a50 <slb_driver_read+0x168>
 8001a26:	4b17      	ldr	r3, [pc, #92]	@ (8001a84 <slb_driver_read+0x19c>)
 8001a28:	681b      	ldr	r3, [r3, #0]
 8001a2a:	f893 3066 	ldrb.w	r3, [r3, #102]	@ 0x66
 8001a2e:	2b79      	cmp	r3, #121	@ 0x79
 8001a30:	d021      	beq.n	8001a76 <slb_driver_read+0x18e>
 8001a32:	9801      	ldr	r0, [sp, #4]
 8001a34:	b006      	add	sp, #24
 8001a36:	e8bd 8ff0 	ldmia.w	sp!, {r4, r5, r6, r7, r8, r9, sl, fp, pc}
 8001a3a:	9b00      	ldr	r3, [sp, #0]
 8001a3c:	24ff      	movs	r4, #255	@ 0xff
 8001a3e:	f803 4f01 	strb.w	r4, [r3, #1]!
 8001a42:	4553      	cmp	r3, sl
 8001a44:	9300      	str	r3, [sp, #0]
 8001a46:	d19f      	bne.n	8001988 <slb_driver_read+0xa0>
 8001a48:	e7ce      	b.n	80019e8 <slb_driver_read+0x100>
 8001a4a:	f7ff fb6b 	bl	8001124 <_timer_disable>
 8001a4e:	e763      	b.n	8001918 <slb_driver_read+0x30>
 8001a50:	f04f 33ff 	mov.w	r3, #4294967295	@ 0xffffffff
 8001a54:	9301      	str	r3, [sp, #4]
 8001a56:	9801      	ldr	r0, [sp, #4]
 8001a58:	b006      	add	sp, #24
 8001a5a:	e8bd 8ff0 	ldmia.w	sp!, {r4, r5, r6, r7, r8, r9, sl, fp, pc}
 8001a5e:	f899 4000 	ldrb.w	r4, [r9]
 8001a62:	9701      	str	r7, [sp, #4]
 8001a64:	46c8      	mov	r8, r9
 8001a66:	e7cc      	b.n	8001a02 <slb_driver_read+0x11a>
 8001a68:	f06f 0301 	mvn.w	r3, #1
 8001a6c:	9301      	str	r3, [sp, #4]
 8001a6e:	9801      	ldr	r0, [sp, #4]
 8001a70:	b006      	add	sp, #24
 8001a72:	e8bd 8ff0 	ldmia.w	sp!, {r4, r5, r6, r7, r8, r9, sl, fp, pc}
 8001a76:	f7ff fb4f 	bl	8001118 <_timer_enable>
 8001a7a:	e7da      	b.n	8001a32 <slb_driver_read+0x14a>
 8001a7c:	46c8      	mov	r8, r9
 8001a7e:	2200      	movs	r2, #0
 8001a80:	e7c9      	b.n	8001a16 <slb_driver_read+0x12e>
 8001a82:	bf00      	nop
 8001a84:	20000048 	.word	0x20000048

08001a88 <slb_master_transfer.isra.0>:
 8001a88:	b570      	push	{r4, r5, r6, lr}
 8001a8a:	4605      	mov	r5, r0
 8001a8c:	460c      	mov	r4, r1
 8001a8e:	2608      	movs	r6, #8
 8001a90:	692b      	ldr	r3, [r5, #16]
 8001a92:	2000      	movs	r0, #0
 8001a94:	4798      	blx	r3
 8001a96:	6828      	ldr	r0, [r5, #0]
 8001a98:	f7ff f9b8 	bl	8000e0c <_delay_us>
 8001a9c:	692b      	ldr	r3, [r5, #16]
 8001a9e:	2001      	movs	r0, #1
 8001aa0:	4798      	blx	r3
 8001aa2:	6828      	ldr	r0, [r5, #0]
 8001aa4:	0623      	lsls	r3, r4, #24
 8001aa6:	bf48      	it	mi
 8001aa8:	0040      	lslmi	r0, r0, #1
 8001aaa:	f7ff f9af 	bl	8000e0c <_delay_us>
 8001aae:	0064      	lsls	r4, r4, #1
 8001ab0:	3e01      	subs	r6, #1
 8001ab2:	b2e4      	uxtb	r4, r4
 8001ab4:	d1ec      	bne.n	8001a90 <slb_master_transfer.isra.0+0x8>
 8001ab6:	bd70      	pop	{r4, r5, r6, pc}

08001ab8 <slb_driver_write>:
 8001ab8:	e92d 4ff0 	stmdb	sp!, {r4, r5, r6, r7, r8, r9, sl, fp, lr}
 8001abc:	6883      	ldr	r3, [r0, #8]
 8001abe:	781b      	ldrb	r3, [r3, #0]
 8001ac0:	4605      	mov	r5, r0
 8001ac2:	468a      	mov	sl, r1
 8001ac4:	4616      	mov	r6, r2
 8001ac6:	2b00      	cmp	r3, #0
 8001ac8:	d04c      	beq.n	8001b64 <slb_driver_write+0xac>
 8001aca:	f8df 8110 	ldr.w	r8, [pc, #272]	@ 8001bdc <slb_driver_write+0x124>
 8001ace:	6847      	ldr	r7, [r0, #4]
 8001ad0:	f8d8 3000 	ldr.w	r3, [r8]
 8001ad4:	f893 0066 	ldrb.w	r0, [r3, #102]	@ 0x66
 8001ad8:	2a00      	cmp	r2, #0
 8001ada:	d068      	beq.n	8001bae <slb_driver_write+0xf6>
 8001adc:	1e4c      	subs	r4, r1, #1
 8001ade:	f102 3bff 	add.w	fp, r2, #4294967295	@ 0xffffffff
 8001ae2:	4623      	mov	r3, r4
 8001ae4:	4459      	add	r1, fp
 8001ae6:	f04f 0c00 	mov.w	ip, #0
 8001aea:	f813 2f01 	ldrb.w	r2, [r3, #1]!
 8001aee:	4299      	cmp	r1, r3
 8001af0:	4494      	add	ip, r2
 8001af2:	d1fa      	bne.n	8001aea <slb_driver_write+0x32>
 8001af4:	2879      	cmp	r0, #121	@ 0x79
 8001af6:	fa5f f98c 	uxtb.w	r9, ip
 8001afa:	d03c      	beq.n	8001b76 <slb_driver_write+0xbe>
 8001afc:	4838      	ldr	r0, [pc, #224]	@ (8001be0 <slb_driver_write+0x128>)
 8001afe:	f7ff fcef 	bl	80014e0 <ucx_printf>
 8001b02:	693b      	ldr	r3, [r7, #16]
 8001b04:	2000      	movs	r0, #0
 8001b06:	4798      	blx	r3
 8001b08:	f44f 7061 	mov.w	r0, #900	@ 0x384
 8001b0c:	f7ff f97e 	bl	8000e0c <_delay_us>
 8001b10:	4834      	ldr	r0, [pc, #208]	@ (8001be4 <slb_driver_write+0x12c>)
 8001b12:	f7ff fce5 	bl	80014e0 <ucx_printf>
 8001b16:	693b      	ldr	r3, [r7, #16]
 8001b18:	2001      	movs	r0, #1
 8001b1a:	4798      	blx	r3
 8001b1c:	2064      	movs	r0, #100	@ 0x64
 8001b1e:	f7ff f975 	bl	8000e0c <_delay_us>
 8001b22:	44da      	add	sl, fp
 8001b24:	f814 1f01 	ldrb.w	r1, [r4, #1]!
 8001b28:	6868      	ldr	r0, [r5, #4]
 8001b2a:	f7ff ffad 	bl	8001a88 <slb_master_transfer.isra.0>
 8001b2e:	45a2      	cmp	sl, r4
 8001b30:	d1f8      	bne.n	8001b24 <slb_driver_write+0x6c>
 8001b32:	4649      	mov	r1, r9
 8001b34:	6868      	ldr	r0, [r5, #4]
 8001b36:	f7ff ffa7 	bl	8001a88 <slb_master_transfer.isra.0>
 8001b3a:	693b      	ldr	r3, [r7, #16]
 8001b3c:	2000      	movs	r0, #0
 8001b3e:	4798      	blx	r3
 8001b40:	6838      	ldr	r0, [r7, #0]
 8001b42:	f7ff f963 	bl	8000e0c <_delay_us>
 8001b46:	693b      	ldr	r3, [r7, #16]
 8001b48:	2001      	movs	r0, #1
 8001b4a:	4798      	blx	r3
 8001b4c:	2064      	movs	r0, #100	@ 0x64
 8001b4e:	f7ff f95d 	bl	8000e0c <_delay_us>
 8001b52:	f8d8 3000 	ldr.w	r3, [r8]
 8001b56:	f893 3066 	ldrb.w	r3, [r3, #102]	@ 0x66
 8001b5a:	2b79      	cmp	r3, #121	@ 0x79
 8001b5c:	d006      	beq.n	8001b6c <slb_driver_write+0xb4>
 8001b5e:	4630      	mov	r0, r6
 8001b60:	e8bd 8ff0 	ldmia.w	sp!, {r4, r5, r6, r7, r8, r9, sl, fp, pc}
 8001b64:	f04f 30ff 	mov.w	r0, #4294967295	@ 0xffffffff
 8001b68:	e8bd 8ff0 	ldmia.w	sp!, {r4, r5, r6, r7, r8, r9, sl, fp, pc}
 8001b6c:	f7ff fad4 	bl	8001118 <_timer_enable>
 8001b70:	4630      	mov	r0, r6
 8001b72:	e7f5      	b.n	8001b60 <slb_driver_write+0xa8>
 8001b74:	46b1      	mov	r9, r6
 8001b76:	f7ff fad5 	bl	8001124 <_timer_disable>
 8001b7a:	4819      	ldr	r0, [pc, #100]	@ (8001be0 <slb_driver_write+0x128>)
 8001b7c:	f7ff fcb0 	bl	80014e0 <ucx_printf>
 8001b80:	693b      	ldr	r3, [r7, #16]
 8001b82:	2000      	movs	r0, #0
 8001b84:	4798      	blx	r3
 8001b86:	f44f 7061 	mov.w	r0, #900	@ 0x384
 8001b8a:	f7ff f93f 	bl	8000e0c <_delay_us>
 8001b8e:	4815      	ldr	r0, [pc, #84]	@ (8001be4 <slb_driver_write+0x12c>)
 8001b90:	f7ff fca6 	bl	80014e0 <ucx_printf>
 8001b94:	693b      	ldr	r3, [r7, #16]
 8001b96:	2001      	movs	r0, #1
 8001b98:	4798      	blx	r3
 8001b9a:	2064      	movs	r0, #100	@ 0x64
 8001b9c:	f7ff f936 	bl	8000e0c <_delay_us>
 8001ba0:	2e00      	cmp	r6, #0
 8001ba2:	d0c6      	beq.n	8001b32 <slb_driver_write+0x7a>
 8001ba4:	f10a 34ff 	add.w	r4, sl, #4294967295	@ 0xffffffff
 8001ba8:	f106 3bff 	add.w	fp, r6, #4294967295	@ 0xffffffff
 8001bac:	e7b9      	b.n	8001b22 <slb_driver_write+0x6a>
 8001bae:	2879      	cmp	r0, #121	@ 0x79
 8001bb0:	d0e0      	beq.n	8001b74 <slb_driver_write+0xbc>
 8001bb2:	480b      	ldr	r0, [pc, #44]	@ (8001be0 <slb_driver_write+0x128>)
 8001bb4:	f7ff fc94 	bl	80014e0 <ucx_printf>
 8001bb8:	693b      	ldr	r3, [r7, #16]
 8001bba:	4630      	mov	r0, r6
 8001bbc:	4798      	blx	r3
 8001bbe:	f44f 7061 	mov.w	r0, #900	@ 0x384
 8001bc2:	f7ff f923 	bl	8000e0c <_delay_us>
 8001bc6:	4807      	ldr	r0, [pc, #28]	@ (8001be4 <slb_driver_write+0x12c>)
 8001bc8:	f7ff fc8a 	bl	80014e0 <ucx_printf>
 8001bcc:	693b      	ldr	r3, [r7, #16]
 8001bce:	2001      	movs	r0, #1
 8001bd0:	4798      	blx	r3
 8001bd2:	2064      	movs	r0, #100	@ 0x64
 8001bd4:	f7ff f91a 	bl	8000e0c <_delay_us>
 8001bd8:	46b1      	mov	r9, r6
 8001bda:	e7aa      	b.n	8001b32 <slb_driver_write+0x7a>
 8001bdc:	20000048 	.word	0x20000048
 8001be0:	08004a54 	.word	0x08004a54
 8001be4:	08004a58 	.word	0x08004a58

08001be8 <EXTI_Init>:
 8001be8:	6843      	ldr	r3, [r0, #4]
 8001bea:	68c2      	ldr	r2, [r0, #12]
 8001bec:	b430      	push	{r4, r5}
 8001bee:	6804      	ldr	r4, [r0, #0]
 8001bf0:	f103 4380 	add.w	r3, r3, #1073741824	@ 0x40000000
 8001bf4:	f503 339e 	add.w	r3, r3, #80896	@ 0x13c00
 8001bf8:	ea6f 0c04 	mvn.w	ip, r4
 8001bfc:	b302      	cbz	r2, 8001c40 <EXTI_Init+0x58>
 8001bfe:	4a17      	ldr	r2, [pc, #92]	@ (8001c5c <EXTI_Init+0x74>)
 8001c00:	6881      	ldr	r1, [r0, #8]
 8001c02:	6815      	ldr	r5, [r2, #0]
 8001c04:	ea05 050c 	and.w	r5, r5, ip
 8001c08:	6015      	str	r5, [r2, #0]
 8001c0a:	6855      	ldr	r5, [r2, #4]
 8001c0c:	ea05 050c 	and.w	r5, r5, ip
 8001c10:	6055      	str	r5, [r2, #4]
 8001c12:	681d      	ldr	r5, [r3, #0]
 8001c14:	432c      	orrs	r4, r5
 8001c16:	601c      	str	r4, [r3, #0]
 8001c18:	6803      	ldr	r3, [r0, #0]
 8001c1a:	6894      	ldr	r4, [r2, #8]
 8001c1c:	ea24 0403 	bic.w	r4, r4, r3
 8001c20:	6094      	str	r4, [r2, #8]
 8001c22:	68d0      	ldr	r0, [r2, #12]
 8001c24:	2910      	cmp	r1, #16
 8001c26:	ea20 0003 	bic.w	r0, r0, r3
 8001c2a:	60d0      	str	r0, [r2, #12]
 8001c2c:	d00e      	beq.n	8001c4c <EXTI_Init+0x64>
 8001c2e:	f101 4280 	add.w	r2, r1, #1073741824	@ 0x40000000
 8001c32:	f502 329e 	add.w	r2, r2, #80896	@ 0x13c00
 8001c36:	bc30      	pop	{r4, r5}
 8001c38:	6811      	ldr	r1, [r2, #0]
 8001c3a:	430b      	orrs	r3, r1
 8001c3c:	6013      	str	r3, [r2, #0]
 8001c3e:	4770      	bx	lr
 8001c40:	681a      	ldr	r2, [r3, #0]
 8001c42:	ea02 020c 	and.w	r2, r2, ip
 8001c46:	bc30      	pop	{r4, r5}
 8001c48:	601a      	str	r2, [r3, #0]
 8001c4a:	4770      	bx	lr
 8001c4c:	6891      	ldr	r1, [r2, #8]
 8001c4e:	4319      	orrs	r1, r3
 8001c50:	6091      	str	r1, [r2, #8]
 8001c52:	68d1      	ldr	r1, [r2, #12]
 8001c54:	430b      	orrs	r3, r1
 8001c56:	bc30      	pop	{r4, r5}
 8001c58:	60d3      	str	r3, [r2, #12]
 8001c5a:	4770      	bx	lr
 8001c5c:	40013c00 	.word	0x40013c00

08001c60 <EXTI_GetITStatus>:
 8001c60:	4b03      	ldr	r3, [pc, #12]	@ (8001c70 <EXTI_GetITStatus+0x10>)
 8001c62:	695b      	ldr	r3, [r3, #20]
 8001c64:	4018      	ands	r0, r3
 8001c66:	3800      	subs	r0, #0
 8001c68:	bf18      	it	ne
 8001c6a:	2001      	movne	r0, #1
 8001c6c:	4770      	bx	lr
 8001c6e:	bf00      	nop
 8001c70:	40013c00 	.word	0x40013c00

08001c74 <EXTI_ClearITPendingBit>:
 8001c74:	4b01      	ldr	r3, [pc, #4]	@ (8001c7c <EXTI_ClearITPendingBit+0x8>)
 8001c76:	6158      	str	r0, [r3, #20]
 8001c78:	4770      	bx	lr
 8001c7a:	bf00      	nop
 8001c7c:	40013c00 	.word	0x40013c00

08001c80 <GPIO_Init>:
 8001c80:	2200      	movs	r2, #0
 8001c82:	e92d 47f0 	stmdb	sp!, {r4, r5, r6, r7, r8, r9, sl, lr}
 8001c86:	4613      	mov	r3, r2
 8001c88:	680d      	ldr	r5, [r1, #0]
 8001c8a:	f04f 0e01 	mov.w	lr, #1
 8001c8e:	2603      	movs	r6, #3
 8001c90:	e004      	b.n	8001c9c <GPIO_Init+0x1c>
 8001c92:	3301      	adds	r3, #1
 8001c94:	2b10      	cmp	r3, #16
 8001c96:	f102 0202 	add.w	r2, r2, #2
 8001c9a:	d045      	beq.n	8001d28 <GPIO_Init+0xa8>
 8001c9c:	fa0e fc03 	lsl.w	ip, lr, r3
 8001ca0:	ea3c 0405 	bics.w	r4, ip, r5
 8001ca4:	d1f5      	bne.n	8001c92 <GPIO_Init+0x12>
 8001ca6:	6807      	ldr	r7, [r0, #0]
 8001ca8:	f8d1 8004 	ldr.w	r8, [r1, #4]
 8001cac:	fa06 f402 	lsl.w	r4, r6, r2
 8001cb0:	ea27 0704 	bic.w	r7, r7, r4
 8001cb4:	6007      	str	r7, [r0, #0]
 8001cb6:	f8d0 a000 	ldr.w	sl, [r0]
 8001cba:	fa08 f902 	lsl.w	r9, r8, r2
 8001cbe:	f108 38ff 	add.w	r8, r8, #4294967295	@ 0xffffffff
 8001cc2:	ea49 090a 	orr.w	r9, r9, sl
 8001cc6:	f1b8 0f01 	cmp.w	r8, #1
 8001cca:	4627      	mov	r7, r4
 8001ccc:	f8c0 9000 	str.w	r9, [r0]
 8001cd0:	ea6f 0404 	mvn.w	r4, r4
 8001cd4:	d819      	bhi.n	8001d0a <GPIO_Init+0x8a>
 8001cd6:	f8d0 8008 	ldr.w	r8, [r0, #8]
 8001cda:	ea04 0408 	and.w	r4, r4, r8
 8001cde:	6084      	str	r4, [r0, #8]
 8001ce0:	688c      	ldr	r4, [r1, #8]
 8001ce2:	f8d0 8008 	ldr.w	r8, [r0, #8]
 8001ce6:	4094      	lsls	r4, r2
 8001ce8:	ea44 0408 	orr.w	r4, r4, r8
 8001cec:	6084      	str	r4, [r0, #8]
 8001cee:	f8d0 8004 	ldr.w	r8, [r0, #4]
 8001cf2:	898c      	ldrh	r4, [r1, #12]
 8001cf4:	ea28 0c0c 	bic.w	ip, r8, ip
 8001cf8:	f8c0 c004 	str.w	ip, [r0, #4]
 8001cfc:	f8d0 c004 	ldr.w	ip, [r0, #4]
 8001d00:	409c      	lsls	r4, r3
 8001d02:	b2a4      	uxth	r4, r4
 8001d04:	ea44 040c 	orr.w	r4, r4, ip
 8001d08:	6044      	str	r4, [r0, #4]
 8001d0a:	f8d0 c00c 	ldr.w	ip, [r0, #12]
 8001d0e:	690c      	ldr	r4, [r1, #16]
 8001d10:	ea2c 0707 	bic.w	r7, ip, r7
 8001d14:	60c7      	str	r7, [r0, #12]
 8001d16:	68c7      	ldr	r7, [r0, #12]
 8001d18:	4094      	lsls	r4, r2
 8001d1a:	3301      	adds	r3, #1
 8001d1c:	433c      	orrs	r4, r7
 8001d1e:	2b10      	cmp	r3, #16
 8001d20:	60c4      	str	r4, [r0, #12]
 8001d22:	f102 0202 	add.w	r2, r2, #2
 8001d26:	d1b9      	bne.n	8001c9c <GPIO_Init+0x1c>
 8001d28:	e8bd 87f0 	ldmia.w	sp!, {r4, r5, r6, r7, r8, r9, sl, pc}

08001d2c <GPIO_ReadInputData>:
 8001d2c:	6900      	ldr	r0, [r0, #16]
 8001d2e:	b280      	uxth	r0, r0
 8001d30:	4770      	bx	lr
 8001d32:	bf00      	nop

08001d34 <GPIO_SetBits>:
 8001d34:	b289      	uxth	r1, r1
 8001d36:	6181      	str	r1, [r0, #24]
 8001d38:	4770      	bx	lr
 8001d3a:	bf00      	nop

08001d3c <GPIO_ResetBits>:
 8001d3c:	0409      	lsls	r1, r1, #16
 8001d3e:	6181      	str	r1, [r0, #24]
 8001d40:	4770      	bx	lr
 8001d42:	bf00      	nop

08001d44 <GPIO_ToggleBits>:
 8001d44:	6943      	ldr	r3, [r0, #20]
 8001d46:	b289      	uxth	r1, r1
 8001d48:	4059      	eors	r1, r3
 8001d4a:	6141      	str	r1, [r0, #20]
 8001d4c:	4770      	bx	lr
 8001d4e:	bf00      	nop

08001d50 <GPIO_PinAFConfig>:
 8001d50:	f3c1 03cc 	ubfx	r3, r1, #3, #13
 8001d54:	eb00 0083 	add.w	r0, r0, r3, lsl #2
 8001d58:	f001 0107 	and.w	r1, r1, #7
 8001d5c:	6a03      	ldr	r3, [r0, #32]
 8001d5e:	0089      	lsls	r1, r1, #2
 8001d60:	f04f 0c0f 	mov.w	ip, #15
 8001d64:	fa0c fc01 	lsl.w	ip, ip, r1
 8001d68:	ea23 030c 	bic.w	r3, r3, ip
 8001d6c:	6203      	str	r3, [r0, #32]
 8001d6e:	6a03      	ldr	r3, [r0, #32]
 8001d70:	b2d2      	uxtb	r2, r2
 8001d72:	408a      	lsls	r2, r1
 8001d74:	431a      	orrs	r2, r3
 8001d76:	6202      	str	r2, [r0, #32]
 8001d78:	4770      	bx	lr
 8001d7a:	bf00      	nop

08001d7c <RCC_GetClocksFreq>:
 8001d7c:	4a1e      	ldr	r2, [pc, #120]	@ (8001df8 <RCC_GetClocksFreq+0x7c>)
 8001d7e:	6893      	ldr	r3, [r2, #8]
 8001d80:	f003 030c 	and.w	r3, r3, #12
 8001d84:	2b04      	cmp	r3, #4
 8001d86:	b410      	push	{r4}
 8001d88:	d033      	beq.n	8001df2 <RCC_GetClocksFreq+0x76>
 8001d8a:	2b08      	cmp	r3, #8
 8001d8c:	d018      	beq.n	8001dc0 <RCC_GetClocksFreq+0x44>
 8001d8e:	4b1b      	ldr	r3, [pc, #108]	@ (8001dfc <RCC_GetClocksFreq+0x80>)
 8001d90:	4a19      	ldr	r2, [pc, #100]	@ (8001df8 <RCC_GetClocksFreq+0x7c>)
 8001d92:	6003      	str	r3, [r0, #0]
 8001d94:	6894      	ldr	r4, [r2, #8]
 8001d96:	491a      	ldr	r1, [pc, #104]	@ (8001e00 <RCC_GetClocksFreq+0x84>)
 8001d98:	f3c4 1403 	ubfx	r4, r4, #4, #4
 8001d9c:	5d0c      	ldrb	r4, [r1, r4]
 8001d9e:	40e3      	lsrs	r3, r4
 8001da0:	6043      	str	r3, [r0, #4]
 8001da2:	6894      	ldr	r4, [r2, #8]
 8001da4:	f3c4 2482 	ubfx	r4, r4, #10, #3
 8001da8:	5d0c      	ldrb	r4, [r1, r4]
 8001daa:	fa23 f404 	lsr.w	r4, r3, r4
 8001dae:	6084      	str	r4, [r0, #8]
 8001db0:	6892      	ldr	r2, [r2, #8]
 8001db2:	bc10      	pop	{r4}
 8001db4:	f3c2 3242 	ubfx	r2, r2, #13, #3
 8001db8:	5c8a      	ldrb	r2, [r1, r2]
 8001dba:	40d3      	lsrs	r3, r2
 8001dbc:	60c3      	str	r3, [r0, #12]
 8001dbe:	4770      	bx	lr
 8001dc0:	6853      	ldr	r3, [r2, #4]
 8001dc2:	6851      	ldr	r1, [r2, #4]
 8001dc4:	f413 0f80 	tst.w	r3, #4194304	@ 0x400000
 8001dc8:	6853      	ldr	r3, [r2, #4]
 8001dca:	bf14      	ite	ne
 8001dcc:	4a0d      	ldrne	r2, [pc, #52]	@ (8001e04 <RCC_GetClocksFreq+0x88>)
 8001dce:	4a0b      	ldreq	r2, [pc, #44]	@ (8001dfc <RCC_GetClocksFreq+0x80>)
 8001dd0:	f3c3 1388 	ubfx	r3, r3, #6, #9
 8001dd4:	f001 013f 	and.w	r1, r1, #63	@ 0x3f
 8001dd8:	fbb2 f2f1 	udiv	r2, r2, r1
 8001ddc:	fb02 f303 	mul.w	r3, r2, r3
 8001de0:	4a05      	ldr	r2, [pc, #20]	@ (8001df8 <RCC_GetClocksFreq+0x7c>)
 8001de2:	6852      	ldr	r2, [r2, #4]
 8001de4:	f3c2 4201 	ubfx	r2, r2, #16, #2
 8001de8:	3201      	adds	r2, #1
 8001dea:	0052      	lsls	r2, r2, #1
 8001dec:	fbb3 f3f2 	udiv	r3, r3, r2
 8001df0:	e7ce      	b.n	8001d90 <RCC_GetClocksFreq+0x14>
 8001df2:	4b04      	ldr	r3, [pc, #16]	@ (8001e04 <RCC_GetClocksFreq+0x88>)
 8001df4:	e7cc      	b.n	8001d90 <RCC_GetClocksFreq+0x14>
 8001df6:	bf00      	nop
 8001df8:	40023800 	.word	0x40023800
 8001dfc:	00f42400 	.word	0x00f42400
 8001e00:	08004c90 	.word	0x08004c90
 8001e04:	017d7840 	.word	0x017d7840

08001e08 <RCC_AHB1PeriphClockCmd>:
 8001e08:	4a04      	ldr	r2, [pc, #16]	@ (8001e1c <RCC_AHB1PeriphClockCmd+0x14>)
 8001e0a:	6b13      	ldr	r3, [r2, #48]	@ 0x30
 8001e0c:	b111      	cbz	r1, 8001e14 <RCC_AHB1PeriphClockCmd+0xc>
 8001e0e:	4303      	orrs	r3, r0
 8001e10:	6313      	str	r3, [r2, #48]	@ 0x30
 8001e12:	4770      	bx	lr
 8001e14:	ea23 0300 	bic.w	r3, r3, r0
 8001e18:	6313      	str	r3, [r2, #48]	@ 0x30
 8001e1a:	4770      	bx	lr
 8001e1c:	40023800 	.word	0x40023800

08001e20 <RCC_AHB2PeriphClockCmd>:
 8001e20:	4a04      	ldr	r2, [pc, #16]	@ (8001e34 <RCC_AHB2PeriphClockCmd+0x14>)
 8001e22:	6b53      	ldr	r3, [r2, #52]	@ 0x34
 8001e24:	b111      	cbz	r1, 8001e2c <RCC_AHB2PeriphClockCmd+0xc>
 8001e26:	4303      	orrs	r3, r0
 8001e28:	6353      	str	r3, [r2, #52]	@ 0x34
 8001e2a:	4770      	bx	lr
 8001e2c:	ea23 0300 	bic.w	r3, r3, r0
 8001e30:	6353      	str	r3, [r2, #52]	@ 0x34
 8001e32:	4770      	bx	lr
 8001e34:	40023800 	.word	0x40023800

08001e38 <RCC_APB1PeriphClockCmd>:
 8001e38:	4a04      	ldr	r2, [pc, #16]	@ (8001e4c <RCC_APB1PeriphClockCmd+0x14>)
 8001e3a:	6c13      	ldr	r3, [r2, #64]	@ 0x40
 8001e3c:	b111      	cbz	r1, 8001e44 <RCC_APB1PeriphClockCmd+0xc>
 8001e3e:	4303      	orrs	r3, r0
 8001e40:	6413      	str	r3, [r2, #64]	@ 0x40
 8001e42:	4770      	bx	lr
 8001e44:	ea23 0300 	bic.w	r3, r3, r0
 8001e48:	6413      	str	r3, [r2, #64]	@ 0x40
 8001e4a:	4770      	bx	lr
 8001e4c:	40023800 	.word	0x40023800

08001e50 <RCC_APB2PeriphClockCmd>:
 8001e50:	4a04      	ldr	r2, [pc, #16]	@ (8001e64 <RCC_APB2PeriphClockCmd+0x14>)
 8001e52:	6c53      	ldr	r3, [r2, #68]	@ 0x44
 8001e54:	b111      	cbz	r1, 8001e5c <RCC_APB2PeriphClockCmd+0xc>
 8001e56:	4303      	orrs	r3, r0
 8001e58:	6453      	str	r3, [r2, #68]	@ 0x44
 8001e5a:	4770      	bx	lr
 8001e5c:	ea23 0300 	bic.w	r3, r3, r0
 8001e60:	6453      	str	r3, [r2, #68]	@ 0x44
 8001e62:	4770      	bx	lr
 8001e64:	40023800 	.word	0x40023800

08001e68 <RCC_APB1PeriphResetCmd>:
 8001e68:	4a04      	ldr	r2, [pc, #16]	@ (8001e7c <RCC_APB1PeriphResetCmd+0x14>)
 8001e6a:	6a13      	ldr	r3, [r2, #32]
 8001e6c:	b111      	cbz	r1, 8001e74 <RCC_APB1PeriphResetCmd+0xc>
 8001e6e:	4303      	orrs	r3, r0
 8001e70:	6213      	str	r3, [r2, #32]
 8001e72:	4770      	bx	lr
 8001e74:	ea23 0300 	bic.w	r3, r3, r0
 8001e78:	6213      	str	r3, [r2, #32]
 8001e7a:	4770      	bx	lr
 8001e7c:	40023800 	.word	0x40023800

08001e80 <SYSCFG_EXTILineConfig>:
 8001e80:	f001 03fc 	and.w	r3, r1, #252	@ 0xfc
 8001e84:	f103 4380 	add.w	r3, r3, #1073741824	@ 0x40000000
 8001e88:	f503 339c 	add.w	r3, r3, #79872	@ 0x13800
 8001e8c:	f001 0103 	and.w	r1, r1, #3
 8001e90:	689a      	ldr	r2, [r3, #8]
 8001e92:	0089      	lsls	r1, r1, #2
 8001e94:	f04f 0c0f 	mov.w	ip, #15
 8001e98:	fa0c fc01 	lsl.w	ip, ip, r1
 8001e9c:	ea22 020c 	bic.w	r2, r2, ip
 8001ea0:	609a      	str	r2, [r3, #8]
 8001ea2:	689a      	ldr	r2, [r3, #8]
 8001ea4:	b2c0      	uxtb	r0, r0
 8001ea6:	4088      	lsls	r0, r1
 8001ea8:	4310      	orrs	r0, r2
 8001eaa:	6098      	str	r0, [r3, #8]
 8001eac:	4770      	bx	lr
 8001eae:	bf00      	nop

08001eb0 <TIM_TimeBaseInit>:
 8001eb0:	b470      	push	{r4, r5, r6}
 8001eb2:	4c1a      	ldr	r4, [pc, #104]	@ (8001f1c <TIM_TimeBaseInit+0x6c>)
 8001eb4:	6802      	ldr	r2, [r0, #0]
 8001eb6:	684e      	ldr	r6, [r1, #4]
 8001eb8:	880d      	ldrh	r5, [r1, #0]
 8001eba:	42a0      	cmp	r0, r4
 8001ebc:	b293      	uxth	r3, r2
 8001ebe:	d020      	beq.n	8001f02 <TIM_TimeBaseInit+0x52>
 8001ec0:	f1b0 4f80 	cmp.w	r0, #1073741824	@ 0x40000000
 8001ec4:	d012      	beq.n	8001eec <TIM_TimeBaseInit+0x3c>
 8001ec6:	f5a4 447c 	sub.w	r4, r4, #64512	@ 0xfc00
 8001eca:	42a0      	cmp	r0, r4
 8001ecc:	d00e      	beq.n	8001eec <TIM_TimeBaseInit+0x3c>
 8001ece:	f504 6480 	add.w	r4, r4, #1024	@ 0x400
 8001ed2:	42a0      	cmp	r0, r4
 8001ed4:	d00a      	beq.n	8001eec <TIM_TimeBaseInit+0x3c>
 8001ed6:	f504 6480 	add.w	r4, r4, #1024	@ 0x400
 8001eda:	42a0      	cmp	r0, r4
 8001edc:	d006      	beq.n	8001eec <TIM_TimeBaseInit+0x3c>
 8001ede:	6003      	str	r3, [r0, #0]
 8001ee0:	2301      	movs	r3, #1
 8001ee2:	62c6      	str	r6, [r0, #44]	@ 0x2c
 8001ee4:	6285      	str	r5, [r0, #40]	@ 0x28
 8001ee6:	bc70      	pop	{r4, r5, r6}
 8001ee8:	6143      	str	r3, [r0, #20]
 8001eea:	4770      	bx	lr
 8001eec:	884a      	ldrh	r2, [r1, #2]
 8001eee:	f023 0370 	bic.w	r3, r3, #112	@ 0x70
 8001ef2:	4313      	orrs	r3, r2
 8001ef4:	6003      	str	r3, [r0, #0]
 8001ef6:	2301      	movs	r3, #1
 8001ef8:	62c6      	str	r6, [r0, #44]	@ 0x2c
 8001efa:	6285      	str	r5, [r0, #40]	@ 0x28
 8001efc:	bc70      	pop	{r4, r5, r6}
 8001efe:	6143      	str	r3, [r0, #20]
 8001f00:	4770      	bx	lr
 8001f02:	884a      	ldrh	r2, [r1, #2]
 8001f04:	f023 0370 	bic.w	r3, r3, #112	@ 0x70
 8001f08:	4313      	orrs	r3, r2
 8001f0a:	6003      	str	r3, [r0, #0]
 8001f0c:	62c6      	str	r6, [r0, #44]	@ 0x2c
 8001f0e:	6285      	str	r5, [r0, #40]	@ 0x28
 8001f10:	7a8b      	ldrb	r3, [r1, #10]
 8001f12:	6303      	str	r3, [r0, #48]	@ 0x30
 8001f14:	2301      	movs	r3, #1
 8001f16:	bc70      	pop	{r4, r5, r6}
 8001f18:	6143      	str	r3, [r0, #20]
 8001f1a:	4770      	bx	lr
 8001f1c:	40010000 	.word	0x40010000

08001f20 <TIM_TimeBaseStructInit>:
 8001f20:	2300      	movs	r3, #0
 8001f22:	f04f 32ff 	mov.w	r2, #4294967295	@ 0xffffffff
 8001f26:	6042      	str	r2, [r0, #4]
 8001f28:	8103      	strh	r3, [r0, #8]
 8001f2a:	6003      	str	r3, [r0, #0]
 8001f2c:	7283      	strb	r3, [r0, #10]
 8001f2e:	4770      	bx	lr

08001f30 <TIM_Cmd>:
 8001f30:	6803      	ldr	r3, [r0, #0]
 8001f32:	b119      	cbz	r1, 8001f3c <TIM_Cmd+0xc>
 8001f34:	f043 0301 	orr.w	r3, r3, #1
 8001f38:	6003      	str	r3, [r0, #0]
 8001f3a:	4770      	bx	lr
 8001f3c:	f64f 72fe 	movw	r2, #65534	@ 0xfffe
 8001f40:	4013      	ands	r3, r2
 8001f42:	6003      	str	r3, [r0, #0]
 8001f44:	4770      	bx	lr
 8001f46:	bf00      	nop

08001f48 <SystemInit>:
 8001f48:	4a34      	ldr	r2, [pc, #208]	@ (800201c <SystemInit+0xd4>)
 8001f4a:	4835      	ldr	r0, [pc, #212]	@ (8002020 <SystemInit+0xd8>)
 8001f4c:	6813      	ldr	r3, [r2, #0]
 8001f4e:	2100      	movs	r1, #0
 8001f50:	f043 0301 	orr.w	r3, r3, #1
 8001f54:	b082      	sub	sp, #8
 8001f56:	6013      	str	r3, [r2, #0]
 8001f58:	6091      	str	r1, [r2, #8]
 8001f5a:	6813      	ldr	r3, [r2, #0]
 8001f5c:	f023 7384 	bic.w	r3, r3, #17301504	@ 0x1080000
 8001f60:	f423 3380 	bic.w	r3, r3, #65536	@ 0x10000
 8001f64:	6013      	str	r3, [r2, #0]
 8001f66:	6050      	str	r0, [r2, #4]
 8001f68:	6813      	ldr	r3, [r2, #0]
 8001f6a:	f423 2380 	bic.w	r3, r3, #262144	@ 0x40000
 8001f6e:	6013      	str	r3, [r2, #0]
 8001f70:	60d1      	str	r1, [r2, #12]
 8001f72:	9100      	str	r1, [sp, #0]
 8001f74:	9101      	str	r1, [sp, #4]
 8001f76:	6813      	ldr	r3, [r2, #0]
 8001f78:	f443 3380 	orr.w	r3, r3, #65536	@ 0x10000
 8001f7c:	6013      	str	r3, [r2, #0]
 8001f7e:	e003      	b.n	8001f88 <SystemInit+0x40>
 8001f80:	9b00      	ldr	r3, [sp, #0]
 8001f82:	f5b3 4fa0 	cmp.w	r3, #20480	@ 0x5000
 8001f86:	d009      	beq.n	8001f9c <SystemInit+0x54>
 8001f88:	6813      	ldr	r3, [r2, #0]
 8001f8a:	f403 3300 	and.w	r3, r3, #131072	@ 0x20000
 8001f8e:	9301      	str	r3, [sp, #4]
 8001f90:	9b00      	ldr	r3, [sp, #0]
 8001f92:	3301      	adds	r3, #1
 8001f94:	9300      	str	r3, [sp, #0]
 8001f96:	9b01      	ldr	r3, [sp, #4]
 8001f98:	2b00      	cmp	r3, #0
 8001f9a:	d0f1      	beq.n	8001f80 <SystemInit+0x38>
 8001f9c:	4b1f      	ldr	r3, [pc, #124]	@ (800201c <SystemInit+0xd4>)
 8001f9e:	681b      	ldr	r3, [r3, #0]
 8001fa0:	f413 3300 	ands.w	r3, r3, #131072	@ 0x20000
 8001fa4:	bf18      	it	ne
 8001fa6:	2301      	movne	r3, #1
 8001fa8:	9301      	str	r3, [sp, #4]
 8001faa:	9b01      	ldr	r3, [sp, #4]
 8001fac:	2b01      	cmp	r3, #1
 8001fae:	d005      	beq.n	8001fbc <SystemInit+0x74>
 8001fb0:	4b1c      	ldr	r3, [pc, #112]	@ (8002024 <SystemInit+0xdc>)
 8001fb2:	f04f 6200 	mov.w	r2, #134217728	@ 0x8000000
 8001fb6:	609a      	str	r2, [r3, #8]
 8001fb8:	b002      	add	sp, #8
 8001fba:	4770      	bx	lr
 8001fbc:	4b17      	ldr	r3, [pc, #92]	@ (800201c <SystemInit+0xd4>)
 8001fbe:	491a      	ldr	r1, [pc, #104]	@ (8002028 <SystemInit+0xe0>)
 8001fc0:	6c1a      	ldr	r2, [r3, #64]	@ 0x40
 8001fc2:	481a      	ldr	r0, [pc, #104]	@ (800202c <SystemInit+0xe4>)
 8001fc4:	f042 5280 	orr.w	r2, r2, #268435456	@ 0x10000000
 8001fc8:	641a      	str	r2, [r3, #64]	@ 0x40
 8001fca:	680a      	ldr	r2, [r1, #0]
 8001fcc:	f442 4240 	orr.w	r2, r2, #49152	@ 0xc000
 8001fd0:	600a      	str	r2, [r1, #0]
 8001fd2:	689a      	ldr	r2, [r3, #8]
 8001fd4:	609a      	str	r2, [r3, #8]
 8001fd6:	689a      	ldr	r2, [r3, #8]
 8001fd8:	609a      	str	r2, [r3, #8]
 8001fda:	689a      	ldr	r2, [r3, #8]
 8001fdc:	f442 5280 	orr.w	r2, r2, #4096	@ 0x1000
 8001fe0:	609a      	str	r2, [r3, #8]
 8001fe2:	6058      	str	r0, [r3, #4]
 8001fe4:	681a      	ldr	r2, [r3, #0]
 8001fe6:	f042 7280 	orr.w	r2, r2, #16777216	@ 0x1000000
 8001fea:	601a      	str	r2, [r3, #0]
 8001fec:	681a      	ldr	r2, [r3, #0]
 8001fee:	0192      	lsls	r2, r2, #6
 8001ff0:	d5fc      	bpl.n	8001fec <SystemInit+0xa4>
 8001ff2:	4a0f      	ldr	r2, [pc, #60]	@ (8002030 <SystemInit+0xe8>)
 8001ff4:	f240 6103 	movw	r1, #1539	@ 0x603
 8001ff8:	6011      	str	r1, [r2, #0]
 8001ffa:	6899      	ldr	r1, [r3, #8]
 8001ffc:	f021 0103 	bic.w	r1, r1, #3
 8002000:	6099      	str	r1, [r3, #8]
 8002002:	6899      	ldr	r1, [r3, #8]
 8002004:	f041 0102 	orr.w	r1, r1, #2
 8002008:	f5a2 6280 	sub.w	r2, r2, #1024	@ 0x400
 800200c:	6099      	str	r1, [r3, #8]
 800200e:	6893      	ldr	r3, [r2, #8]
 8002010:	f003 030c 	and.w	r3, r3, #12
 8002014:	2b08      	cmp	r3, #8
 8002016:	d1fa      	bne.n	800200e <SystemInit+0xc6>
 8002018:	e7ca      	b.n	8001fb0 <SystemInit+0x68>
 800201a:	bf00      	nop
 800201c:	40023800 	.word	0x40023800
 8002020:	24003010 	.word	0x24003010
 8002024:	e000ed00 	.word	0xe000ed00
 8002028:	40007000 	.word	0x40007000
 800202c:	08416019 	.word	0x08416019
 8002030:	40023c00 	.word	0x40023c00

08002034 <SystemCoreClockUpdate>:
 8002034:	4a16      	ldr	r2, [pc, #88]	@ (8002090 <SystemCoreClockUpdate+0x5c>)
 8002036:	6893      	ldr	r3, [r2, #8]
 8002038:	f003 030c 	and.w	r3, r3, #12
 800203c:	2b04      	cmp	r3, #4
 800203e:	d025      	beq.n	800208c <SystemCoreClockUpdate+0x58>
 8002040:	2b08      	cmp	r3, #8
 8002042:	d00a      	beq.n	800205a <SystemCoreClockUpdate+0x26>
 8002044:	4b13      	ldr	r3, [pc, #76]	@ (8002094 <SystemCoreClockUpdate+0x60>)
 8002046:	4a12      	ldr	r2, [pc, #72]	@ (8002090 <SystemCoreClockUpdate+0x5c>)
 8002048:	4813      	ldr	r0, [pc, #76]	@ (8002098 <SystemCoreClockUpdate+0x64>)
 800204a:	6892      	ldr	r2, [r2, #8]
 800204c:	4913      	ldr	r1, [pc, #76]	@ (800209c <SystemCoreClockUpdate+0x68>)
 800204e:	f3c2 1203 	ubfx	r2, r2, #4, #4
 8002052:	5c82      	ldrb	r2, [r0, r2]
 8002054:	40d3      	lsrs	r3, r2
 8002056:	600b      	str	r3, [r1, #0]
 8002058:	4770      	bx	lr
 800205a:	6853      	ldr	r3, [r2, #4]
 800205c:	6851      	ldr	r1, [r2, #4]
 800205e:	f413 0f80 	tst.w	r3, #4194304	@ 0x400000
 8002062:	6853      	ldr	r3, [r2, #4]
 8002064:	bf14      	ite	ne
 8002066:	4a0e      	ldrne	r2, [pc, #56]	@ (80020a0 <SystemCoreClockUpdate+0x6c>)
 8002068:	4a0a      	ldreq	r2, [pc, #40]	@ (8002094 <SystemCoreClockUpdate+0x60>)
 800206a:	f3c3 1388 	ubfx	r3, r3, #6, #9
 800206e:	f001 013f 	and.w	r1, r1, #63	@ 0x3f
 8002072:	fbb2 f2f1 	udiv	r2, r2, r1
 8002076:	fb02 f303 	mul.w	r3, r2, r3
 800207a:	4a05      	ldr	r2, [pc, #20]	@ (8002090 <SystemCoreClockUpdate+0x5c>)
 800207c:	6852      	ldr	r2, [r2, #4]
 800207e:	f3c2 4201 	ubfx	r2, r2, #16, #2
 8002082:	3201      	adds	r2, #1
 8002084:	0052      	lsls	r2, r2, #1
 8002086:	fbb3 f3f2 	udiv	r3, r3, r2
 800208a:	e7dc      	b.n	8002046 <SystemCoreClockUpdate+0x12>
 800208c:	4b04      	ldr	r3, [pc, #16]	@ (80020a0 <SystemCoreClockUpdate+0x6c>)
 800208e:	e7da      	b.n	8002046 <SystemCoreClockUpdate+0x12>
 8002090:	40023800 	.word	0x40023800
 8002094:	00f42400 	.word	0x00f42400
 8002098:	08004ca0 	.word	0x08004ca0
 800209c:	20000044 	.word	0x20000044
 80020a0:	017d7840 	.word	0x017d7840

080020a4 <krnl_noop_rtsched>:
 80020a4:	f04f 30ff 	mov.w	r0, #4294967295	@ 0xffffffff
 80020a8:	4770      	bx	lr
 80020aa:	bf00      	nop

080020ac <krnl_panic>:
 80020ac:	b510      	push	{r4, lr}
 80020ae:	4604      	mov	r4, r0
 80020b0:	f7ff f82c 	bl	800110c <_di>
 80020b4:	4621      	mov	r1, r4
 80020b6:	480a      	ldr	r0, [pc, #40]	@ (80020e0 <krnl_panic+0x34>)
 80020b8:	f7ff fa12 	bl	80014e0 <ucx_printf>
 80020bc:	4b09      	ldr	r3, [pc, #36]	@ (80020e4 <krnl_panic+0x38>)
 80020be:	490a      	ldr	r1, [pc, #40]	@ (80020e8 <krnl_panic+0x3c>)
 80020c0:	681a      	ldr	r2, [r3, #0]
 80020c2:	6813      	ldr	r3, [r2, #0]
 80020c4:	428b      	cmp	r3, r1
 80020c6:	d104      	bne.n	80020d2 <krnl_panic+0x26>
 80020c8:	e005      	b.n	80020d6 <krnl_panic+0x2a>
 80020ca:	f852 3f08 	ldr.w	r3, [r2, #8]!
 80020ce:	428b      	cmp	r3, r1
 80020d0:	d001      	beq.n	80020d6 <krnl_panic+0x2a>
 80020d2:	429c      	cmp	r4, r3
 80020d4:	d1f9      	bne.n	80020ca <krnl_panic+0x1e>
 80020d6:	6851      	ldr	r1, [r2, #4]
 80020d8:	4804      	ldr	r0, [pc, #16]	@ (80020ec <krnl_panic+0x40>)
 80020da:	f7ff fa01 	bl	80014e0 <ucx_printf>
 80020de:	e7fe      	b.n	80020de <krnl_panic+0x32>
 80020e0:	08004a5c 	.word	0x08004a5c
 80020e4:	200001d0 	.word	0x200001d0
 80020e8:	ffffc011 	.word	0xffffc011
 80020ec:	08004a6c 	.word	0x08004a6c

080020f0 <krnl_schedule>:
 80020f0:	b530      	push	{r4, r5, lr}
 80020f2:	4d1a      	ldr	r5, [pc, #104]	@ (800215c <krnl_schedule+0x6c>)
 80020f4:	682b      	ldr	r3, [r5, #0]
 80020f6:	6859      	ldr	r1, [r3, #4]
 80020f8:	684a      	ldr	r2, [r1, #4]
 80020fa:	f892 0066 	ldrb.w	r0, [r2, #102]	@ 0x66
 80020fe:	2802      	cmp	r0, #2
 8002100:	bf04      	itt	eq
 8002102:	2001      	moveq	r0, #1
 8002104:	f882 0066 	strbeq.w	r0, [r2, #102]	@ 0x66
 8002108:	f242 7412 	movw	r4, #10002	@ 0x2712
 800210c:	e000      	b.n	8002110 <krnl_schedule+0x20>
 800210e:	682b      	ldr	r3, [r5, #0]
 8002110:	6818      	ldr	r0, [r3, #0]
 8002112:	f7ff fa33 	bl	800157c <list_cnext>
 8002116:	3c01      	subs	r4, #1
 8002118:	6843      	ldr	r3, [r0, #4]
 800211a:	4601      	mov	r1, r0
 800211c:	d01b      	beq.n	8002156 <krnl_schedule+0x66>
 800211e:	f893 2066 	ldrb.w	r2, [r3, #102]	@ 0x66
 8002122:	2a01      	cmp	r2, #1
 8002124:	d1f3      	bne.n	800210e <krnl_schedule+0x1e>
 8002126:	6dda      	ldr	r2, [r3, #92]	@ 0x5c
 8002128:	2a00      	cmp	r2, #0
 800212a:	d1f0      	bne.n	800210e <krnl_schedule+0x1e>
 800212c:	f8b3 2064 	ldrh.w	r2, [r3, #100]	@ 0x64
 8002130:	3a01      	subs	r2, #1
 8002132:	b292      	uxth	r2, r2
 8002134:	b2d0      	uxtb	r0, r2
 8002136:	f8a3 2064 	strh.w	r2, [r3, #100]	@ 0x64
 800213a:	2800      	cmp	r0, #0
 800213c:	d1e7      	bne.n	800210e <krnl_schedule+0x1e>
 800213e:	6828      	ldr	r0, [r5, #0]
 8002140:	2402      	movs	r4, #2
 8002142:	6041      	str	r1, [r0, #4]
 8002144:	ea42 2212 	orr.w	r2, r2, r2, lsr #8
 8002148:	f883 4066 	strb.w	r4, [r3, #102]	@ 0x66
 800214c:	f8b3 0060 	ldrh.w	r0, [r3, #96]	@ 0x60
 8002150:	f8a3 2064 	strh.w	r2, [r3, #100]	@ 0x64
 8002154:	bd30      	pop	{r4, r5, pc}
 8002156:	4802      	ldr	r0, [pc, #8]	@ (8002160 <krnl_schedule+0x70>)
 8002158:	f7ff ffa8 	bl	80020ac <krnl_panic>
 800215c:	20000048 	.word	0x20000048
 8002160:	ffffc001 	.word	0xffffc001

08002164 <krnl_dispatcher>:
 8002164:	4b03      	ldr	r3, [pc, #12]	@ (8002174 <krnl_dispatcher+0x10>)
 8002166:	681a      	ldr	r2, [r3, #0]
 8002168:	6e13      	ldr	r3, [r2, #96]	@ 0x60
 800216a:	3301      	adds	r3, #1
 800216c:	6613      	str	r3, [r2, #96]	@ 0x60
 800216e:	f7fe bef3 	b.w	8000f58 <_dispatch>
 8002172:	bf00      	nop
 8002174:	20000048 	.word	0x20000048

08002178 <ucx_task_spawn>:
 8002178:	b5f0      	push	{r4, r5, r6, r7, lr}
 800217a:	4606      	mov	r6, r0
 800217c:	b081      	sub	sp, #4
 800217e:	2068      	movs	r0, #104	@ 0x68
 8002180:	b28d      	uxth	r5, r1
 8002182:	f7ff fa9b 	bl	80016bc <ucx_malloc>
 8002186:	4604      	mov	r4, r0
 8002188:	2800      	cmp	r0, #0
 800218a:	d05c      	beq.n	8002246 <ucx_task_spawn+0xce>
 800218c:	4f31      	ldr	r7, [pc, #196]	@ (8002254 <ucx_task_spawn+0xdc>)
 800218e:	683b      	ldr	r3, [r7, #0]
 8002190:	f893 2066 	ldrb.w	r2, [r3, #102]	@ 0x66
 8002194:	2a79      	cmp	r2, #121	@ 0x79
 8002196:	d04e      	beq.n	8002236 <ucx_task_spawn+0xbe>
 8002198:	6818      	ldr	r0, [r3, #0]
 800219a:	4621      	mov	r1, r4
 800219c:	f7ff f9da 	bl	8001554 <list_pushback>
 80021a0:	2800      	cmp	r0, #0
 80021a2:	d050      	beq.n	8002246 <ucx_task_spawn+0xce>
 80021a4:	6839      	ldr	r1, [r7, #0]
 80021a6:	6044      	str	r4, [r0, #4]
 80021a8:	f8b1 2064 	ldrh.w	r2, [r1, #100]	@ 0x64
 80021ac:	6026      	str	r6, [r4, #0]
 80021ae:	2300      	movs	r3, #0
 80021b0:	f641 7c1f 	movw	ip, #7967	@ 0x1f1f
 80021b4:	f102 0e01 	add.w	lr, r2, #1
 80021b8:	65e3      	str	r3, [r4, #92]	@ 0x5c
 80021ba:	f8a4 3062 	strh.w	r3, [r4, #98]	@ 0x62
 80021be:	65a5      	str	r5, [r4, #88]	@ 0x58
 80021c0:	4628      	mov	r0, r5
 80021c2:	f8a1 e064 	strh.w	lr, [r1, #100]	@ 0x64
 80021c6:	f8a4 2060 	strh.w	r2, [r4, #96]	@ 0x60
 80021ca:	f884 3066 	strb.w	r3, [r4, #102]	@ 0x66
 80021ce:	f8a4 c064 	strh.w	ip, [r4, #100]	@ 0x64
 80021d2:	f7ff fa73 	bl	80016bc <ucx_malloc>
 80021d6:	6560      	str	r0, [r4, #84]	@ 0x54
 80021d8:	2800      	cmp	r0, #0
 80021da:	d037      	beq.n	800224c <ucx_task_spawn+0xd4>
 80021dc:	683b      	ldr	r3, [r7, #0]
 80021de:	f893 3066 	ldrb.w	r3, [r3, #102]	@ 0x66
 80021e2:	2b79      	cmp	r3, #121	@ 0x79
 80021e4:	d02b      	beq.n	800223e <ucx_task_spawn+0xc6>
 80021e6:	462a      	mov	r2, r5
 80021e8:	2169      	movs	r1, #105	@ 0x69
 80021ea:	f7ff f96f 	bl	80014cc <ucx_memset>
 80021ee:	6d60      	ldr	r0, [r4, #84]	@ 0x54
 80021f0:	2204      	movs	r2, #4
 80021f2:	2133      	movs	r1, #51	@ 0x33
 80021f4:	f7ff f96a 	bl	80014cc <ucx_memset>
 80021f8:	6d60      	ldr	r0, [r4, #84]	@ 0x54
 80021fa:	f105 4380 	add.w	r3, r5, #1073741824	@ 0x40000000
 80021fe:	3b04      	subs	r3, #4
 8002200:	eb00 0083 	add.w	r0, r0, r3, lsl #2
 8002204:	2204      	movs	r2, #4
 8002206:	2133      	movs	r1, #51	@ 0x33
 8002208:	f7ff f960 	bl	80014cc <ucx_memset>
 800220c:	6d61      	ldr	r1, [r4, #84]	@ 0x54
 800220e:	4633      	mov	r3, r6
 8002210:	462a      	mov	r2, r5
 8002212:	1d20      	adds	r0, r4, #4
 8002214:	f7fe ffa8 	bl	8001168 <_context_init>
 8002218:	6da0      	ldr	r0, [r4, #88]	@ 0x58
 800221a:	6d63      	ldr	r3, [r4, #84]	@ 0x54
 800221c:	6822      	ldr	r2, [r4, #0]
 800221e:	f8b4 1060 	ldrh.w	r1, [r4, #96]	@ 0x60
 8002222:	9000      	str	r0, [sp, #0]
 8002224:	480c      	ldr	r0, [pc, #48]	@ (8002258 <ucx_task_spawn+0xe0>)
 8002226:	f7ff f95b 	bl	80014e0 <ucx_printf>
 800222a:	2301      	movs	r3, #1
 800222c:	2000      	movs	r0, #0
 800222e:	f884 3066 	strb.w	r3, [r4, #102]	@ 0x66
 8002232:	b001      	add	sp, #4
 8002234:	bdf0      	pop	{r4, r5, r6, r7, pc}
 8002236:	f7fe ff69 	bl	800110c <_di>
 800223a:	683b      	ldr	r3, [r7, #0]
 800223c:	e7ac      	b.n	8002198 <ucx_task_spawn+0x20>
 800223e:	f7fe ff67 	bl	8001110 <_ei>
 8002242:	6d60      	ldr	r0, [r4, #84]	@ 0x54
 8002244:	e7cf      	b.n	80021e6 <ucx_task_spawn+0x6e>
 8002246:	4805      	ldr	r0, [pc, #20]	@ (800225c <ucx_task_spawn+0xe4>)
 8002248:	f7ff ff30 	bl	80020ac <krnl_panic>
 800224c:	4804      	ldr	r0, [pc, #16]	@ (8002260 <ucx_task_spawn+0xe8>)
 800224e:	f7ff ff2d 	bl	80020ac <krnl_panic>
 8002252:	bf00      	nop
 8002254:	20000048 	.word	0x20000048
 8002258:	08004a74 	.word	0x08004a74
 800225c:	ffffc003 	.word	0xffffc003
 8002260:	ffffc004 	.word	0xffffc004

08002264 <USART1_IRQHandler>:
 8002264:	b510      	push	{r4, lr}
 8002266:	4c17      	ldr	r4, [pc, #92]	@ (80022c4 <USART1_IRQHandler+0x60>)
 8002268:	4817      	ldr	r0, [pc, #92]	@ (80022c8 <USART1_IRQHandler+0x64>)
 800226a:	f240 5125 	movw	r1, #1317	@ 0x525
 800226e:	f001 fadd 	bl	800382c <USART_GetITStatus>
 8002272:	b300      	cbz	r0, 80022b6 <USART1_IRQHandler+0x52>
 8002274:	4814      	ldr	r0, [pc, #80]	@ (80022c8 <USART1_IRQHandler+0x64>)
 8002276:	f001 fab3 	bl	80037e0 <USART_ReceiveData>
 800227a:	f8b4 3082 	ldrh.w	r3, [r4, #130]	@ 0x82
 800227e:	f8b4 2080 	ldrh.w	r2, [r4, #128]	@ 0x80
 8002282:	3301      	adds	r3, #1
 8002284:	f003 037f 	and.w	r3, r3, #127	@ 0x7f
 8002288:	b292      	uxth	r2, r2
 800228a:	4293      	cmp	r3, r2
 800228c:	b2c0      	uxtb	r0, r0
 800228e:	d013      	beq.n	80022b8 <USART1_IRQHandler+0x54>
 8002290:	f8b4 2082 	ldrh.w	r2, [r4, #130]	@ 0x82
 8002294:	b292      	uxth	r2, r2
 8002296:	f240 5125 	movw	r1, #1317	@ 0x525
 800229a:	54a0      	strb	r0, [r4, r2]
 800229c:	f8a4 3082 	strh.w	r3, [r4, #130]	@ 0x82
 80022a0:	f8b4 3084 	ldrh.w	r3, [r4, #132]	@ 0x84
 80022a4:	4808      	ldr	r0, [pc, #32]	@ (80022c8 <USART1_IRQHandler+0x64>)
 80022a6:	3301      	adds	r3, #1
 80022a8:	b29b      	uxth	r3, r3
 80022aa:	f8a4 3084 	strh.w	r3, [r4, #132]	@ 0x84
 80022ae:	f001 fabd 	bl	800382c <USART_GetITStatus>
 80022b2:	2800      	cmp	r0, #0
 80022b4:	d1de      	bne.n	8002274 <USART1_IRQHandler+0x10>
 80022b6:	bd10      	pop	{r4, pc}
 80022b8:	f8d4 3088 	ldr.w	r3, [r4, #136]	@ 0x88
 80022bc:	3301      	adds	r3, #1
 80022be:	f8c4 3088 	str.w	r3, [r4, #136]	@ 0x88
 80022c2:	e7d1      	b.n	8002268 <USART1_IRQHandler+0x4>
 80022c4:	20000328 	.word	0x20000328
 80022c8:	40011000 	.word	0x40011000

080022cc <USART2_IRQHandler>:
 80022cc:	b510      	push	{r4, lr}
 80022ce:	4c18      	ldr	r4, [pc, #96]	@ (8002330 <USART2_IRQHandler+0x64>)
 80022d0:	4818      	ldr	r0, [pc, #96]	@ (8002334 <USART2_IRQHandler+0x68>)
 80022d2:	f240 5125 	movw	r1, #1317	@ 0x525
 80022d6:	f001 faa9 	bl	800382c <USART_GetITStatus>
 80022da:	b310      	cbz	r0, 8002322 <USART2_IRQHandler+0x56>
 80022dc:	4815      	ldr	r0, [pc, #84]	@ (8002334 <USART2_IRQHandler+0x68>)
 80022de:	f001 fa7f 	bl	80037e0 <USART_ReceiveData>
 80022e2:	f8b4 3112 	ldrh.w	r3, [r4, #274]	@ 0x112
 80022e6:	f8b4 2110 	ldrh.w	r2, [r4, #272]	@ 0x110
 80022ea:	3301      	adds	r3, #1
 80022ec:	f003 037f 	and.w	r3, r3, #127	@ 0x7f
 80022f0:	b292      	uxth	r2, r2
 80022f2:	4293      	cmp	r3, r2
 80022f4:	b2c0      	uxtb	r0, r0
 80022f6:	d015      	beq.n	8002324 <USART2_IRQHandler+0x58>
 80022f8:	f8b4 2112 	ldrh.w	r2, [r4, #274]	@ 0x112
 80022fc:	fa14 f282 	uxtah	r2, r4, r2
 8002300:	f240 5125 	movw	r1, #1317	@ 0x525
 8002304:	f882 0090 	strb.w	r0, [r2, #144]	@ 0x90
 8002308:	f8a4 3112 	strh.w	r3, [r4, #274]	@ 0x112
 800230c:	f8b4 3114 	ldrh.w	r3, [r4, #276]	@ 0x114
 8002310:	4808      	ldr	r0, [pc, #32]	@ (8002334 <USART2_IRQHandler+0x68>)
 8002312:	3301      	adds	r3, #1
 8002314:	b29b      	uxth	r3, r3
 8002316:	f8a4 3114 	strh.w	r3, [r4, #276]	@ 0x114
 800231a:	f001 fa87 	bl	800382c <USART_GetITStatus>
 800231e:	2800      	cmp	r0, #0
 8002320:	d1dc      	bne.n	80022dc <USART2_IRQHandler+0x10>
 8002322:	bd10      	pop	{r4, pc}
 8002324:	f8d4 3118 	ldr.w	r3, [r4, #280]	@ 0x118
 8002328:	3301      	adds	r3, #1
 800232a:	f8c4 3118 	str.w	r3, [r4, #280]	@ 0x118
 800232e:	e7cf      	b.n	80022d0 <USART2_IRQHandler+0x4>
 8002330:	20000328 	.word	0x20000328
 8002334:	40004400 	.word	0x40004400

08002338 <USART6_IRQHandler>:
 8002338:	b510      	push	{r4, lr}
 800233a:	4c18      	ldr	r4, [pc, #96]	@ (800239c <USART6_IRQHandler+0x64>)
 800233c:	4818      	ldr	r0, [pc, #96]	@ (80023a0 <USART6_IRQHandler+0x68>)
 800233e:	f240 5125 	movw	r1, #1317	@ 0x525
 8002342:	f001 fa73 	bl	800382c <USART_GetITStatus>
 8002346:	b310      	cbz	r0, 800238e <USART6_IRQHandler+0x56>
 8002348:	4815      	ldr	r0, [pc, #84]	@ (80023a0 <USART6_IRQHandler+0x68>)
 800234a:	f001 fa49 	bl	80037e0 <USART_ReceiveData>
 800234e:	f8b4 31a2 	ldrh.w	r3, [r4, #418]	@ 0x1a2
 8002352:	f8b4 21a0 	ldrh.w	r2, [r4, #416]	@ 0x1a0
 8002356:	3301      	adds	r3, #1
 8002358:	f003 037f 	and.w	r3, r3, #127	@ 0x7f
 800235c:	b292      	uxth	r2, r2
 800235e:	4293      	cmp	r3, r2
 8002360:	b2c0      	uxtb	r0, r0
 8002362:	d015      	beq.n	8002390 <USART6_IRQHandler+0x58>
 8002364:	f8b4 21a2 	ldrh.w	r2, [r4, #418]	@ 0x1a2
 8002368:	fa14 f282 	uxtah	r2, r4, r2
 800236c:	f240 5125 	movw	r1, #1317	@ 0x525
 8002370:	f882 0120 	strb.w	r0, [r2, #288]	@ 0x120
 8002374:	f8a4 31a2 	strh.w	r3, [r4, #418]	@ 0x1a2
 8002378:	f8b4 31a4 	ldrh.w	r3, [r4, #420]	@ 0x1a4
 800237c:	4808      	ldr	r0, [pc, #32]	@ (80023a0 <USART6_IRQHandler+0x68>)
 800237e:	3301      	adds	r3, #1
 8002380:	b29b      	uxth	r3, r3
 8002382:	f8a4 31a4 	strh.w	r3, [r4, #420]	@ 0x1a4
 8002386:	f001 fa51 	bl	800382c <USART_GetITStatus>
 800238a:	2800      	cmp	r0, #0
 800238c:	d1dc      	bne.n	8002348 <USART6_IRQHandler+0x10>
 800238e:	bd10      	pop	{r4, pc}
 8002390:	f8d4 31a8 	ldr.w	r3, [r4, #424]	@ 0x1a8
 8002394:	3301      	adds	r3, #1
 8002396:	f8c4 31a8 	str.w	r3, [r4, #424]	@ 0x1a8
 800239a:	e7cf      	b.n	800233c <USART6_IRQHandler+0x4>
 800239c:	20000328 	.word	0x20000328
 80023a0:	40011400 	.word	0x40011400

080023a4 <usart_init>:
 80023a4:	b5f0      	push	{r4, r5, r6, r7, lr}
 80023a6:	b2c0      	uxtb	r0, r0
 80023a8:	b08d      	sub	sp, #52	@ 0x34
 80023aa:	460d      	mov	r5, r1
 80023ac:	b2d4      	uxtb	r4, r2
 80023ae:	2806      	cmp	r0, #6
 80023b0:	d805      	bhi.n	80023be <usart_init+0x1a>
 80023b2:	e8df f000 	tbb	[pc, r0]
 80023b6:	71a3      	.short	0x71a3
 80023b8:	0404043e 	.word	0x0404043e
 80023bc:	08          	.byte	0x08
 80023bd:	00          	.byte	0x00
 80023be:	f04f 30ff 	mov.w	r0, #4294967295	@ 0xffffffff
 80023c2:	b00d      	add	sp, #52	@ 0x34
 80023c4:	bdf0      	pop	{r4, r5, r6, r7, pc}
 80023c6:	2101      	movs	r1, #1
 80023c8:	4608      	mov	r0, r1
 80023ca:	f7ff fd1d 	bl	8001e08 <RCC_AHB1PeriphClockCmd>
 80023ce:	2101      	movs	r1, #1
 80023d0:	2020      	movs	r0, #32
 80023d2:	f7ff fd3d 	bl	8001e50 <RCC_APB2PeriphClockCmd>
 80023d6:	4881      	ldr	r0, [pc, #516]	@ (80025dc <usart_init+0x238>)
 80023d8:	2208      	movs	r2, #8
 80023da:	210b      	movs	r1, #11
 80023dc:	f7ff fcb8 	bl	8001d50 <GPIO_PinAFConfig>
 80023e0:	487e      	ldr	r0, [pc, #504]	@ (80025dc <usart_init+0x238>)
 80023e2:	2208      	movs	r2, #8
 80023e4:	210c      	movs	r1, #12
 80023e6:	f7ff fcb3 	bl	8001d50 <GPIO_PinAFConfig>
 80023ea:	2600      	movs	r6, #0
 80023ec:	2302      	movs	r3, #2
 80023ee:	487c      	ldr	r0, [pc, #496]	@ (80025e0 <usart_init+0x23c>)
 80023f0:	9309      	str	r3, [sp, #36]	@ 0x24
 80023f2:	f44f 52c0 	mov.w	r2, #6144	@ 0x1800
 80023f6:	a908      	add	r1, sp, #32
 80023f8:	2701      	movs	r7, #1
 80023fa:	930a      	str	r3, [sp, #40]	@ 0x28
 80023fc:	9208      	str	r2, [sp, #32]
 80023fe:	960b      	str	r6, [sp, #44]	@ 0x2c
 8002400:	970c      	str	r7, [sp, #48]	@ 0x30
 8002402:	f7ff fc3d 	bl	8001c80 <GPIO_Init>
 8002406:	f44f 2340 	mov.w	r3, #786432	@ 0xc0000
 800240a:	4876      	ldr	r0, [pc, #472]	@ (80025e4 <usart_init+0x240>)
 800240c:	9504      	str	r5, [sp, #16]
 800240e:	a904      	add	r1, sp, #16
 8002410:	f8ad 601c 	strh.w	r6, [sp, #28]
 8002414:	9605      	str	r6, [sp, #20]
 8002416:	9306      	str	r3, [sp, #24]
 8002418:	f001 f972 	bl	8003700 <USART_Init>
 800241c:	2c00      	cmp	r4, #0
 800241e:	f000 80c6 	beq.w	80025ae <usart_init+0x20a>
 8002422:	4870      	ldr	r0, [pc, #448]	@ (80025e4 <usart_init+0x240>)
 8002424:	2101      	movs	r1, #1
 8002426:	f001 f9cb 	bl	80037c0 <USART_Cmd>
 800242a:	4b6f      	ldr	r3, [pc, #444]	@ (80025e8 <usart_init+0x244>)
 800242c:	f883 408c 	strb.w	r4, [r3, #140]	@ 0x8c
 8002430:	e08c      	b.n	800254c <usart_init+0x1a8>
 8002432:	2101      	movs	r1, #1
 8002434:	4608      	mov	r0, r1
 8002436:	f7ff fce7 	bl	8001e08 <RCC_AHB1PeriphClockCmd>
 800243a:	2101      	movs	r1, #1
 800243c:	f44f 3000 	mov.w	r0, #131072	@ 0x20000
 8002440:	f7ff fcfa 	bl	8001e38 <RCC_APB1PeriphClockCmd>
 8002444:	4865      	ldr	r0, [pc, #404]	@ (80025dc <usart_init+0x238>)
 8002446:	2207      	movs	r2, #7
 8002448:	2102      	movs	r1, #2
 800244a:	f7ff fc81 	bl	8001d50 <GPIO_PinAFConfig>
 800244e:	4863      	ldr	r0, [pc, #396]	@ (80025dc <usart_init+0x238>)
 8002450:	2207      	movs	r2, #7
 8002452:	2103      	movs	r1, #3
 8002454:	f7ff fc7c 	bl	8001d50 <GPIO_PinAFConfig>
 8002458:	2600      	movs	r6, #0
 800245a:	2302      	movs	r3, #2
 800245c:	485f      	ldr	r0, [pc, #380]	@ (80025dc <usart_init+0x238>)
 800245e:	9309      	str	r3, [sp, #36]	@ 0x24
 8002460:	220c      	movs	r2, #12
 8002462:	a908      	add	r1, sp, #32
 8002464:	2701      	movs	r7, #1
 8002466:	930a      	str	r3, [sp, #40]	@ 0x28
 8002468:	9208      	str	r2, [sp, #32]
 800246a:	960b      	str	r6, [sp, #44]	@ 0x2c
 800246c:	970c      	str	r7, [sp, #48]	@ 0x30
 800246e:	f7ff fc07 	bl	8001c80 <GPIO_Init>
 8002472:	f44f 2340 	mov.w	r3, #786432	@ 0xc0000
 8002476:	485d      	ldr	r0, [pc, #372]	@ (80025ec <usart_init+0x248>)
 8002478:	9504      	str	r5, [sp, #16]
 800247a:	a904      	add	r1, sp, #16
 800247c:	f8ad 601c 	strh.w	r6, [sp, #28]
 8002480:	9605      	str	r6, [sp, #20]
 8002482:	9306      	str	r3, [sp, #24]
 8002484:	f001 f93c 	bl	8003700 <USART_Init>
 8002488:	2c00      	cmp	r4, #0
 800248a:	d079      	beq.n	8002580 <usart_init+0x1dc>
 800248c:	4857      	ldr	r0, [pc, #348]	@ (80025ec <usart_init+0x248>)
 800248e:	2101      	movs	r1, #1
 8002490:	f001 f996 	bl	80037c0 <USART_Cmd>
 8002494:	4b56      	ldr	r3, [pc, #344]	@ (80025f0 <usart_init+0x24c>)
 8002496:	e7c9      	b.n	800242c <usart_init+0x88>
 8002498:	2101      	movs	r1, #1
 800249a:	2002      	movs	r0, #2
 800249c:	f7ff fcb4 	bl	8001e08 <RCC_AHB1PeriphClockCmd>
 80024a0:	2101      	movs	r1, #1
 80024a2:	2010      	movs	r0, #16
 80024a4:	f7ff fcd4 	bl	8001e50 <RCC_APB2PeriphClockCmd>
 80024a8:	4852      	ldr	r0, [pc, #328]	@ (80025f4 <usart_init+0x250>)
 80024aa:	2207      	movs	r2, #7
 80024ac:	2106      	movs	r1, #6
 80024ae:	f7ff fc4f 	bl	8001d50 <GPIO_PinAFConfig>
 80024b2:	2207      	movs	r2, #7
 80024b4:	4611      	mov	r1, r2
 80024b6:	484f      	ldr	r0, [pc, #316]	@ (80025f4 <usart_init+0x250>)
 80024b8:	f7ff fc4a 	bl	8001d50 <GPIO_PinAFConfig>
 80024bc:	2600      	movs	r6, #0
 80024be:	2302      	movs	r3, #2
 80024c0:	484c      	ldr	r0, [pc, #304]	@ (80025f4 <usart_init+0x250>)
 80024c2:	9309      	str	r3, [sp, #36]	@ 0x24
 80024c4:	22c0      	movs	r2, #192	@ 0xc0
 80024c6:	a908      	add	r1, sp, #32
 80024c8:	2701      	movs	r7, #1
 80024ca:	930a      	str	r3, [sp, #40]	@ 0x28
 80024cc:	9208      	str	r2, [sp, #32]
 80024ce:	960b      	str	r6, [sp, #44]	@ 0x2c
 80024d0:	970c      	str	r7, [sp, #48]	@ 0x30
 80024d2:	f7ff fbd5 	bl	8001c80 <GPIO_Init>
 80024d6:	f44f 2340 	mov.w	r3, #786432	@ 0xc0000
 80024da:	4847      	ldr	r0, [pc, #284]	@ (80025f8 <usart_init+0x254>)
 80024dc:	9504      	str	r5, [sp, #16]
 80024de:	a904      	add	r1, sp, #16
 80024e0:	f8ad 601c 	strh.w	r6, [sp, #28]
 80024e4:	9605      	str	r6, [sp, #20]
 80024e6:	9306      	str	r3, [sp, #24]
 80024e8:	f001 f90a 	bl	8003700 <USART_Init>
 80024ec:	2c00      	cmp	r4, #0
 80024ee:	d030      	beq.n	8002552 <usart_init+0x1ae>
 80024f0:	4841      	ldr	r0, [pc, #260]	@ (80025f8 <usart_init+0x254>)
 80024f2:	2101      	movs	r1, #1
 80024f4:	f001 f964 	bl	80037c0 <USART_Cmd>
 80024f8:	4b40      	ldr	r3, [pc, #256]	@ (80025fc <usart_init+0x258>)
 80024fa:	e797      	b.n	800242c <usart_init+0x88>
 80024fc:	2101      	movs	r1, #1
 80024fe:	4608      	mov	r0, r1
 8002500:	f7ff fc82 	bl	8001e08 <RCC_AHB1PeriphClockCmd>
 8002504:	f44f 4400 	mov.w	r4, #32768	@ 0x8000
 8002508:	2300      	movs	r3, #0
 800250a:	4834      	ldr	r0, [pc, #208]	@ (80025dc <usart_init+0x238>)
 800250c:	930b      	str	r3, [sp, #44]	@ 0x2c
 800250e:	2501      	movs	r5, #1
 8002510:	a908      	add	r1, sp, #32
 8002512:	930a      	str	r3, [sp, #40]	@ 0x28
 8002514:	930c      	str	r3, [sp, #48]	@ 0x30
 8002516:	9408      	str	r4, [sp, #32]
 8002518:	9509      	str	r5, [sp, #36]	@ 0x24
 800251a:	f7ff fbb1 	bl	8001c80 <GPIO_Init>
 800251e:	4621      	mov	r1, r4
 8002520:	482e      	ldr	r0, [pc, #184]	@ (80025dc <usart_init+0x238>)
 8002522:	f7ff fc0b 	bl	8001d3c <GPIO_ResetBits>
 8002526:	2064      	movs	r0, #100	@ 0x64
 8002528:	f7fe fc0c 	bl	8000d44 <_delay_ms>
 800252c:	4621      	mov	r1, r4
 800252e:	482b      	ldr	r0, [pc, #172]	@ (80025dc <usart_init+0x238>)
 8002530:	f7ff fc00 	bl	8001d34 <GPIO_SetBits>
 8002534:	f44f 70fa 	mov.w	r0, #500	@ 0x1f4
 8002538:	f7fe fc04 	bl	8000d44 <_delay_ms>
 800253c:	4930      	ldr	r1, [pc, #192]	@ (8002600 <usart_init+0x25c>)
 800253e:	9100      	str	r1, [sp, #0]
 8002540:	4b30      	ldr	r3, [pc, #192]	@ (8002604 <usart_init+0x260>)
 8002542:	4a31      	ldr	r2, [pc, #196]	@ (8002608 <usart_init+0x264>)
 8002544:	4831      	ldr	r0, [pc, #196]	@ (800260c <usart_init+0x268>)
 8002546:	4629      	mov	r1, r5
 8002548:	f000 fcce 	bl	8002ee8 <USBD_Init>
 800254c:	2000      	movs	r0, #0
 800254e:	b00d      	add	sp, #52	@ 0x34
 8002550:	bdf0      	pop	{r4, r5, r6, r7, pc}
 8002552:	4829      	ldr	r0, [pc, #164]	@ (80025f8 <usart_init+0x254>)
 8002554:	463a      	mov	r2, r7
 8002556:	f240 5125 	movw	r1, #1317	@ 0x525
 800255a:	f001 f945 	bl	80037e8 <USART_ITConfig>
 800255e:	2325      	movs	r3, #37	@ 0x25
 8002560:	a802      	add	r0, sp, #8
 8002562:	f8ad 3008 	strh.w	r3, [sp, #8]
 8002566:	f88d 400a 	strb.w	r4, [sp, #10]
 800256a:	9703      	str	r7, [sp, #12]
 800256c:	f7ff f922 	bl	80017b4 <NVIC_Init>
 8002570:	4b22      	ldr	r3, [pc, #136]	@ (80025fc <usart_init+0x258>)
 8002572:	f8a3 4080 	strh.w	r4, [r3, #128]	@ 0x80
 8002576:	f8a3 4082 	strh.w	r4, [r3, #130]	@ 0x82
 800257a:	f8a3 4084 	strh.w	r4, [r3, #132]	@ 0x84
 800257e:	e7b7      	b.n	80024f0 <usart_init+0x14c>
 8002580:	481a      	ldr	r0, [pc, #104]	@ (80025ec <usart_init+0x248>)
 8002582:	463a      	mov	r2, r7
 8002584:	f240 5125 	movw	r1, #1317	@ 0x525
 8002588:	f001 f92e 	bl	80037e8 <USART_ITConfig>
 800258c:	2326      	movs	r3, #38	@ 0x26
 800258e:	a802      	add	r0, sp, #8
 8002590:	f8ad 3008 	strh.w	r3, [sp, #8]
 8002594:	f88d 400a 	strb.w	r4, [sp, #10]
 8002598:	9703      	str	r7, [sp, #12]
 800259a:	f7ff f90b 	bl	80017b4 <NVIC_Init>
 800259e:	4b17      	ldr	r3, [pc, #92]	@ (80025fc <usart_init+0x258>)
 80025a0:	f8a3 4110 	strh.w	r4, [r3, #272]	@ 0x110
 80025a4:	f8a3 4112 	strh.w	r4, [r3, #274]	@ 0x112
 80025a8:	f8a3 4114 	strh.w	r4, [r3, #276]	@ 0x114
 80025ac:	e76e      	b.n	800248c <usart_init+0xe8>
 80025ae:	480d      	ldr	r0, [pc, #52]	@ (80025e4 <usart_init+0x240>)
 80025b0:	463a      	mov	r2, r7
 80025b2:	f240 5125 	movw	r1, #1317	@ 0x525
 80025b6:	f001 f917 	bl	80037e8 <USART_ITConfig>
 80025ba:	2347      	movs	r3, #71	@ 0x47
 80025bc:	a802      	add	r0, sp, #8
 80025be:	f8ad 3008 	strh.w	r3, [sp, #8]
 80025c2:	f88d 400a 	strb.w	r4, [sp, #10]
 80025c6:	9703      	str	r7, [sp, #12]
 80025c8:	f7ff f8f4 	bl	80017b4 <NVIC_Init>
 80025cc:	4b0b      	ldr	r3, [pc, #44]	@ (80025fc <usart_init+0x258>)
 80025ce:	f8a3 41a0 	strh.w	r4, [r3, #416]	@ 0x1a0
 80025d2:	f8a3 41a2 	strh.w	r4, [r3, #418]	@ 0x1a2
 80025d6:	f8a3 41a4 	strh.w	r4, [r3, #420]	@ 0x1a4
 80025da:	e722      	b.n	8002422 <usart_init+0x7e>
 80025dc:	40020000 	.word	0x40020000
 80025e0:	40020800 	.word	0x40020800
 80025e4:	40011400 	.word	0x40011400
 80025e8:	20000448 	.word	0x20000448
 80025ec:	40004400 	.word	0x40004400
 80025f0:	200003b8 	.word	0x200003b8
 80025f4:	40020400 	.word	0x40020400
 80025f8:	40011000 	.word	0x40011000
 80025fc:	20000328 	.word	0x20000328
 8002600:	200001a8 	.word	0x200001a8
 8002604:	200000b4 	.word	0x200000b4
 8002608:	2000018c 	.word	0x2000018c
 800260c:	200004d8 	.word	0x200004d8

08002610 <usart_rxsize>:
 8002610:	b2c0      	uxtb	r0, r0
 8002612:	b500      	push	{lr}
 8002614:	2806      	cmp	r0, #6
 8002616:	d805      	bhi.n	8002624 <usart_rxsize+0x14>
 8002618:	e8df f000 	tbb	[pc, r0]
 800261c:	04142228 	.word	0x04142228
 8002620:	0404      	.short	0x0404
 8002622:	07          	.byte	0x07
 8002623:	00          	.byte	0x00
 8002624:	2000      	movs	r0, #0
 8002626:	f85d fb04 	ldr.w	pc, [sp], #4
 800262a:	4812      	ldr	r0, [pc, #72]	@ (8002674 <usart_rxsize+0x64>)
 800262c:	2120      	movs	r1, #32
 800262e:	f001 f8f5 	bl	800381c <USART_GetFlagStatus>
 8002632:	4b11      	ldr	r3, [pc, #68]	@ (8002678 <usart_rxsize+0x68>)
 8002634:	f893 208c 	ldrb.w	r2, [r3, #140]	@ 0x8c
 8002638:	b16a      	cbz	r2, 8002656 <usart_rxsize+0x46>
 800263a:	3800      	subs	r0, #0
 800263c:	bf18      	it	ne
 800263e:	2001      	movne	r0, #1
 8002640:	f85d fb04 	ldr.w	pc, [sp], #4
 8002644:	480d      	ldr	r0, [pc, #52]	@ (800267c <usart_rxsize+0x6c>)
 8002646:	2120      	movs	r1, #32
 8002648:	f001 f8e8 	bl	800381c <USART_GetFlagStatus>
 800264c:	4b0c      	ldr	r3, [pc, #48]	@ (8002680 <usart_rxsize+0x70>)
 800264e:	f893 208c 	ldrb.w	r2, [r3, #140]	@ 0x8c
 8002652:	2a00      	cmp	r2, #0
 8002654:	d1f1      	bne.n	800263a <usart_rxsize+0x2a>
 8002656:	f8b3 0084 	ldrh.w	r0, [r3, #132]	@ 0x84
 800265a:	b280      	uxth	r0, r0
 800265c:	f85d fb04 	ldr.w	pc, [sp], #4
 8002660:	4808      	ldr	r0, [pc, #32]	@ (8002684 <usart_rxsize+0x74>)
 8002662:	2120      	movs	r1, #32
 8002664:	f001 f8da 	bl	800381c <USART_GetFlagStatus>
 8002668:	4b07      	ldr	r3, [pc, #28]	@ (8002688 <usart_rxsize+0x78>)
 800266a:	e7e3      	b.n	8002634 <usart_rxsize+0x24>
 800266c:	f000 faf4 	bl	8002c58 <VCP_kbhit>
 8002670:	f85d fb04 	ldr.w	pc, [sp], #4
 8002674:	40011400 	.word	0x40011400
 8002678:	20000448 	.word	0x20000448
 800267c:	40004400 	.word	0x40004400
 8002680:	200003b8 	.word	0x200003b8
 8002684:	40011000 	.word	0x40011000
 8002688:	20000328 	.word	0x20000328

0800268c <usart_tx>:
 800268c:	b2c0      	uxtb	r0, r0
 800268e:	b510      	push	{r4, lr}
 8002690:	b2cc      	uxtb	r4, r1
 8002692:	2806      	cmp	r0, #6
 8002694:	d833      	bhi.n	80026fe <usart_tx+0x72>
 8002696:	e8df f000 	tbb	[pc, r0]
 800269a:	0428      	.short	0x0428
 800269c:	3232321c 	.word	0x3232321c
 80026a0:	10          	.byte	0x10
 80026a1:	00          	.byte	0x00
 80026a2:	481b      	ldr	r0, [pc, #108]	@ (8002710 <usart_tx+0x84>)
 80026a4:	2180      	movs	r1, #128	@ 0x80
 80026a6:	f001 f8b9 	bl	800381c <USART_GetFlagStatus>
 80026aa:	2800      	cmp	r0, #0
 80026ac:	d0f9      	beq.n	80026a2 <usart_tx+0x16>
 80026ae:	4621      	mov	r1, r4
 80026b0:	4817      	ldr	r0, [pc, #92]	@ (8002710 <usart_tx+0x84>)
 80026b2:	e8bd 4010 	ldmia.w	sp!, {r4, lr}
 80026b6:	f001 b88f 	b.w	80037d8 <USART_SendData>
 80026ba:	4816      	ldr	r0, [pc, #88]	@ (8002714 <usart_tx+0x88>)
 80026bc:	2180      	movs	r1, #128	@ 0x80
 80026be:	f001 f8ad 	bl	800381c <USART_GetFlagStatus>
 80026c2:	2800      	cmp	r0, #0
 80026c4:	d0f9      	beq.n	80026ba <usart_tx+0x2e>
 80026c6:	4621      	mov	r1, r4
 80026c8:	4812      	ldr	r0, [pc, #72]	@ (8002714 <usart_tx+0x88>)
 80026ca:	e8bd 4010 	ldmia.w	sp!, {r4, lr}
 80026ce:	f001 b883 	b.w	80037d8 <USART_SendData>
 80026d2:	4811      	ldr	r0, [pc, #68]	@ (8002718 <usart_tx+0x8c>)
 80026d4:	2180      	movs	r1, #128	@ 0x80
 80026d6:	f001 f8a1 	bl	800381c <USART_GetFlagStatus>
 80026da:	2800      	cmp	r0, #0
 80026dc:	d0f9      	beq.n	80026d2 <usart_tx+0x46>
 80026de:	4621      	mov	r1, r4
 80026e0:	480d      	ldr	r0, [pc, #52]	@ (8002718 <usart_tx+0x8c>)
 80026e2:	e8bd 4010 	ldmia.w	sp!, {r4, lr}
 80026e6:	f001 b877 	b.w	80037d8 <USART_SendData>
 80026ea:	4620      	mov	r0, r4
 80026ec:	f000 faa2 	bl	8002c34 <VCP_putchar>
 80026f0:	4a0a      	ldr	r2, [pc, #40]	@ (800271c <usart_tx+0x90>)
 80026f2:	6813      	ldr	r3, [r2, #0]
 80026f4:	2b64      	cmp	r3, #100	@ 0x64
 80026f6:	f103 0101 	add.w	r1, r3, #1
 80026fa:	d001      	beq.n	8002700 <usart_tx+0x74>
 80026fc:	6011      	str	r1, [r2, #0]
 80026fe:	bd10      	pop	{r4, pc}
 8002700:	2300      	movs	r3, #0
 8002702:	e8bd 4010 	ldmia.w	sp!, {r4, lr}
 8002706:	2005      	movs	r0, #5
 8002708:	6013      	str	r3, [r2, #0]
 800270a:	f7fe bb1b 	b.w	8000d44 <_delay_ms>
 800270e:	bf00      	nop
 8002710:	40011000 	.word	0x40011000
 8002714:	40011400 	.word	0x40011400
 8002718:	40004400 	.word	0x40004400
 800271c:	20000324 	.word	0x20000324

08002720 <usart_rx>:
 8002720:	b530      	push	{r4, r5, lr}
 8002722:	b2c0      	uxtb	r0, r0
 8002724:	b082      	sub	sp, #8
 8002726:	2806      	cmp	r0, #6
 8002728:	d80f      	bhi.n	800274a <usart_rx+0x2a>
 800272a:	e8df f000 	tbb	[pc, r0]
 800272e:	7d04      	.short	0x7d04
 8002730:	0e0e0e47 	.word	0x0e0e0e47
 8002734:	11          	.byte	0x11
 8002735:	00          	.byte	0x00
 8002736:	f10d 0007 	add.w	r0, sp, #7
 800273a:	f000 fa99 	bl	8002c70 <VCP_getchar>
 800273e:	2800      	cmp	r0, #0
 8002740:	d0f9      	beq.n	8002736 <usart_rx+0x16>
 8002742:	f89d 0007 	ldrb.w	r0, [sp, #7]
 8002746:	b002      	add	sp, #8
 8002748:	bd30      	pop	{r4, r5, pc}
 800274a:	2000      	movs	r0, #0
 800274c:	b002      	add	sp, #8
 800274e:	bd30      	pop	{r4, r5, pc}
 8002750:	4c51      	ldr	r4, [pc, #324]	@ (8002898 <usart_rx+0x178>)
 8002752:	f894 51ac 	ldrb.w	r5, [r4, #428]	@ 0x1ac
 8002756:	bb35      	cbnz	r5, 80027a6 <usart_rx+0x86>
 8002758:	f8b4 21a0 	ldrh.w	r2, [r4, #416]	@ 0x1a0
 800275c:	f8b4 31a2 	ldrh.w	r3, [r4, #418]	@ 0x1a2
 8002760:	b292      	uxth	r2, r2
 8002762:	b29b      	uxth	r3, r3
 8002764:	429a      	cmp	r2, r3
 8002766:	d0f7      	beq.n	8002758 <usart_rx+0x38>
 8002768:	f7fe fcd0 	bl	800110c <_di>
 800276c:	f8b4 21a0 	ldrh.w	r2, [r4, #416]	@ 0x1a0
 8002770:	f8b4 31a2 	ldrh.w	r3, [r4, #418]	@ 0x1a2
 8002774:	b292      	uxth	r2, r2
 8002776:	b29b      	uxth	r3, r3
 8002778:	429a      	cmp	r2, r3
 800277a:	d07d      	beq.n	8002878 <usart_rx+0x158>
 800277c:	f8b4 31a0 	ldrh.w	r3, [r4, #416]	@ 0x1a0
 8002780:	fa14 f383 	uxtah	r3, r4, r3
 8002784:	f893 5120 	ldrb.w	r5, [r3, #288]	@ 0x120
 8002788:	f8b4 31a0 	ldrh.w	r3, [r4, #416]	@ 0x1a0
 800278c:	3301      	adds	r3, #1
 800278e:	f003 037f 	and.w	r3, r3, #127	@ 0x7f
 8002792:	f8a4 31a0 	strh.w	r3, [r4, #416]	@ 0x1a0
 8002796:	f8b4 31a4 	ldrh.w	r3, [r4, #420]	@ 0x1a4
 800279a:	3b01      	subs	r3, #1
 800279c:	b29b      	uxth	r3, r3
 800279e:	b2ed      	uxtb	r5, r5
 80027a0:	f8a4 31a4 	strh.w	r3, [r4, #420]	@ 0x1a4
 80027a4:	e068      	b.n	8002878 <usart_rx+0x158>
 80027a6:	483d      	ldr	r0, [pc, #244]	@ (800289c <usart_rx+0x17c>)
 80027a8:	2120      	movs	r1, #32
 80027aa:	f001 f837 	bl	800381c <USART_GetFlagStatus>
 80027ae:	2800      	cmp	r0, #0
 80027b0:	d0f9      	beq.n	80027a6 <usart_rx+0x86>
 80027b2:	483a      	ldr	r0, [pc, #232]	@ (800289c <usart_rx+0x17c>)
 80027b4:	f001 f814 	bl	80037e0 <USART_ReceiveData>
 80027b8:	b2c0      	uxtb	r0, r0
 80027ba:	e7c4      	b.n	8002746 <usart_rx+0x26>
 80027bc:	4c36      	ldr	r4, [pc, #216]	@ (8002898 <usart_rx+0x178>)
 80027be:	f894 511c 	ldrb.w	r5, [r4, #284]	@ 0x11c
 80027c2:	bb35      	cbnz	r5, 8002812 <usart_rx+0xf2>
 80027c4:	f8b4 2110 	ldrh.w	r2, [r4, #272]	@ 0x110
 80027c8:	f8b4 3112 	ldrh.w	r3, [r4, #274]	@ 0x112
 80027cc:	b292      	uxth	r2, r2
 80027ce:	b29b      	uxth	r3, r3
 80027d0:	429a      	cmp	r2, r3
 80027d2:	d0f7      	beq.n	80027c4 <usart_rx+0xa4>
 80027d4:	f7fe fc9a 	bl	800110c <_di>
 80027d8:	f8b4 2110 	ldrh.w	r2, [r4, #272]	@ 0x110
 80027dc:	f8b4 3112 	ldrh.w	r3, [r4, #274]	@ 0x112
 80027e0:	b292      	uxth	r2, r2
 80027e2:	b29b      	uxth	r3, r3
 80027e4:	429a      	cmp	r2, r3
 80027e6:	d047      	beq.n	8002878 <usart_rx+0x158>
 80027e8:	f8b4 3110 	ldrh.w	r3, [r4, #272]	@ 0x110
 80027ec:	fa14 f383 	uxtah	r3, r4, r3
 80027f0:	f893 5090 	ldrb.w	r5, [r3, #144]	@ 0x90
 80027f4:	f8b4 3110 	ldrh.w	r3, [r4, #272]	@ 0x110
 80027f8:	3301      	adds	r3, #1
 80027fa:	f003 037f 	and.w	r3, r3, #127	@ 0x7f
 80027fe:	f8a4 3110 	strh.w	r3, [r4, #272]	@ 0x110
 8002802:	f8b4 3114 	ldrh.w	r3, [r4, #276]	@ 0x114
 8002806:	3b01      	subs	r3, #1
 8002808:	b29b      	uxth	r3, r3
 800280a:	b2ed      	uxtb	r5, r5
 800280c:	f8a4 3114 	strh.w	r3, [r4, #276]	@ 0x114
 8002810:	e032      	b.n	8002878 <usart_rx+0x158>
 8002812:	4823      	ldr	r0, [pc, #140]	@ (80028a0 <usart_rx+0x180>)
 8002814:	2120      	movs	r1, #32
 8002816:	f001 f801 	bl	800381c <USART_GetFlagStatus>
 800281a:	2800      	cmp	r0, #0
 800281c:	d0f9      	beq.n	8002812 <usart_rx+0xf2>
 800281e:	4820      	ldr	r0, [pc, #128]	@ (80028a0 <usart_rx+0x180>)
 8002820:	f000 ffde 	bl	80037e0 <USART_ReceiveData>
 8002824:	b2c0      	uxtb	r0, r0
 8002826:	e78e      	b.n	8002746 <usart_rx+0x26>
 8002828:	4c1b      	ldr	r4, [pc, #108]	@ (8002898 <usart_rx+0x178>)
 800282a:	f894 508c 	ldrb.w	r5, [r4, #140]	@ 0x8c
 800282e:	bb45      	cbnz	r5, 8002882 <usart_rx+0x162>
 8002830:	f8b4 2080 	ldrh.w	r2, [r4, #128]	@ 0x80
 8002834:	f8b4 3082 	ldrh.w	r3, [r4, #130]	@ 0x82
 8002838:	b292      	uxth	r2, r2
 800283a:	b29b      	uxth	r3, r3
 800283c:	429a      	cmp	r2, r3
 800283e:	d0f7      	beq.n	8002830 <usart_rx+0x110>
 8002840:	f7fe fc64 	bl	800110c <_di>
 8002844:	f8b4 2080 	ldrh.w	r2, [r4, #128]	@ 0x80
 8002848:	f8b4 3082 	ldrh.w	r3, [r4, #130]	@ 0x82
 800284c:	b292      	uxth	r2, r2
 800284e:	b29b      	uxth	r3, r3
 8002850:	429a      	cmp	r2, r3
 8002852:	d011      	beq.n	8002878 <usart_rx+0x158>
 8002854:	f8b4 3080 	ldrh.w	r3, [r4, #128]	@ 0x80
 8002858:	b29b      	uxth	r3, r3
 800285a:	5ce5      	ldrb	r5, [r4, r3]
 800285c:	f8b4 3080 	ldrh.w	r3, [r4, #128]	@ 0x80
 8002860:	3301      	adds	r3, #1
 8002862:	f003 037f 	and.w	r3, r3, #127	@ 0x7f
 8002866:	f8a4 3080 	strh.w	r3, [r4, #128]	@ 0x80
 800286a:	f8b4 3084 	ldrh.w	r3, [r4, #132]	@ 0x84
 800286e:	3b01      	subs	r3, #1
 8002870:	b29b      	uxth	r3, r3
 8002872:	b2ed      	uxtb	r5, r5
 8002874:	f8a4 3084 	strh.w	r3, [r4, #132]	@ 0x84
 8002878:	f88d 5007 	strb.w	r5, [sp, #7]
 800287c:	f7fe fc48 	bl	8001110 <_ei>
 8002880:	e75f      	b.n	8002742 <usart_rx+0x22>
 8002882:	4808      	ldr	r0, [pc, #32]	@ (80028a4 <usart_rx+0x184>)
 8002884:	2120      	movs	r1, #32
 8002886:	f000 ffc9 	bl	800381c <USART_GetFlagStatus>
 800288a:	2800      	cmp	r0, #0
 800288c:	d0f9      	beq.n	8002882 <usart_rx+0x162>
 800288e:	4805      	ldr	r0, [pc, #20]	@ (80028a4 <usart_rx+0x184>)
 8002890:	f000 ffa6 	bl	80037e0 <USART_ReceiveData>
 8002894:	b2c0      	uxtb	r0, r0
 8002896:	e756      	b.n	8002746 <usart_rx+0x26>
 8002898:	20000328 	.word	0x20000328
 800289c:	40011400 	.word	0x40011400
 80028a0:	40004400 	.word	0x40004400
 80028a4:	40011000 	.word	0x40011000

080028a8 <usbd_cdc_EP0_RxReady>:
 80028a8:	b510      	push	{r4, lr}
 80028aa:	4c07      	ldr	r4, [pc, #28]	@ (80028c8 <usbd_cdc_EP0_RxReady+0x20>)
 80028ac:	6820      	ldr	r0, [r4, #0]
 80028ae:	28ff      	cmp	r0, #255	@ 0xff
 80028b0:	d007      	beq.n	80028c2 <usbd_cdc_EP0_RxReady+0x1a>
 80028b2:	4a06      	ldr	r2, [pc, #24]	@ (80028cc <usbd_cdc_EP0_RxReady+0x24>)
 80028b4:	4b06      	ldr	r3, [pc, #24]	@ (80028d0 <usbd_cdc_EP0_RxReady+0x28>)
 80028b6:	6812      	ldr	r2, [r2, #0]
 80028b8:	689b      	ldr	r3, [r3, #8]
 80028ba:	4906      	ldr	r1, [pc, #24]	@ (80028d4 <usbd_cdc_EP0_RxReady+0x2c>)
 80028bc:	4798      	blx	r3
 80028be:	23ff      	movs	r3, #255	@ 0xff
 80028c0:	6023      	str	r3, [r4, #0]
 80028c2:	2000      	movs	r0, #0
 80028c4:	bd10      	pop	{r4, pc}
 80028c6:	bf00      	nop
 80028c8:	200000e0 	.word	0x200000e0
 80028cc:	20000acc 	.word	0x20000acc
 80028d0:	20000128 	.word	0x20000128
 80028d4:	20000ae0 	.word	0x20000ae0

080028d8 <USBD_cdc_GetCfgDesc>:
 80028d8:	2343      	movs	r3, #67	@ 0x43
 80028da:	4801      	ldr	r0, [pc, #4]	@ (80028e0 <USBD_cdc_GetCfgDesc+0x8>)
 80028dc:	800b      	strh	r3, [r1, #0]
 80028de:	4770      	bx	lr
 80028e0:	200000e4 	.word	0x200000e4

080028e4 <usbd_cdc_SOF>:
 80028e4:	4a1f      	ldr	r2, [pc, #124]	@ (8002964 <usbd_cdc_SOF+0x80>)
 80028e6:	6813      	ldr	r3, [r2, #0]
 80028e8:	2b05      	cmp	r3, #5
 80028ea:	b570      	push	{r4, r5, r6, lr}
 80028ec:	f103 0101 	add.w	r1, r3, #1
 80028f0:	d002      	beq.n	80028f8 <usbd_cdc_SOF+0x14>
 80028f2:	6011      	str	r1, [r2, #0]
 80028f4:	2000      	movs	r0, #0
 80028f6:	bd70      	pop	{r4, r5, r6, pc}
 80028f8:	4d1b      	ldr	r5, [pc, #108]	@ (8002968 <usbd_cdc_SOF+0x84>)
 80028fa:	7829      	ldrb	r1, [r5, #0]
 80028fc:	2300      	movs	r3, #0
 80028fe:	2901      	cmp	r1, #1
 8002900:	6013      	str	r3, [r2, #0]
 8002902:	d0f7      	beq.n	80028f4 <usbd_cdc_SOF+0x10>
 8002904:	4e19      	ldr	r6, [pc, #100]	@ (800296c <usbd_cdc_SOF+0x88>)
 8002906:	4a1a      	ldr	r2, [pc, #104]	@ (8002970 <usbd_cdc_SOF+0x8c>)
 8002908:	6831      	ldr	r1, [r6, #0]
 800290a:	6814      	ldr	r4, [r2, #0]
 800290c:	f5b1 6f00 	cmp.w	r1, #2048	@ 0x800
 8002910:	d01f      	beq.n	8002952 <usbd_cdc_SOF+0x6e>
 8002912:	42a1      	cmp	r1, r4
 8002914:	d022      	beq.n	800295c <usbd_cdc_SOF+0x78>
 8002916:	4a17      	ldr	r2, [pc, #92]	@ (8002974 <usbd_cdc_SOF+0x90>)
 8002918:	bf98      	it	ls
 800291a:	1a64      	subls	r4, r4, r1
 800291c:	fa12 f281 	uxtah	r2, r2, r1
 8002920:	bf88      	it	hi
 8002922:	f5c1 6400 	rsbhi	r4, r1, #2048	@ 0x800
 8002926:	f8d0 35ec 	ldr.w	r3, [r0, #1516]	@ 0x5ec
 800292a:	f8b3 3039 	ldrh.w	r3, [r3, #57]	@ 0x39
 800292e:	42a3      	cmp	r3, r4
 8002930:	d20b      	bcs.n	800294a <usbd_cdc_SOF+0x66>
 8002932:	4419      	add	r1, r3
 8002934:	1ae4      	subs	r4, r4, r3
 8002936:	6031      	str	r1, [r6, #0]
 8002938:	490f      	ldr	r1, [pc, #60]	@ (8002978 <usbd_cdc_SOF+0x94>)
 800293a:	600c      	str	r4, [r1, #0]
 800293c:	2101      	movs	r1, #1
 800293e:	7029      	strb	r1, [r5, #0]
 8002940:	2181      	movs	r1, #129	@ 0x81
 8002942:	f001 fd1d 	bl	8004380 <DCD_EP_Tx>
 8002946:	2000      	movs	r0, #0
 8002948:	bd70      	pop	{r4, r5, r6, pc}
 800294a:	4421      	add	r1, r4
 800294c:	4623      	mov	r3, r4
 800294e:	2400      	movs	r4, #0
 8002950:	e7f1      	b.n	8002936 <usbd_cdc_SOF+0x52>
 8002952:	6033      	str	r3, [r6, #0]
 8002954:	b114      	cbz	r4, 800295c <usbd_cdc_SOF+0x78>
 8002956:	4a07      	ldr	r2, [pc, #28]	@ (8002974 <usbd_cdc_SOF+0x90>)
 8002958:	4619      	mov	r1, r3
 800295a:	e7e4      	b.n	8002926 <usbd_cdc_SOF+0x42>
 800295c:	2300      	movs	r3, #0
 800295e:	702b      	strb	r3, [r5, #0]
 8002960:	e7c8      	b.n	80028f4 <usbd_cdc_SOF+0x10>
 8002962:	bf00      	nop
 8002964:	20000ac8 	.word	0x20000ac8
 8002968:	20000ad0 	.word	0x20000ad0
 800296c:	20000ad8 	.word	0x20000ad8
 8002970:	20000adc 	.word	0x20000adc
 8002974:	20000ae8 	.word	0x20000ae8
 8002978:	20000ad4 	.word	0x20000ad4

0800297c <usbd_cdc_DataOut>:
 800297c:	b2c9      	uxtb	r1, r1
 800297e:	eb01 0181 	add.w	r1, r1, r1, lsl #2
 8002982:	eb00 01c1 	add.w	r1, r0, r1, lsl #3
 8002986:	4b09      	ldr	r3, [pc, #36]	@ (80029ac <usbd_cdc_DataOut+0x30>)
 8002988:	f8b1 1388 	ldrh.w	r1, [r1, #904]	@ 0x388
 800298c:	691b      	ldr	r3, [r3, #16]
 800298e:	b510      	push	{r4, lr}
 8002990:	4604      	mov	r4, r0
 8002992:	4807      	ldr	r0, [pc, #28]	@ (80029b0 <usbd_cdc_DataOut+0x34>)
 8002994:	4798      	blx	r3
 8002996:	f8d4 35ec 	ldr.w	r3, [r4, #1516]	@ 0x5ec
 800299a:	4a05      	ldr	r2, [pc, #20]	@ (80029b0 <usbd_cdc_DataOut+0x34>)
 800299c:	f8b3 3040 	ldrh.w	r3, [r3, #64]	@ 0x40
 80029a0:	2101      	movs	r1, #1
 80029a2:	4620      	mov	r0, r4
 80029a4:	f001 fcc4 	bl	8004330 <DCD_EP_PrepareRx>
 80029a8:	2000      	movs	r0, #0
 80029aa:	bd10      	pop	{r4, pc}
 80029ac:	20000128 	.word	0x20000128
 80029b0:	200012e8 	.word	0x200012e8

080029b4 <usbd_cdc_Setup>:
 80029b4:	b570      	push	{r4, r5, r6, lr}
 80029b6:	780b      	ldrb	r3, [r1, #0]
 80029b8:	f013 0260 	ands.w	r2, r3, #96	@ 0x60
 80029bc:	460c      	mov	r4, r1
 80029be:	4605      	mov	r5, r0
 80029c0:	d015      	beq.n	80029ee <usbd_cdc_Setup+0x3a>
 80029c2:	2a20      	cmp	r2, #32
 80029c4:	d003      	beq.n	80029ce <usbd_cdc_Setup+0x1a>
 80029c6:	f000 fd97 	bl	80034f8 <USBD_CtlError>
 80029ca:	2002      	movs	r0, #2
 80029cc:	bd70      	pop	{r4, r5, r6, pc}
 80029ce:	88ca      	ldrh	r2, [r1, #6]
 80029d0:	784e      	ldrb	r6, [r1, #1]
 80029d2:	b302      	cbz	r2, 8002a16 <usbd_cdc_Setup+0x62>
 80029d4:	061b      	lsls	r3, r3, #24
 80029d6:	d52f      	bpl.n	8002a38 <usbd_cdc_Setup+0x84>
 80029d8:	4b1d      	ldr	r3, [pc, #116]	@ (8002a50 <usbd_cdc_Setup+0x9c>)
 80029da:	491e      	ldr	r1, [pc, #120]	@ (8002a54 <usbd_cdc_Setup+0xa0>)
 80029dc:	689b      	ldr	r3, [r3, #8]
 80029de:	4630      	mov	r0, r6
 80029e0:	4798      	blx	r3
 80029e2:	491c      	ldr	r1, [pc, #112]	@ (8002a54 <usbd_cdc_Setup+0xa0>)
 80029e4:	88e2      	ldrh	r2, [r4, #6]
 80029e6:	4628      	mov	r0, r5
 80029e8:	f000 fb06 	bl	8002ff8 <USBD_CtlSendData>
 80029ec:	e018      	b.n	8002a20 <usbd_cdc_Setup+0x6c>
 80029ee:	784b      	ldrb	r3, [r1, #1]
 80029f0:	2b0a      	cmp	r3, #10
 80029f2:	d01c      	beq.n	8002a2e <usbd_cdc_Setup+0x7a>
 80029f4:	2b0b      	cmp	r3, #11
 80029f6:	d015      	beq.n	8002a24 <usbd_cdc_Setup+0x70>
 80029f8:	2b06      	cmp	r3, #6
 80029fa:	d111      	bne.n	8002a20 <usbd_cdc_Setup+0x6c>
 80029fc:	884b      	ldrh	r3, [r1, #2]
 80029fe:	0a1b      	lsrs	r3, r3, #8
 8002a00:	2b21      	cmp	r3, #33	@ 0x21
 8002a02:	d103      	bne.n	8002a0c <usbd_cdc_Setup+0x58>
 8002a04:	88ca      	ldrh	r2, [r1, #6]
 8002a06:	2a3a      	cmp	r2, #58	@ 0x3a
 8002a08:	bf28      	it	cs
 8002a0a:	223a      	movcs	r2, #58	@ 0x3a
 8002a0c:	4912      	ldr	r1, [pc, #72]	@ (8002a58 <usbd_cdc_Setup+0xa4>)
 8002a0e:	4628      	mov	r0, r5
 8002a10:	f000 faf2 	bl	8002ff8 <USBD_CtlSendData>
 8002a14:	e004      	b.n	8002a20 <usbd_cdc_Setup+0x6c>
 8002a16:	4b0e      	ldr	r3, [pc, #56]	@ (8002a50 <usbd_cdc_Setup+0x9c>)
 8002a18:	4611      	mov	r1, r2
 8002a1a:	689b      	ldr	r3, [r3, #8]
 8002a1c:	4630      	mov	r0, r6
 8002a1e:	4798      	blx	r3
 8002a20:	2000      	movs	r0, #0
 8002a22:	bd70      	pop	{r4, r5, r6, pc}
 8002a24:	788b      	ldrb	r3, [r1, #2]
 8002a26:	b97b      	cbnz	r3, 8002a48 <usbd_cdc_Setup+0x94>
 8002a28:	4a0c      	ldr	r2, [pc, #48]	@ (8002a5c <usbd_cdc_Setup+0xa8>)
 8002a2a:	6013      	str	r3, [r2, #0]
 8002a2c:	e7f8      	b.n	8002a20 <usbd_cdc_Setup+0x6c>
 8002a2e:	490b      	ldr	r1, [pc, #44]	@ (8002a5c <usbd_cdc_Setup+0xa8>)
 8002a30:	2201      	movs	r2, #1
 8002a32:	f000 fae1 	bl	8002ff8 <USBD_CtlSendData>
 8002a36:	e7f3      	b.n	8002a20 <usbd_cdc_Setup+0x6c>
 8002a38:	4909      	ldr	r1, [pc, #36]	@ (8002a60 <usbd_cdc_Setup+0xac>)
 8002a3a:	4b0a      	ldr	r3, [pc, #40]	@ (8002a64 <usbd_cdc_Setup+0xb0>)
 8002a3c:	600e      	str	r6, [r1, #0]
 8002a3e:	4905      	ldr	r1, [pc, #20]	@ (8002a54 <usbd_cdc_Setup+0xa0>)
 8002a40:	601a      	str	r2, [r3, #0]
 8002a42:	f000 faf3 	bl	800302c <USBD_CtlPrepareRx>
 8002a46:	e7eb      	b.n	8002a20 <usbd_cdc_Setup+0x6c>
 8002a48:	f000 fd56 	bl	80034f8 <USBD_CtlError>
 8002a4c:	e7e8      	b.n	8002a20 <usbd_cdc_Setup+0x6c>
 8002a4e:	bf00      	nop
 8002a50:	20000128 	.word	0x20000128
 8002a54:	20000ae0 	.word	0x20000ae0
 8002a58:	200000f6 	.word	0x200000f6
 8002a5c:	20001328 	.word	0x20001328
 8002a60:	200000e0 	.word	0x200000e0
 8002a64:	20000acc 	.word	0x20000acc

08002a68 <usbd_cdc_DeInit>:
 8002a68:	b510      	push	{r4, lr}
 8002a6a:	2181      	movs	r1, #129	@ 0x81
 8002a6c:	4604      	mov	r4, r0
 8002a6e:	f001 fc43 	bl	80042f8 <DCD_EP_Close>
 8002a72:	2101      	movs	r1, #1
 8002a74:	4620      	mov	r0, r4
 8002a76:	f001 fc3f 	bl	80042f8 <DCD_EP_Close>
 8002a7a:	2182      	movs	r1, #130	@ 0x82
 8002a7c:	4620      	mov	r0, r4
 8002a7e:	f001 fc3b 	bl	80042f8 <DCD_EP_Close>
 8002a82:	4b02      	ldr	r3, [pc, #8]	@ (8002a8c <usbd_cdc_DeInit+0x24>)
 8002a84:	685b      	ldr	r3, [r3, #4]
 8002a86:	4798      	blx	r3
 8002a88:	2000      	movs	r0, #0
 8002a8a:	bd10      	pop	{r4, pc}
 8002a8c:	20000128 	.word	0x20000128

08002a90 <usbd_cdc_Init>:
 8002a90:	f8d0 25ec 	ldr.w	r2, [r0, #1516]	@ 0x5ec
 8002a94:	b510      	push	{r4, lr}
 8002a96:	4604      	mov	r4, r0
 8002a98:	f8b2 2039 	ldrh.w	r2, [r2, #57]	@ 0x39
 8002a9c:	2302      	movs	r3, #2
 8002a9e:	2181      	movs	r1, #129	@ 0x81
 8002aa0:	f001 fbf2 	bl	8004288 <DCD_EP_Open>
 8002aa4:	f8d4 25ec 	ldr.w	r2, [r4, #1516]	@ 0x5ec
 8002aa8:	2302      	movs	r3, #2
 8002aaa:	f8b2 2040 	ldrh.w	r2, [r2, #64]	@ 0x40
 8002aae:	2101      	movs	r1, #1
 8002ab0:	4620      	mov	r0, r4
 8002ab2:	f001 fbe9 	bl	8004288 <DCD_EP_Open>
 8002ab6:	2303      	movs	r3, #3
 8002ab8:	2208      	movs	r2, #8
 8002aba:	2182      	movs	r1, #130	@ 0x82
 8002abc:	4620      	mov	r0, r4
 8002abe:	f001 fbe3 	bl	8004288 <DCD_EP_Open>
 8002ac2:	4a08      	ldr	r2, [pc, #32]	@ (8002ae4 <usbd_cdc_Init+0x54>)
 8002ac4:	4b08      	ldr	r3, [pc, #32]	@ (8002ae8 <usbd_cdc_Init+0x58>)
 8002ac6:	2102      	movs	r1, #2
 8002ac8:	8091      	strh	r1, [r2, #4]
 8002aca:	681b      	ldr	r3, [r3, #0]
 8002acc:	4798      	blx	r3
 8002ace:	f8d4 35ec 	ldr.w	r3, [r4, #1516]	@ 0x5ec
 8002ad2:	4a06      	ldr	r2, [pc, #24]	@ (8002aec <usbd_cdc_Init+0x5c>)
 8002ad4:	f8b3 3040 	ldrh.w	r3, [r3, #64]	@ 0x40
 8002ad8:	2101      	movs	r1, #1
 8002ada:	4620      	mov	r0, r4
 8002adc:	f001 fc28 	bl	8004330 <DCD_EP_PrepareRx>
 8002ae0:	2000      	movs	r0, #0
 8002ae2:	bd10      	pop	{r4, pc}
 8002ae4:	20000178 	.word	0x20000178
 8002ae8:	20000128 	.word	0x20000128
 8002aec:	200012e8 	.word	0x200012e8

08002af0 <usbd_cdc_DataIn>:
 8002af0:	b570      	push	{r4, r5, r6, lr}
 8002af2:	4b12      	ldr	r3, [pc, #72]	@ (8002b3c <usbd_cdc_DataIn+0x4c>)
 8002af4:	781a      	ldrb	r2, [r3, #0]
 8002af6:	2a01      	cmp	r2, #1
 8002af8:	d001      	beq.n	8002afe <usbd_cdc_DataIn+0xe>
 8002afa:	2000      	movs	r0, #0
 8002afc:	bd70      	pop	{r4, r5, r6, pc}
 8002afe:	4c10      	ldr	r4, [pc, #64]	@ (8002b40 <usbd_cdc_DataIn+0x50>)
 8002b00:	6821      	ldr	r1, [r4, #0]
 8002b02:	b199      	cbz	r1, 8002b2c <usbd_cdc_DataIn+0x3c>
 8002b04:	f8d0 35ec 	ldr.w	r3, [r0, #1516]	@ 0x5ec
 8002b08:	4d0e      	ldr	r5, [pc, #56]	@ (8002b44 <usbd_cdc_DataIn+0x54>)
 8002b0a:	f8b3 3039 	ldrh.w	r3, [r3, #57]	@ 0x39
 8002b0e:	682a      	ldr	r2, [r5, #0]
 8002b10:	4299      	cmp	r1, r3
 8002b12:	d90e      	bls.n	8002b32 <usbd_cdc_DataIn+0x42>
 8002b14:	1ac9      	subs	r1, r1, r3
 8002b16:	189e      	adds	r6, r3, r2
 8002b18:	6021      	str	r1, [r4, #0]
 8002b1a:	4c0b      	ldr	r4, [pc, #44]	@ (8002b48 <usbd_cdc_DataIn+0x58>)
 8002b1c:	602e      	str	r6, [r5, #0]
 8002b1e:	2181      	movs	r1, #129	@ 0x81
 8002b20:	fa14 f282 	uxtah	r2, r4, r2
 8002b24:	f001 fc2c 	bl	8004380 <DCD_EP_Tx>
 8002b28:	2000      	movs	r0, #0
 8002b2a:	bd70      	pop	{r4, r5, r6, pc}
 8002b2c:	7019      	strb	r1, [r3, #0]
 8002b2e:	2000      	movs	r0, #0
 8002b30:	bd70      	pop	{r4, r5, r6, pc}
 8002b32:	188e      	adds	r6, r1, r2
 8002b34:	460b      	mov	r3, r1
 8002b36:	2100      	movs	r1, #0
 8002b38:	e7ee      	b.n	8002b18 <usbd_cdc_DataIn+0x28>
 8002b3a:	bf00      	nop
 8002b3c:	20000ad0 	.word	0x20000ad0
 8002b40:	20000ad4 	.word	0x20000ad4
 8002b44:	20000ad8 	.word	0x20000ad8
 8002b48:	20000ae8 	.word	0x20000ae8

08002b4c <VCP_Init>:
 8002b4c:	2000      	movs	r0, #0
 8002b4e:	4770      	bx	lr

08002b50 <VCP_Ctrl>:
 8002b50:	2820      	cmp	r0, #32
 8002b52:	b410      	push	{r4}
 8002b54:	d017      	beq.n	8002b86 <VCP_Ctrl+0x36>
 8002b56:	2821      	cmp	r0, #33	@ 0x21
 8002b58:	d002      	beq.n	8002b60 <VCP_Ctrl+0x10>
 8002b5a:	2000      	movs	r0, #0
 8002b5c:	bc10      	pop	{r4}
 8002b5e:	4770      	bx	lr
 8002b60:	4b10      	ldr	r3, [pc, #64]	@ (8002ba4 <VCP_Ctrl+0x54>)
 8002b62:	bc10      	pop	{r4}
 8002b64:	681a      	ldr	r2, [r3, #0]
 8002b66:	700a      	strb	r2, [r1, #0]
 8002b68:	681a      	ldr	r2, [r3, #0]
 8002b6a:	0a12      	lsrs	r2, r2, #8
 8002b6c:	704a      	strb	r2, [r1, #1]
 8002b6e:	885a      	ldrh	r2, [r3, #2]
 8002b70:	708a      	strb	r2, [r1, #2]
 8002b72:	78da      	ldrb	r2, [r3, #3]
 8002b74:	70ca      	strb	r2, [r1, #3]
 8002b76:	791a      	ldrb	r2, [r3, #4]
 8002b78:	710a      	strb	r2, [r1, #4]
 8002b7a:	795a      	ldrb	r2, [r3, #5]
 8002b7c:	714a      	strb	r2, [r1, #5]
 8002b7e:	799b      	ldrb	r3, [r3, #6]
 8002b80:	718b      	strb	r3, [r1, #6]
 8002b82:	2000      	movs	r0, #0
 8002b84:	4770      	bx	lr
 8002b86:	4b07      	ldr	r3, [pc, #28]	@ (8002ba4 <VCP_Ctrl+0x54>)
 8002b88:	f891 c004 	ldrb.w	ip, [r1, #4]
 8002b8c:	7948      	ldrb	r0, [r1, #5]
 8002b8e:	798a      	ldrb	r2, [r1, #6]
 8002b90:	680c      	ldr	r4, [r1, #0]
 8002b92:	7158      	strb	r0, [r3, #5]
 8002b94:	f883 c004 	strb.w	ip, [r3, #4]
 8002b98:	719a      	strb	r2, [r3, #6]
 8002b9a:	601c      	str	r4, [r3, #0]
 8002b9c:	2000      	movs	r0, #0
 8002b9e:	bc10      	pop	{r4}
 8002ba0:	4770      	bx	lr
 8002ba2:	bf00      	nop
 8002ba4:	2000013c 	.word	0x2000013c

08002ba8 <VCP_DataTx>:
 8002ba8:	b530      	push	{r4, r5, lr}
 8002baa:	b1a1      	cbz	r1, 8002bd6 <VCP_DataTx+0x2e>
 8002bac:	eb00 0e01 	add.w	lr, r0, r1
 8002bb0:	4c0a      	ldr	r4, [pc, #40]	@ (8002bdc <VCP_DataTx+0x34>)
 8002bb2:	490b      	ldr	r1, [pc, #44]	@ (8002be0 <VCP_DataTx+0x38>)
 8002bb4:	3801      	subs	r0, #1
 8002bb6:	f10e 3eff 	add.w	lr, lr, #4294967295	@ 0xffffffff
 8002bba:	2500      	movs	r5, #0
 8002bbc:	680a      	ldr	r2, [r1, #0]
 8002bbe:	f810 cf01 	ldrb.w	ip, [r0, #1]!
 8002bc2:	f804 c002 	strb.w	ip, [r4, r2]
 8002bc6:	1c53      	adds	r3, r2, #1
 8002bc8:	f5b3 6f00 	cmp.w	r3, #2048	@ 0x800
 8002bcc:	bf08      	it	eq
 8002bce:	462b      	moveq	r3, r5
 8002bd0:	4586      	cmp	lr, r0
 8002bd2:	600b      	str	r3, [r1, #0]
 8002bd4:	d1f2      	bne.n	8002bbc <VCP_DataTx+0x14>
 8002bd6:	2000      	movs	r0, #0
 8002bd8:	bd30      	pop	{r4, r5, pc}
 8002bda:	bf00      	nop
 8002bdc:	20000ae8 	.word	0x20000ae8
 8002be0:	20000adc 	.word	0x20000adc

08002be4 <VCP_DataRx>:
 8002be4:	b4f0      	push	{r4, r5, r6, r7}
 8002be6:	b1c9      	cbz	r1, 8002c1c <VCP_DataRx+0x38>
 8002be8:	4b0e      	ldr	r3, [pc, #56]	@ (8002c24 <VCP_DataRx+0x40>)
 8002bea:	4c0f      	ldr	r4, [pc, #60]	@ (8002c28 <VCP_DataRx+0x44>)
 8002bec:	681e      	ldr	r6, [r3, #0]
 8002bee:	4d0f      	ldr	r5, [pc, #60]	@ (8002c2c <VCP_DataRx+0x48>)
 8002bf0:	6823      	ldr	r3, [r4, #0]
 8002bf2:	4401      	add	r1, r0
 8002bf4:	3901      	subs	r1, #1
 8002bf6:	3801      	subs	r0, #1
 8002bf8:	2700      	movs	r7, #0
 8002bfa:	e001      	b.n	8002c00 <VCP_DataRx+0x1c>
 8002bfc:	4288      	cmp	r0, r1
 8002bfe:	d00d      	beq.n	8002c1c <VCP_DataRx+0x38>
 8002c00:	f810 2f01 	ldrb.w	r2, [r0, #1]!
 8002c04:	54ea      	strb	r2, [r5, r3]
 8002c06:	3301      	adds	r3, #1
 8002c08:	2b80      	cmp	r3, #128	@ 0x80
 8002c0a:	bf0a      	itet	eq
 8002c0c:	2300      	moveq	r3, #0
 8002c0e:	6023      	strne	r3, [r4, #0]
 8002c10:	6027      	streq	r7, [r4, #0]
 8002c12:	429e      	cmp	r6, r3
 8002c14:	d1f2      	bne.n	8002bfc <VCP_DataRx+0x18>
 8002c16:	2002      	movs	r0, #2
 8002c18:	bcf0      	pop	{r4, r5, r6, r7}
 8002c1a:	4770      	bx	lr
 8002c1c:	2000      	movs	r0, #0
 8002c1e:	bcf0      	pop	{r4, r5, r6, r7}
 8002c20:	4770      	bx	lr
 8002c22:	bf00      	nop
 8002c24:	2000132c 	.word	0x2000132c
 8002c28:	20001330 	.word	0x20001330
 8002c2c:	20001334 	.word	0x20001334

08002c30 <VCP_DeInit>:
 8002c30:	2000      	movs	r0, #0
 8002c32:	4770      	bx	lr

08002c34 <VCP_putchar>:
 8002c34:	4a06      	ldr	r2, [pc, #24]	@ (8002c50 <VCP_putchar+0x1c>)
 8002c36:	6811      	ldr	r1, [r2, #0]
 8002c38:	b410      	push	{r4}
 8002c3a:	1c4b      	adds	r3, r1, #1
 8002c3c:	4c05      	ldr	r4, [pc, #20]	@ (8002c54 <VCP_putchar+0x20>)
 8002c3e:	f5b3 6f00 	cmp.w	r3, #2048	@ 0x800
 8002c42:	5460      	strb	r0, [r4, r1]
 8002c44:	bf08      	it	eq
 8002c46:	2300      	moveq	r3, #0
 8002c48:	bc10      	pop	{r4}
 8002c4a:	6013      	str	r3, [r2, #0]
 8002c4c:	4770      	bx	lr
 8002c4e:	bf00      	nop
 8002c50:	20000adc 	.word	0x20000adc
 8002c54:	20000ae8 	.word	0x20000ae8

08002c58 <VCP_kbhit>:
 8002c58:	4a03      	ldr	r2, [pc, #12]	@ (8002c68 <VCP_kbhit+0x10>)
 8002c5a:	4b04      	ldr	r3, [pc, #16]	@ (8002c6c <VCP_kbhit+0x14>)
 8002c5c:	6810      	ldr	r0, [r2, #0]
 8002c5e:	681b      	ldr	r3, [r3, #0]
 8002c60:	1ac0      	subs	r0, r0, r3
 8002c62:	bf18      	it	ne
 8002c64:	2001      	movne	r0, #1
 8002c66:	4770      	bx	lr
 8002c68:	20001330 	.word	0x20001330
 8002c6c:	2000132c 	.word	0x2000132c

08002c70 <VCP_getchar>:
 8002c70:	4b0b      	ldr	r3, [pc, #44]	@ (8002ca0 <VCP_getchar+0x30>)
 8002c72:	490c      	ldr	r1, [pc, #48]	@ (8002ca4 <VCP_getchar+0x34>)
 8002c74:	681a      	ldr	r2, [r3, #0]
 8002c76:	6809      	ldr	r1, [r1, #0]
 8002c78:	4291      	cmp	r1, r2
 8002c7a:	d00e      	beq.n	8002c9a <VCP_getchar+0x2a>
 8002c7c:	490a      	ldr	r1, [pc, #40]	@ (8002ca8 <VCP_getchar+0x38>)
 8002c7e:	5c8a      	ldrb	r2, [r1, r2]
 8002c80:	7002      	strb	r2, [r0, #0]
 8002c82:	681a      	ldr	r2, [r3, #0]
 8002c84:	2a7f      	cmp	r2, #127	@ 0x7f
 8002c86:	f102 0101 	add.w	r1, r2, #1
 8002c8a:	d002      	beq.n	8002c92 <VCP_getchar+0x22>
 8002c8c:	6019      	str	r1, [r3, #0]
 8002c8e:	2001      	movs	r0, #1
 8002c90:	4770      	bx	lr
 8002c92:	2200      	movs	r2, #0
 8002c94:	601a      	str	r2, [r3, #0]
 8002c96:	2001      	movs	r0, #1
 8002c98:	4770      	bx	lr
 8002c9a:	2000      	movs	r0, #0
 8002c9c:	4770      	bx	lr
 8002c9e:	bf00      	nop
 8002ca0:	2000132c 	.word	0x2000132c
 8002ca4:	20001330 	.word	0x20001330
 8002ca8:	20001334 	.word	0x20001334

08002cac <USBD_Resume>:
 8002cac:	b510      	push	{r4, lr}
 8002cae:	f8d0 35e4 	ldr.w	r3, [r0, #1508]	@ 0x5e4
 8002cb2:	4604      	mov	r4, r0
 8002cb4:	691b      	ldr	r3, [r3, #16]
 8002cb6:	4798      	blx	r3
 8002cb8:	2303      	movs	r3, #3
 8002cba:	f884 3112 	strb.w	r3, [r4, #274]	@ 0x112
 8002cbe:	2000      	movs	r0, #0
 8002cc0:	bd10      	pop	{r4, pc}
 8002cc2:	bf00      	nop

08002cc4 <USBD_Suspend>:
 8002cc4:	b500      	push	{lr}
 8002cc6:	f8d0 35e4 	ldr.w	r3, [r0, #1508]	@ 0x5e4
 8002cca:	2204      	movs	r2, #4
 8002ccc:	f880 2112 	strb.w	r2, [r0, #274]	@ 0x112
 8002cd0:	68db      	ldr	r3, [r3, #12]
 8002cd2:	4798      	blx	r3
 8002cd4:	2000      	movs	r0, #0
 8002cd6:	f85d fb04 	ldr.w	pc, [sp], #4
 8002cda:	bf00      	nop

08002cdc <USBD_SOF>:
 8002cdc:	f8d0 35e0 	ldr.w	r3, [r0, #1504]	@ 0x5e0
 8002ce0:	69db      	ldr	r3, [r3, #28]
 8002ce2:	b500      	push	{lr}
 8002ce4:	b103      	cbz	r3, 8002ce8 <USBD_SOF+0xc>
 8002ce6:	4798      	blx	r3
 8002ce8:	2000      	movs	r0, #0
 8002cea:	f85d fb04 	ldr.w	pc, [sp], #4
 8002cee:	bf00      	nop

08002cf0 <USBD_IsoINIncomplete>:
 8002cf0:	b500      	push	{lr}
 8002cf2:	f8d0 35e0 	ldr.w	r3, [r0, #1504]	@ 0x5e0
 8002cf6:	6a1b      	ldr	r3, [r3, #32]
 8002cf8:	4798      	blx	r3
 8002cfa:	2000      	movs	r0, #0
 8002cfc:	f85d fb04 	ldr.w	pc, [sp], #4

08002d00 <USBD_IsoOUTIncomplete>:
 8002d00:	b500      	push	{lr}
 8002d02:	f8d0 35e0 	ldr.w	r3, [r0, #1504]	@ 0x5e0
 8002d06:	6a5b      	ldr	r3, [r3, #36]	@ 0x24
 8002d08:	4798      	blx	r3
 8002d0a:	2000      	movs	r0, #0
 8002d0c:	f85d fb04 	ldr.w	pc, [sp], #4

08002d10 <USBD_DevConnected>:
 8002d10:	b500      	push	{lr}
 8002d12:	f8d0 35e4 	ldr.w	r3, [r0, #1508]	@ 0x5e4
 8002d16:	695b      	ldr	r3, [r3, #20]
 8002d18:	4798      	blx	r3
 8002d1a:	2000      	movs	r0, #0
 8002d1c:	f85d fb04 	ldr.w	pc, [sp], #4

08002d20 <USBD_DevDisconnected>:
 8002d20:	f8d0 35e4 	ldr.w	r3, [r0, #1508]	@ 0x5e4
 8002d24:	b510      	push	{r4, lr}
 8002d26:	4604      	mov	r4, r0
 8002d28:	699b      	ldr	r3, [r3, #24]
 8002d2a:	4798      	blx	r3
 8002d2c:	f8d4 35e0 	ldr.w	r3, [r4, #1504]	@ 0x5e0
 8002d30:	2100      	movs	r1, #0
 8002d32:	685b      	ldr	r3, [r3, #4]
 8002d34:	4620      	mov	r0, r4
 8002d36:	4798      	blx	r3
 8002d38:	2000      	movs	r0, #0
 8002d3a:	bd10      	pop	{r4, pc}

08002d3c <USBD_Reset>:
 8002d3c:	2300      	movs	r3, #0
 8002d3e:	b510      	push	{r4, lr}
 8002d40:	4619      	mov	r1, r3
 8002d42:	4604      	mov	r4, r0
 8002d44:	2240      	movs	r2, #64	@ 0x40
 8002d46:	f001 fa9f 	bl	8004288 <DCD_EP_Open>
 8002d4a:	2180      	movs	r1, #128	@ 0x80
 8002d4c:	2300      	movs	r3, #0
 8002d4e:	2240      	movs	r2, #64	@ 0x40
 8002d50:	4620      	mov	r0, r4
 8002d52:	f001 fa99 	bl	8004288 <DCD_EP_Open>
 8002d56:	f8d4 35e4 	ldr.w	r3, [r4, #1508]	@ 0x5e4
 8002d5a:	78a0      	ldrb	r0, [r4, #2]
 8002d5c:	2201      	movs	r2, #1
 8002d5e:	f884 2112 	strb.w	r2, [r4, #274]	@ 0x112
 8002d62:	685b      	ldr	r3, [r3, #4]
 8002d64:	4798      	blx	r3
 8002d66:	2000      	movs	r0, #0
 8002d68:	bd10      	pop	{r4, pc}
 8002d6a:	bf00      	nop

08002d6c <USBD_SetupStage>:
 8002d6c:	b510      	push	{r4, lr}
 8002d6e:	b082      	sub	sp, #8
 8002d70:	4669      	mov	r1, sp
 8002d72:	4604      	mov	r4, r0
 8002d74:	f000 fbae 	bl	80034d4 <USBD_ParseSetupRequest>
 8002d78:	f89d 1000 	ldrb.w	r1, [sp]
 8002d7c:	f001 031f 	and.w	r3, r1, #31
 8002d80:	2b01      	cmp	r3, #1
 8002d82:	d010      	beq.n	8002da6 <USBD_SetupStage+0x3a>
 8002d84:	2b02      	cmp	r3, #2
 8002d86:	d007      	beq.n	8002d98 <USBD_SetupStage+0x2c>
 8002d88:	b9a3      	cbnz	r3, 8002db4 <USBD_SetupStage+0x48>
 8002d8a:	4669      	mov	r1, sp
 8002d8c:	4620      	mov	r0, r4
 8002d8e:	f000 f987 	bl	80030a0 <USBD_StdDevReq>
 8002d92:	2000      	movs	r0, #0
 8002d94:	b002      	add	sp, #8
 8002d96:	bd10      	pop	{r4, pc}
 8002d98:	4669      	mov	r1, sp
 8002d9a:	4620      	mov	r0, r4
 8002d9c:	f000 fb2a 	bl	80033f4 <USBD_StdEPReq>
 8002da0:	2000      	movs	r0, #0
 8002da2:	b002      	add	sp, #8
 8002da4:	bd10      	pop	{r4, pc}
 8002da6:	4669      	mov	r1, sp
 8002da8:	4620      	mov	r0, r4
 8002daa:	f000 faf9 	bl	80033a0 <USBD_StdItfReq>
 8002dae:	2000      	movs	r0, #0
 8002db0:	b002      	add	sp, #8
 8002db2:	bd10      	pop	{r4, pc}
 8002db4:	f001 0180 	and.w	r1, r1, #128	@ 0x80
 8002db8:	4620      	mov	r0, r4
 8002dba:	f001 fb05 	bl	80043c8 <DCD_EP_Stall>
 8002dbe:	2000      	movs	r0, #0
 8002dc0:	b002      	add	sp, #8
 8002dc2:	bd10      	pop	{r4, pc}

08002dc4 <USBD_DataInStage>:
 8002dc4:	f011 01ff 	ands.w	r1, r1, #255	@ 0xff
 8002dc8:	b530      	push	{r4, r5, lr}
 8002dca:	4604      	mov	r4, r0
 8002dcc:	d105      	bne.n	8002dda <USBD_DataInStage+0x16>
 8002dce:	f890 3111 	ldrb.w	r3, [r0, #273]	@ 0x111
 8002dd2:	2b02      	cmp	r3, #2
 8002dd4:	d00d      	beq.n	8002df2 <USBD_DataInStage+0x2e>
 8002dd6:	2000      	movs	r0, #0
 8002dd8:	bd30      	pop	{r4, r5, pc}
 8002dda:	f8d0 35e0 	ldr.w	r3, [r0, #1504]	@ 0x5e0
 8002dde:	695b      	ldr	r3, [r3, #20]
 8002de0:	2b00      	cmp	r3, #0
 8002de2:	d0f8      	beq.n	8002dd6 <USBD_DataInStage+0x12>
 8002de4:	f890 2112 	ldrb.w	r2, [r0, #274]	@ 0x112
 8002de8:	2a03      	cmp	r2, #3
 8002dea:	d1f4      	bne.n	8002dd6 <USBD_DataInStage+0x12>
 8002dec:	4798      	blx	r3
 8002dee:	2000      	movs	r0, #0
 8002df0:	bd30      	pop	{r4, r5, pc}
 8002df2:	f8d0 2134 	ldr.w	r2, [r0, #308]	@ 0x134
 8002df6:	f8d0 3120 	ldr.w	r3, [r0, #288]	@ 0x120
 8002dfa:	429a      	cmp	r2, r3
 8002dfc:	d911      	bls.n	8002e22 <USBD_DataInStage+0x5e>
 8002dfe:	78c0      	ldrb	r0, [r0, #3]
 8002e00:	f8d4 1124 	ldr.w	r1, [r4, #292]	@ 0x124
 8002e04:	2801      	cmp	r0, #1
 8002e06:	eba2 0203 	sub.w	r2, r2, r3
 8002e0a:	bf08      	it	eq
 8002e0c:	18c9      	addeq	r1, r1, r3
 8002e0e:	f8c4 2134 	str.w	r2, [r4, #308]	@ 0x134
 8002e12:	bf08      	it	eq
 8002e14:	f8c4 1124 	streq.w	r1, [r4, #292]	@ 0x124
 8002e18:	b292      	uxth	r2, r2
 8002e1a:	4620      	mov	r0, r4
 8002e1c:	f000 f8fc 	bl	8003018 <USBD_CtlContinueSendData>
 8002e20:	e7d9      	b.n	8002dd6 <USBD_DataInStage+0x12>
 8002e22:	f8d0 2138 	ldr.w	r2, [r0, #312]	@ 0x138
 8002e26:	fbb2 f5f3 	udiv	r5, r2, r3
 8002e2a:	fb03 2515 	mls	r5, r3, r5, r2
 8002e2e:	b965      	cbnz	r5, 8002e4a <USBD_DataInStage+0x86>
 8002e30:	4293      	cmp	r3, r2
 8002e32:	d80a      	bhi.n	8002e4a <USBD_DataInStage+0x86>
 8002e34:	f8d0 313c 	ldr.w	r3, [r0, #316]	@ 0x13c
 8002e38:	429a      	cmp	r2, r3
 8002e3a:	d206      	bcs.n	8002e4a <USBD_DataInStage+0x86>
 8002e3c:	462a      	mov	r2, r5
 8002e3e:	4629      	mov	r1, r5
 8002e40:	f000 f8ea 	bl	8003018 <USBD_CtlContinueSendData>
 8002e44:	f8c4 513c 	str.w	r5, [r4, #316]	@ 0x13c
 8002e48:	e7c5      	b.n	8002dd6 <USBD_DataInStage+0x12>
 8002e4a:	f8d4 35e0 	ldr.w	r3, [r4, #1504]	@ 0x5e0
 8002e4e:	68db      	ldr	r3, [r3, #12]
 8002e50:	b11b      	cbz	r3, 8002e5a <USBD_DataInStage+0x96>
 8002e52:	f894 2112 	ldrb.w	r2, [r4, #274]	@ 0x112
 8002e56:	2a03      	cmp	r2, #3
 8002e58:	d003      	beq.n	8002e62 <USBD_DataInStage+0x9e>
 8002e5a:	4620      	mov	r0, r4
 8002e5c:	f000 f910 	bl	8003080 <USBD_CtlReceiveStatus>
 8002e60:	e7b9      	b.n	8002dd6 <USBD_DataInStage+0x12>
 8002e62:	4620      	mov	r0, r4
 8002e64:	4798      	blx	r3
 8002e66:	e7f8      	b.n	8002e5a <USBD_DataInStage+0x96>

08002e68 <USBD_DataOutStage>:
 8002e68:	f011 01ff 	ands.w	r1, r1, #255	@ 0xff
 8002e6c:	b510      	push	{r4, lr}
 8002e6e:	4604      	mov	r4, r0
 8002e70:	d105      	bne.n	8002e7e <USBD_DataOutStage+0x16>
 8002e72:	f890 3111 	ldrb.w	r3, [r0, #273]	@ 0x111
 8002e76:	2b03      	cmp	r3, #3
 8002e78:	d00d      	beq.n	8002e96 <USBD_DataOutStage+0x2e>
 8002e7a:	2000      	movs	r0, #0
 8002e7c:	bd10      	pop	{r4, pc}
 8002e7e:	f8d0 35e0 	ldr.w	r3, [r0, #1504]	@ 0x5e0
 8002e82:	699b      	ldr	r3, [r3, #24]
 8002e84:	2b00      	cmp	r3, #0
 8002e86:	d0f8      	beq.n	8002e7a <USBD_DataOutStage+0x12>
 8002e88:	f890 2112 	ldrb.w	r2, [r0, #274]	@ 0x112
 8002e8c:	2a03      	cmp	r2, #3
 8002e8e:	d1f4      	bne.n	8002e7a <USBD_DataOutStage+0x12>
 8002e90:	4798      	blx	r3
 8002e92:	2000      	movs	r0, #0
 8002e94:	bd10      	pop	{r4, pc}
 8002e96:	f8d0 338c 	ldr.w	r3, [r0, #908]	@ 0x38c
 8002e9a:	f8d0 2378 	ldr.w	r2, [r0, #888]	@ 0x378
 8002e9e:	4293      	cmp	r3, r2
 8002ea0:	d913      	bls.n	8002eca <USBD_DataOutStage+0x62>
 8002ea2:	78c0      	ldrb	r0, [r0, #3]
 8002ea4:	f8d4 137c 	ldr.w	r1, [r4, #892]	@ 0x37c
 8002ea8:	2801      	cmp	r0, #1
 8002eaa:	eba3 0302 	sub.w	r3, r3, r2
 8002eae:	bf04      	itt	eq
 8002eb0:	1889      	addeq	r1, r1, r2
 8002eb2:	f8c4 137c 	streq.w	r1, [r4, #892]	@ 0x37c
 8002eb6:	429a      	cmp	r2, r3
 8002eb8:	bf28      	it	cs
 8002eba:	461a      	movcs	r2, r3
 8002ebc:	f8c4 338c 	str.w	r3, [r4, #908]	@ 0x38c
 8002ec0:	b292      	uxth	r2, r2
 8002ec2:	4620      	mov	r0, r4
 8002ec4:	f000 f8c2 	bl	800304c <USBD_CtlContinueRx>
 8002ec8:	e7d7      	b.n	8002e7a <USBD_DataOutStage+0x12>
 8002eca:	f8d0 35e0 	ldr.w	r3, [r0, #1504]	@ 0x5e0
 8002ece:	691b      	ldr	r3, [r3, #16]
 8002ed0:	b11b      	cbz	r3, 8002eda <USBD_DataOutStage+0x72>
 8002ed2:	f890 2112 	ldrb.w	r2, [r0, #274]	@ 0x112
 8002ed6:	2a03      	cmp	r2, #3
 8002ed8:	d003      	beq.n	8002ee2 <USBD_DataOutStage+0x7a>
 8002eda:	4620      	mov	r0, r4
 8002edc:	f000 f8c0 	bl	8003060 <USBD_CtlSendStatus>
 8002ee0:	e7cb      	b.n	8002e7a <USBD_DataOutStage+0x12>
 8002ee2:	4798      	blx	r3
 8002ee4:	e7f9      	b.n	8002eda <USBD_DataOutStage+0x72>
 8002ee6:	bf00      	nop

08002ee8 <USBD_Init>:
 8002ee8:	e92d 41f0 	stmdb	sp!, {r4, r5, r6, r7, r8, lr}
 8002eec:	4604      	mov	r4, r0
 8002eee:	4616      	mov	r6, r2
 8002ef0:	461f      	mov	r7, r3
 8002ef2:	f8dd 8018 	ldr.w	r8, [sp, #24]
 8002ef6:	460d      	mov	r5, r1
 8002ef8:	f000 fcba 	bl	8003870 <USB_OTG_BSP_Init>
 8002efc:	4620      	mov	r0, r4
 8002efe:	4629      	mov	r1, r5
 8002f00:	f8c4 75e0 	str.w	r7, [r4, #1504]	@ 0x5e0
 8002f04:	f8c4 85e4 	str.w	r8, [r4, #1508]	@ 0x5e4
 8002f08:	f8c4 65e8 	str.w	r6, [r4, #1512]	@ 0x5e8
 8002f0c:	f001 f972 	bl	80041f4 <DCD_Init>
 8002f10:	f8d4 35e4 	ldr.w	r3, [r4, #1508]	@ 0x5e4
 8002f14:	681b      	ldr	r3, [r3, #0]
 8002f16:	4798      	blx	r3
 8002f18:	4620      	mov	r0, r4
 8002f1a:	e8bd 41f0 	ldmia.w	sp!, {r4, r5, r6, r7, r8, lr}
 8002f1e:	f000 bced 	b.w	80038fc <USB_OTG_BSP_EnableInterrupt>
 8002f22:	bf00      	nop

08002f24 <USBD_SetCfg>:
 8002f24:	f8d0 35e0 	ldr.w	r3, [r0, #1504]	@ 0x5e0
 8002f28:	b510      	push	{r4, lr}
 8002f2a:	4604      	mov	r4, r0
 8002f2c:	b2c9      	uxtb	r1, r1
 8002f2e:	681b      	ldr	r3, [r3, #0]
 8002f30:	4798      	blx	r3
 8002f32:	f8d4 35e4 	ldr.w	r3, [r4, #1508]	@ 0x5e4
 8002f36:	689b      	ldr	r3, [r3, #8]
 8002f38:	4798      	blx	r3
 8002f3a:	2000      	movs	r0, #0
 8002f3c:	bd10      	pop	{r4, pc}
 8002f3e:	bf00      	nop

08002f40 <USBD_ClrCfg>:
 8002f40:	b500      	push	{lr}
 8002f42:	f8d0 35e0 	ldr.w	r3, [r0, #1504]	@ 0x5e0
 8002f46:	b2c9      	uxtb	r1, r1
 8002f48:	685b      	ldr	r3, [r3, #4]
 8002f4a:	4798      	blx	r3
 8002f4c:	2000      	movs	r0, #0
 8002f4e:	f85d fb04 	ldr.w	pc, [sp], #4
 8002f52:	bf00      	nop

08002f54 <USBD_USR_DeviceDescriptor>:
 8002f54:	2312      	movs	r3, #18
 8002f56:	4801      	ldr	r0, [pc, #4]	@ (8002f5c <USBD_USR_DeviceDescriptor+0x8>)
 8002f58:	800b      	strh	r3, [r1, #0]
 8002f5a:	4770      	bx	lr
 8002f5c:	20000178 	.word	0x20000178

08002f60 <USBD_USR_LangIDStrDescriptor>:
 8002f60:	2304      	movs	r3, #4
 8002f62:	4801      	ldr	r0, [pc, #4]	@ (8002f68 <USBD_USR_LangIDStrDescriptor+0x8>)
 8002f64:	800b      	strh	r3, [r1, #0]
 8002f66:	4770      	bx	lr
 8002f68:	20000174 	.word	0x20000174

08002f6c <USBD_USR_ProductStrDescriptor>:
 8002f6c:	b500      	push	{lr}
 8002f6e:	460a      	mov	r2, r1
 8002f70:	4803      	ldr	r0, [pc, #12]	@ (8002f80 <USBD_USR_ProductStrDescriptor+0x14>)
 8002f72:	4904      	ldr	r1, [pc, #16]	@ (8002f84 <USBD_USR_ProductStrDescriptor+0x18>)
 8002f74:	f000 fada 	bl	800352c <USBD_GetString>
 8002f78:	4802      	ldr	r0, [pc, #8]	@ (8002f84 <USBD_USR_ProductStrDescriptor+0x18>)
 8002f7a:	f85d fb04 	ldr.w	pc, [sp], #4
 8002f7e:	bf00      	nop
 8002f80:	08004a9c 	.word	0x08004a9c
 8002f84:	200013b8 	.word	0x200013b8

08002f88 <USBD_USR_ManufacturerStrDescriptor>:
 8002f88:	b500      	push	{lr}
 8002f8a:	460a      	mov	r2, r1
 8002f8c:	4803      	ldr	r0, [pc, #12]	@ (8002f9c <USBD_USR_ManufacturerStrDescriptor+0x14>)
 8002f8e:	4904      	ldr	r1, [pc, #16]	@ (8002fa0 <USBD_USR_ManufacturerStrDescriptor+0x18>)
 8002f90:	f000 facc 	bl	800352c <USBD_GetString>
 8002f94:	4802      	ldr	r0, [pc, #8]	@ (8002fa0 <USBD_USR_ManufacturerStrDescriptor+0x18>)
 8002f96:	f85d fb04 	ldr.w	pc, [sp], #4
 8002f9a:	bf00      	nop
 8002f9c:	08004ab4 	.word	0x08004ab4
 8002fa0:	200013b8 	.word	0x200013b8

08002fa4 <USBD_USR_SerialStrDescriptor>:
 8002fa4:	b500      	push	{lr}
 8002fa6:	460a      	mov	r2, r1
 8002fa8:	4803      	ldr	r0, [pc, #12]	@ (8002fb8 <USBD_USR_SerialStrDescriptor+0x14>)
 8002faa:	4904      	ldr	r1, [pc, #16]	@ (8002fbc <USBD_USR_SerialStrDescriptor+0x18>)
 8002fac:	f000 fabe 	bl	800352c <USBD_GetString>
 8002fb0:	4802      	ldr	r0, [pc, #8]	@ (8002fbc <USBD_USR_SerialStrDescriptor+0x18>)
 8002fb2:	f85d fb04 	ldr.w	pc, [sp], #4
 8002fb6:	bf00      	nop
 8002fb8:	08004ac8 	.word	0x08004ac8
 8002fbc:	200013b8 	.word	0x200013b8

08002fc0 <USBD_USR_ConfigStrDescriptor>:
 8002fc0:	b500      	push	{lr}
 8002fc2:	460a      	mov	r2, r1
 8002fc4:	4803      	ldr	r0, [pc, #12]	@ (8002fd4 <USBD_USR_ConfigStrDescriptor+0x14>)
 8002fc6:	4904      	ldr	r1, [pc, #16]	@ (8002fd8 <USBD_USR_ConfigStrDescriptor+0x18>)
 8002fc8:	f000 fab0 	bl	800352c <USBD_GetString>
 8002fcc:	4802      	ldr	r0, [pc, #8]	@ (8002fd8 <USBD_USR_ConfigStrDescriptor+0x18>)
 8002fce:	f85d fb04 	ldr.w	pc, [sp], #4
 8002fd2:	bf00      	nop
 8002fd4:	08004ad8 	.word	0x08004ad8
 8002fd8:	200013b8 	.word	0x200013b8

08002fdc <USBD_USR_InterfaceStrDescriptor>:
 8002fdc:	b500      	push	{lr}
 8002fde:	460a      	mov	r2, r1
 8002fe0:	4803      	ldr	r0, [pc, #12]	@ (8002ff0 <USBD_USR_InterfaceStrDescriptor+0x14>)
 8002fe2:	4904      	ldr	r1, [pc, #16]	@ (8002ff4 <USBD_USR_InterfaceStrDescriptor+0x18>)
 8002fe4:	f000 faa2 	bl	800352c <USBD_GetString>
 8002fe8:	4802      	ldr	r0, [pc, #8]	@ (8002ff4 <USBD_USR_InterfaceStrDescriptor+0x18>)
 8002fea:	f85d fb04 	ldr.w	pc, [sp], #4
 8002fee:	bf00      	nop
 8002ff0:	08004ae4 	.word	0x08004ae4
 8002ff4:	200013b8 	.word	0x200013b8

08002ff8 <USBD_CtlSendData>:
 8002ff8:	b500      	push	{lr}
 8002ffa:	b293      	uxth	r3, r2
 8002ffc:	460a      	mov	r2, r1
 8002ffe:	2102      	movs	r1, #2
 8003000:	f8c0 3134 	str.w	r3, [r0, #308]	@ 0x134
 8003004:	f8c0 3138 	str.w	r3, [r0, #312]	@ 0x138
 8003008:	f880 1111 	strb.w	r1, [r0, #273]	@ 0x111
 800300c:	2100      	movs	r1, #0
 800300e:	f001 f9b7 	bl	8004380 <DCD_EP_Tx>
 8003012:	2000      	movs	r0, #0
 8003014:	f85d fb04 	ldr.w	pc, [sp], #4

08003018 <USBD_CtlContinueSendData>:
 8003018:	b500      	push	{lr}
 800301a:	b293      	uxth	r3, r2
 800301c:	460a      	mov	r2, r1
 800301e:	2100      	movs	r1, #0
 8003020:	f001 f9ae 	bl	8004380 <DCD_EP_Tx>
 8003024:	2000      	movs	r0, #0
 8003026:	f85d fb04 	ldr.w	pc, [sp], #4
 800302a:	bf00      	nop

0800302c <USBD_CtlPrepareRx>:
 800302c:	b500      	push	{lr}
 800302e:	b293      	uxth	r3, r2
 8003030:	460a      	mov	r2, r1
 8003032:	2103      	movs	r1, #3
 8003034:	f8c0 338c 	str.w	r3, [r0, #908]	@ 0x38c
 8003038:	f8c0 3390 	str.w	r3, [r0, #912]	@ 0x390
 800303c:	f880 1111 	strb.w	r1, [r0, #273]	@ 0x111
 8003040:	2100      	movs	r1, #0
 8003042:	f001 f975 	bl	8004330 <DCD_EP_PrepareRx>
 8003046:	2000      	movs	r0, #0
 8003048:	f85d fb04 	ldr.w	pc, [sp], #4

0800304c <USBD_CtlContinueRx>:
 800304c:	b500      	push	{lr}
 800304e:	b293      	uxth	r3, r2
 8003050:	460a      	mov	r2, r1
 8003052:	2100      	movs	r1, #0
 8003054:	f001 f96c 	bl	8004330 <DCD_EP_PrepareRx>
 8003058:	2000      	movs	r0, #0
 800305a:	f85d fb04 	ldr.w	pc, [sp], #4
 800305e:	bf00      	nop

08003060 <USBD_CtlSendStatus>:
 8003060:	b510      	push	{r4, lr}
 8003062:	2300      	movs	r3, #0
 8003064:	2204      	movs	r2, #4
 8003066:	4604      	mov	r4, r0
 8003068:	4619      	mov	r1, r3
 800306a:	f880 2111 	strb.w	r2, [r0, #273]	@ 0x111
 800306e:	461a      	mov	r2, r3
 8003070:	f001 f986 	bl	8004380 <DCD_EP_Tx>
 8003074:	4620      	mov	r0, r4
 8003076:	f001 f8ad 	bl	80041d4 <USB_OTG_EP0_OutStart>
 800307a:	2000      	movs	r0, #0
 800307c:	bd10      	pop	{r4, pc}
 800307e:	bf00      	nop

08003080 <USBD_CtlReceiveStatus>:
 8003080:	b510      	push	{r4, lr}
 8003082:	2300      	movs	r3, #0
 8003084:	2205      	movs	r2, #5
 8003086:	4604      	mov	r4, r0
 8003088:	4619      	mov	r1, r3
 800308a:	f880 2111 	strb.w	r2, [r0, #273]	@ 0x111
 800308e:	461a      	mov	r2, r3
 8003090:	f001 f94e 	bl	8004330 <DCD_EP_PrepareRx>
 8003094:	4620      	mov	r0, r4
 8003096:	f001 f89d 	bl	80041d4 <USB_OTG_EP0_OutStart>
 800309a:	2000      	movs	r0, #0
 800309c:	bd10      	pop	{r4, pc}
 800309e:	bf00      	nop

080030a0 <USBD_StdDevReq>:
 80030a0:	b570      	push	{r4, r5, r6, lr}
 80030a2:	784b      	ldrb	r3, [r1, #1]
 80030a4:	b082      	sub	sp, #8
 80030a6:	460c      	mov	r4, r1
 80030a8:	4605      	mov	r5, r0
 80030aa:	2b09      	cmp	r3, #9
 80030ac:	d806      	bhi.n	80030bc <USBD_StdDevReq+0x1c>
 80030ae:	e8df f003 	tbb	[pc, r3]
 80030b2:	3524      	.short	0x3524
 80030b4:	63054a05 	.word	0x63054a05
 80030b8:	9115057b 	.word	0x9115057b
 80030bc:	f994 3000 	ldrsb.w	r3, [r4]
 80030c0:	2b00      	cmp	r3, #0
 80030c2:	db01      	blt.n	80030c8 <USBD_StdDevReq+0x28>
 80030c4:	88e3      	ldrh	r3, [r4, #6]
 80030c6:	b99b      	cbnz	r3, 80030f0 <USBD_StdDevReq+0x50>
 80030c8:	2180      	movs	r1, #128	@ 0x80
 80030ca:	4628      	mov	r0, r5
 80030cc:	f001 f97c 	bl	80043c8 <DCD_EP_Stall>
 80030d0:	4628      	mov	r0, r5
 80030d2:	f001 f87f 	bl	80041d4 <USB_OTG_EP0_OutStart>
 80030d6:	2000      	movs	r0, #0
 80030d8:	b002      	add	sp, #8
 80030da:	bd70      	pop	{r4, r5, r6, pc}
 80030dc:	88ca      	ldrh	r2, [r1, #6]
 80030de:	2a01      	cmp	r2, #1
 80030e0:	f000 8098 	beq.w	8003214 <USBD_StdDevReq+0x174>
 80030e4:	f991 3000 	ldrsb.w	r3, [r1]
 80030e8:	2b00      	cmp	r3, #0
 80030ea:	dbed      	blt.n	80030c8 <USBD_StdDevReq+0x28>
 80030ec:	2a00      	cmp	r2, #0
 80030ee:	d0eb      	beq.n	80030c8 <USBD_StdDevReq+0x28>
 80030f0:	2100      	movs	r1, #0
 80030f2:	4628      	mov	r0, r5
 80030f4:	f001 f968 	bl	80043c8 <DCD_EP_Stall>
 80030f8:	e7ea      	b.n	80030d0 <USBD_StdDevReq+0x30>
 80030fa:	f890 3112 	ldrb.w	r3, [r0, #274]	@ 0x112
 80030fe:	3b02      	subs	r3, #2
 8003100:	2b01      	cmp	r3, #1
 8003102:	d8db      	bhi.n	80030bc <USBD_StdDevReq+0x1c>
 8003104:	f8d0 3114 	ldr.w	r3, [r0, #276]	@ 0x114
 8003108:	49a2      	ldr	r1, [pc, #648]	@ (8003394 <USBD_StdDevReq+0x2f4>)
 800310a:	2b00      	cmp	r3, #0
 800310c:	bf0c      	ite	eq
 800310e:	2301      	moveq	r3, #1
 8003110:	2303      	movne	r3, #3
 8003112:	2201      	movs	r2, #1
 8003114:	600b      	str	r3, [r1, #0]
 8003116:	f7ff ff6f 	bl	8002ff8 <USBD_CtlSendData>
 800311a:	e7dc      	b.n	80030d6 <USBD_StdDevReq+0x36>
 800311c:	f890 3112 	ldrb.w	r3, [r0, #274]	@ 0x112
 8003120:	3b02      	subs	r3, #2
 8003122:	2b01      	cmp	r3, #1
 8003124:	d8ca      	bhi.n	80030bc <USBD_StdDevReq+0x1c>
 8003126:	884b      	ldrh	r3, [r1, #2]
 8003128:	2b01      	cmp	r3, #1
 800312a:	d1d4      	bne.n	80030d6 <USBD_StdDevReq+0x36>
 800312c:	f8d0 35e0 	ldr.w	r3, [r0, #1504]	@ 0x5e0
 8003130:	2200      	movs	r2, #0
 8003132:	689b      	ldr	r3, [r3, #8]
 8003134:	f8c0 2114 	str.w	r2, [r0, #276]	@ 0x114
 8003138:	4621      	mov	r1, r4
 800313a:	4628      	mov	r0, r5
 800313c:	4798      	blx	r3
 800313e:	4628      	mov	r0, r5
 8003140:	f7ff ff8e 	bl	8003060 <USBD_CtlSendStatus>
 8003144:	e7c7      	b.n	80030d6 <USBD_StdDevReq+0x36>
 8003146:	884b      	ldrh	r3, [r1, #2]
 8003148:	2b01      	cmp	r3, #1
 800314a:	f000 810a 	beq.w	8003362 <USBD_StdDevReq+0x2c2>
 800314e:	2b02      	cmp	r3, #2
 8003150:	d1c1      	bne.n	80030d6 <USBD_StdDevReq+0x36>
 8003152:	888b      	ldrh	r3, [r1, #4]
 8003154:	b2da      	uxtb	r2, r3
 8003156:	2a00      	cmp	r2, #0
 8003158:	d1bd      	bne.n	80030d6 <USBD_StdDevReq+0x36>
 800315a:	6901      	ldr	r1, [r0, #16]
 800315c:	0a1b      	lsrs	r3, r3, #8
 800315e:	684a      	ldr	r2, [r1, #4]
 8003160:	3b01      	subs	r3, #1
 8003162:	4610      	mov	r0, r2
 8003164:	2b04      	cmp	r3, #4
 8003166:	f200 80e3 	bhi.w	8003330 <USBD_StdDevReq+0x290>
 800316a:	e8df f013 	tbh	[pc, r3, lsl #1]
 800316e:	00f0      	.short	0x00f0
 8003170:	00eb00f5 	.word	0x00eb00f5
 8003174:	00dd00e6 	.word	0x00dd00e6
 8003178:	684b      	ldr	r3, [r1, #4]
 800317a:	2b00      	cmp	r3, #0
 800317c:	d19e      	bne.n	80030bc <USBD_StdDevReq+0x1c>
 800317e:	f890 3112 	ldrb.w	r3, [r0, #274]	@ 0x112
 8003182:	2b03      	cmp	r3, #3
 8003184:	d09a      	beq.n	80030bc <USBD_StdDevReq+0x1c>
 8003186:	884c      	ldrh	r4, [r1, #2]
 8003188:	f004 047f 	and.w	r4, r4, #127	@ 0x7f
 800318c:	f880 4113 	strb.w	r4, [r0, #275]	@ 0x113
 8003190:	4621      	mov	r1, r4
 8003192:	f001 f955 	bl	8004440 <DCD_EP_SetAddress>
 8003196:	4628      	mov	r0, r5
 8003198:	f7ff ff62 	bl	8003060 <USBD_CtlSendStatus>
 800319c:	2c00      	cmp	r4, #0
 800319e:	d046      	beq.n	800322e <USBD_StdDevReq+0x18e>
 80031a0:	2302      	movs	r3, #2
 80031a2:	f885 3112 	strb.w	r3, [r5, #274]	@ 0x112
 80031a6:	e796      	b.n	80030d6 <USBD_StdDevReq+0x36>
 80031a8:	884a      	ldrh	r2, [r1, #2]
 80031aa:	0a13      	lsrs	r3, r2, #8
 80031ac:	3b01      	subs	r3, #1
 80031ae:	2b06      	cmp	r3, #6
 80031b0:	d884      	bhi.n	80030bc <USBD_StdDevReq+0x1c>
 80031b2:	a101      	add	r1, pc, #4	@ (adr r1, 80031b8 <USBD_StdDevReq+0x118>)
 80031b4:	f851 f023 	ldr.w	pc, [r1, r3, lsl #2]
 80031b8:	080032a9 	.word	0x080032a9
 80031bc:	0800326d 	.word	0x0800326d
 80031c0:	0800325b 	.word	0x0800325b
 80031c4:	080030bd 	.word	0x080030bd
 80031c8:	080030bd 	.word	0x080030bd
 80031cc:	080030bd 	.word	0x080030bd
 80031d0:	080030bd 	.word	0x080030bd
 80031d4:	7889      	ldrb	r1, [r1, #2]
 80031d6:	4e70      	ldr	r6, [pc, #448]	@ (8003398 <USBD_StdDevReq+0x2f8>)
 80031d8:	2901      	cmp	r1, #1
 80031da:	7031      	strb	r1, [r6, #0]
 80031dc:	f63f af6e 	bhi.w	80030bc <USBD_StdDevReq+0x1c>
 80031e0:	f890 3112 	ldrb.w	r3, [r0, #274]	@ 0x112
 80031e4:	2b02      	cmp	r3, #2
 80031e6:	d026      	beq.n	8003236 <USBD_StdDevReq+0x196>
 80031e8:	2b03      	cmp	r3, #3
 80031ea:	f47f af67 	bne.w	80030bc <USBD_StdDevReq+0x1c>
 80031ee:	2900      	cmp	r1, #0
 80031f0:	f000 80c2 	beq.w	8003378 <USBD_StdDevReq+0x2d8>
 80031f4:	f890 1110 	ldrb.w	r1, [r0, #272]	@ 0x110
 80031f8:	2901      	cmp	r1, #1
 80031fa:	d007      	beq.n	800320c <USBD_StdDevReq+0x16c>
 80031fc:	f7ff fea0 	bl	8002f40 <USBD_ClrCfg>
 8003200:	7831      	ldrb	r1, [r6, #0]
 8003202:	f885 1110 	strb.w	r1, [r5, #272]	@ 0x110
 8003206:	4628      	mov	r0, r5
 8003208:	f7ff fe8c 	bl	8002f24 <USBD_SetCfg>
 800320c:	4628      	mov	r0, r5
 800320e:	f7ff ff27 	bl	8003060 <USBD_CtlSendStatus>
 8003212:	e760      	b.n	80030d6 <USBD_StdDevReq+0x36>
 8003214:	f890 3112 	ldrb.w	r3, [r0, #274]	@ 0x112
 8003218:	2b02      	cmp	r3, #2
 800321a:	d01a      	beq.n	8003252 <USBD_StdDevReq+0x1b2>
 800321c:	2b03      	cmp	r3, #3
 800321e:	f000 80a6 	beq.w	800336e <USBD_StdDevReq+0x2ce>
 8003222:	f991 3000 	ldrsb.w	r3, [r1]
 8003226:	2b00      	cmp	r3, #0
 8003228:	f6bf af62 	bge.w	80030f0 <USBD_StdDevReq+0x50>
 800322c:	e74c      	b.n	80030c8 <USBD_StdDevReq+0x28>
 800322e:	2301      	movs	r3, #1
 8003230:	f885 3112 	strb.w	r3, [r5, #274]	@ 0x112
 8003234:	e74f      	b.n	80030d6 <USBD_StdDevReq+0x36>
 8003236:	2900      	cmp	r1, #0
 8003238:	d0e8      	beq.n	800320c <USBD_StdDevReq+0x16c>
 800323a:	2101      	movs	r1, #1
 800323c:	2303      	movs	r3, #3
 800323e:	f880 1110 	strb.w	r1, [r0, #272]	@ 0x110
 8003242:	f880 3112 	strb.w	r3, [r0, #274]	@ 0x112
 8003246:	f7ff fe6d 	bl	8002f24 <USBD_SetCfg>
 800324a:	4628      	mov	r0, r5
 800324c:	f7ff ff08 	bl	8003060 <USBD_CtlSendStatus>
 8003250:	e741      	b.n	80030d6 <USBD_StdDevReq+0x36>
 8003252:	4952      	ldr	r1, [pc, #328]	@ (800339c <USBD_StdDevReq+0x2fc>)
 8003254:	f7ff fed0 	bl	8002ff8 <USBD_CtlSendData>
 8003258:	e73d      	b.n	80030d6 <USBD_StdDevReq+0x36>
 800325a:	b2d2      	uxtb	r2, r2
 800325c:	2a05      	cmp	r2, #5
 800325e:	f63f af2d 	bhi.w	80030bc <USBD_StdDevReq+0x1c>
 8003262:	e8df f002 	tbb	[pc, r2]
 8003266:	4149      	.short	0x4149
 8003268:	51593139 	.word	0x51593139
 800326c:	f8d0 35e0 	ldr.w	r3, [r0, #1504]	@ 0x5e0
 8003270:	7880      	ldrb	r0, [r0, #2]
 8003272:	6a9b      	ldr	r3, [r3, #40]	@ 0x28
 8003274:	f10d 0106 	add.w	r1, sp, #6
 8003278:	4798      	blx	r3
 800327a:	2302      	movs	r3, #2
 800327c:	7043      	strb	r3, [r0, #1]
 800327e:	f8c5 05ec 	str.w	r0, [r5, #1516]	@ 0x5ec
 8003282:	f8bd 3006 	ldrh.w	r3, [sp, #6]
 8003286:	2b00      	cmp	r3, #0
 8003288:	f43f af25 	beq.w	80030d6 <USBD_StdDevReq+0x36>
 800328c:	88e2      	ldrh	r2, [r4, #6]
 800328e:	2a00      	cmp	r2, #0
 8003290:	f43f af21 	beq.w	80030d6 <USBD_StdDevReq+0x36>
 8003294:	429a      	cmp	r2, r3
 8003296:	bf28      	it	cs
 8003298:	461a      	movcs	r2, r3
 800329a:	4601      	mov	r1, r0
 800329c:	4628      	mov	r0, r5
 800329e:	f8ad 2006 	strh.w	r2, [sp, #6]
 80032a2:	f7ff fea9 	bl	8002ff8 <USBD_CtlSendData>
 80032a6:	e716      	b.n	80030d6 <USBD_StdDevReq+0x36>
 80032a8:	f8d0 35e8 	ldr.w	r3, [r0, #1512]	@ 0x5e8
 80032ac:	7880      	ldrb	r0, [r0, #2]
 80032ae:	681b      	ldr	r3, [r3, #0]
 80032b0:	f10d 0106 	add.w	r1, sp, #6
 80032b4:	4798      	blx	r3
 80032b6:	88e2      	ldrh	r2, [r4, #6]
 80032b8:	2a40      	cmp	r2, #64	@ 0x40
 80032ba:	d068      	beq.n	800338e <USBD_StdDevReq+0x2ee>
 80032bc:	f895 3112 	ldrb.w	r3, [r5, #274]	@ 0x112
 80032c0:	2b01      	cmp	r3, #1
 80032c2:	d1de      	bne.n	8003282 <USBD_StdDevReq+0x1e2>
 80032c4:	2308      	movs	r3, #8
 80032c6:	e7e2      	b.n	800328e <USBD_StdDevReq+0x1ee>
 80032c8:	f8d0 35e8 	ldr.w	r3, [r0, #1512]	@ 0x5e8
 80032cc:	7880      	ldrb	r0, [r0, #2]
 80032ce:	691b      	ldr	r3, [r3, #16]
 80032d0:	f10d 0106 	add.w	r1, sp, #6
 80032d4:	4798      	blx	r3
 80032d6:	e7d4      	b.n	8003282 <USBD_StdDevReq+0x1e2>
 80032d8:	f8d0 35e8 	ldr.w	r3, [r0, #1512]	@ 0x5e8
 80032dc:	7880      	ldrb	r0, [r0, #2]
 80032de:	68db      	ldr	r3, [r3, #12]
 80032e0:	f10d 0106 	add.w	r1, sp, #6
 80032e4:	4798      	blx	r3
 80032e6:	e7cc      	b.n	8003282 <USBD_StdDevReq+0x1e2>
 80032e8:	f8d0 35e8 	ldr.w	r3, [r0, #1512]	@ 0x5e8
 80032ec:	7880      	ldrb	r0, [r0, #2]
 80032ee:	689b      	ldr	r3, [r3, #8]
 80032f0:	f10d 0106 	add.w	r1, sp, #6
 80032f4:	4798      	blx	r3
 80032f6:	e7c4      	b.n	8003282 <USBD_StdDevReq+0x1e2>
 80032f8:	f8d0 35e8 	ldr.w	r3, [r0, #1512]	@ 0x5e8
 80032fc:	7880      	ldrb	r0, [r0, #2]
 80032fe:	685b      	ldr	r3, [r3, #4]
 8003300:	f10d 0106 	add.w	r1, sp, #6
 8003304:	4798      	blx	r3
 8003306:	e7bc      	b.n	8003282 <USBD_StdDevReq+0x1e2>
 8003308:	f8d0 35e8 	ldr.w	r3, [r0, #1512]	@ 0x5e8
 800330c:	7880      	ldrb	r0, [r0, #2]
 800330e:	699b      	ldr	r3, [r3, #24]
 8003310:	f10d 0106 	add.w	r1, sp, #6
 8003314:	4798      	blx	r3
 8003316:	e7b4      	b.n	8003282 <USBD_StdDevReq+0x1e2>
 8003318:	f8d0 35e8 	ldr.w	r3, [r0, #1512]	@ 0x5e8
 800331c:	7880      	ldrb	r0, [r0, #2]
 800331e:	695b      	ldr	r3, [r3, #20]
 8003320:	f10d 0106 	add.w	r1, sp, #6
 8003324:	4798      	blx	r3
 8003326:	e7ac      	b.n	8003282 <USBD_StdDevReq+0x1e2>
 8003328:	2305      	movs	r3, #5
 800332a:	f363 1006 	bfi	r0, r3, #4, #3
 800332e:	4602      	mov	r2, r0
 8003330:	604a      	str	r2, [r1, #4]
 8003332:	4628      	mov	r0, r5
 8003334:	f7ff fe94 	bl	8003060 <USBD_CtlSendStatus>
 8003338:	e6cd      	b.n	80030d6 <USBD_StdDevReq+0x36>
 800333a:	2304      	movs	r3, #4
 800333c:	f363 1006 	bfi	r0, r3, #4, #3
 8003340:	4602      	mov	r2, r0
 8003342:	e7f5      	b.n	8003330 <USBD_StdDevReq+0x290>
 8003344:	2303      	movs	r3, #3
 8003346:	f363 1006 	bfi	r0, r3, #4, #3
 800334a:	4602      	mov	r2, r0
 800334c:	e7f0      	b.n	8003330 <USBD_StdDevReq+0x290>
 800334e:	2301      	movs	r3, #1
 8003350:	f363 1006 	bfi	r0, r3, #4, #3
 8003354:	4602      	mov	r2, r0
 8003356:	e7eb      	b.n	8003330 <USBD_StdDevReq+0x290>
 8003358:	2302      	movs	r3, #2
 800335a:	f363 1006 	bfi	r0, r3, #4, #3
 800335e:	4602      	mov	r2, r0
 8003360:	e7e6      	b.n	8003330 <USBD_StdDevReq+0x290>
 8003362:	f8d0 25e0 	ldr.w	r2, [r0, #1504]	@ 0x5e0
 8003366:	f8c0 3114 	str.w	r3, [r0, #276]	@ 0x114
 800336a:	6893      	ldr	r3, [r2, #8]
 800336c:	e6e4      	b.n	8003138 <USBD_StdDevReq+0x98>
 800336e:	f500 7188 	add.w	r1, r0, #272	@ 0x110
 8003372:	f7ff fe41 	bl	8002ff8 <USBD_CtlSendData>
 8003376:	e6ae      	b.n	80030d6 <USBD_StdDevReq+0x36>
 8003378:	2302      	movs	r3, #2
 800337a:	f880 3112 	strb.w	r3, [r0, #274]	@ 0x112
 800337e:	f880 1110 	strb.w	r1, [r0, #272]	@ 0x110
 8003382:	f7ff fddd 	bl	8002f40 <USBD_ClrCfg>
 8003386:	4628      	mov	r0, r5
 8003388:	f7ff fe6a 	bl	8003060 <USBD_CtlSendStatus>
 800338c:	e6a3      	b.n	80030d6 <USBD_StdDevReq+0x36>
 800338e:	2308      	movs	r3, #8
 8003390:	e780      	b.n	8003294 <USBD_StdDevReq+0x1f4>
 8003392:	bf00      	nop
 8003394:	200013ec 	.word	0x200013ec
 8003398:	200013b4 	.word	0x200013b4
 800339c:	200013f0 	.word	0x200013f0

080033a0 <USBD_StdItfReq>:
 80033a0:	b530      	push	{r4, r5, lr}
 80033a2:	f890 3112 	ldrb.w	r3, [r0, #274]	@ 0x112
 80033a6:	2b03      	cmp	r3, #3
 80033a8:	4604      	mov	r4, r0
 80033aa:	460d      	mov	r5, r1
 80033ac:	d10a      	bne.n	80033c4 <USBD_StdItfReq+0x24>
 80033ae:	790b      	ldrb	r3, [r1, #4]
 80033b0:	2b01      	cmp	r3, #1
 80033b2:	d807      	bhi.n	80033c4 <USBD_StdItfReq+0x24>
 80033b4:	f8d0 35e0 	ldr.w	r3, [r0, #1504]	@ 0x5e0
 80033b8:	689b      	ldr	r3, [r3, #8]
 80033ba:	4798      	blx	r3
 80033bc:	88eb      	ldrh	r3, [r5, #6]
 80033be:	b1ab      	cbz	r3, 80033ec <USBD_StdItfReq+0x4c>
 80033c0:	2000      	movs	r0, #0
 80033c2:	bd30      	pop	{r4, r5, pc}
 80033c4:	f995 3000 	ldrsb.w	r3, [r5]
 80033c8:	2b00      	cmp	r3, #0
 80033ca:	db01      	blt.n	80033d0 <USBD_StdItfReq+0x30>
 80033cc:	88eb      	ldrh	r3, [r5, #6]
 80033ce:	b943      	cbnz	r3, 80033e2 <USBD_StdItfReq+0x42>
 80033d0:	2180      	movs	r1, #128	@ 0x80
 80033d2:	4620      	mov	r0, r4
 80033d4:	f000 fff8 	bl	80043c8 <DCD_EP_Stall>
 80033d8:	4620      	mov	r0, r4
 80033da:	f000 fefb 	bl	80041d4 <USB_OTG_EP0_OutStart>
 80033de:	2000      	movs	r0, #0
 80033e0:	bd30      	pop	{r4, r5, pc}
 80033e2:	2100      	movs	r1, #0
 80033e4:	4620      	mov	r0, r4
 80033e6:	f000 ffef 	bl	80043c8 <DCD_EP_Stall>
 80033ea:	e7f5      	b.n	80033d8 <USBD_StdItfReq+0x38>
 80033ec:	4620      	mov	r0, r4
 80033ee:	f7ff fe37 	bl	8003060 <USBD_CtlSendStatus>
 80033f2:	e7e5      	b.n	80033c0 <USBD_StdItfReq+0x20>

080033f4 <USBD_StdEPReq>:
 80033f4:	b530      	push	{r4, r5, lr}
 80033f6:	460c      	mov	r4, r1
 80033f8:	888a      	ldrh	r2, [r1, #4]
 80033fa:	7863      	ldrb	r3, [r4, #1]
 80033fc:	2b01      	cmp	r3, #1
 80033fe:	4605      	mov	r5, r0
 8003400:	b2d1      	uxtb	r1, r2
 8003402:	d032      	beq.n	800346a <USBD_StdEPReq+0x76>
 8003404:	2b03      	cmp	r3, #3
 8003406:	d019      	beq.n	800343c <USBD_StdEPReq+0x48>
 8003408:	b9b3      	cbnz	r3, 8003438 <USBD_StdEPReq+0x44>
 800340a:	f890 3112 	ldrb.w	r3, [r0, #274]	@ 0x112
 800340e:	2b02      	cmp	r3, #2
 8003410:	d02f      	beq.n	8003472 <USBD_StdEPReq+0x7e>
 8003412:	2b03      	cmp	r3, #3
 8003414:	d13c      	bne.n	8003490 <USBD_StdEPReq+0x9c>
 8003416:	0613      	lsls	r3, r2, #24
 8003418:	d44e      	bmi.n	80034b8 <USBD_StdEPReq+0xc4>
 800341a:	eb01 0181 	add.w	r1, r1, r1, lsl #2
 800341e:	eb00 01c1 	add.w	r1, r0, r1, lsl #3
 8003422:	f891 3372 	ldrb.w	r3, [r1, #882]	@ 0x372
 8003426:	3b00      	subs	r3, #0
 8003428:	bf18      	it	ne
 800342a:	2301      	movne	r3, #1
 800342c:	4928      	ldr	r1, [pc, #160]	@ (80034d0 <USBD_StdEPReq+0xdc>)
 800342e:	2202      	movs	r2, #2
 8003430:	4628      	mov	r0, r5
 8003432:	600b      	str	r3, [r1, #0]
 8003434:	f7ff fde0 	bl	8002ff8 <USBD_CtlSendData>
 8003438:	2000      	movs	r0, #0
 800343a:	bd30      	pop	{r4, r5, pc}
 800343c:	f890 3112 	ldrb.w	r3, [r0, #274]	@ 0x112
 8003440:	2b02      	cmp	r3, #2
 8003442:	d016      	beq.n	8003472 <USBD_StdEPReq+0x7e>
 8003444:	2b03      	cmp	r3, #3
 8003446:	d123      	bne.n	8003490 <USBD_StdEPReq+0x9c>
 8003448:	8863      	ldrh	r3, [r4, #2]
 800344a:	b91b      	cbnz	r3, 8003454 <USBD_StdEPReq+0x60>
 800344c:	064a      	lsls	r2, r1, #25
 800344e:	d001      	beq.n	8003454 <USBD_StdEPReq+0x60>
 8003450:	f000 ffba 	bl	80043c8 <DCD_EP_Stall>
 8003454:	f8d5 35e0 	ldr.w	r3, [r5, #1504]	@ 0x5e0
 8003458:	4621      	mov	r1, r4
 800345a:	689b      	ldr	r3, [r3, #8]
 800345c:	4628      	mov	r0, r5
 800345e:	4798      	blx	r3
 8003460:	4628      	mov	r0, r5
 8003462:	f7ff fdfd 	bl	8003060 <USBD_CtlSendStatus>
 8003466:	2000      	movs	r0, #0
 8003468:	bd30      	pop	{r4, r5, pc}
 800346a:	f890 3112 	ldrb.w	r3, [r0, #274]	@ 0x112
 800346e:	2b02      	cmp	r3, #2
 8003470:	d104      	bne.n	800347c <USBD_StdEPReq+0x88>
 8003472:	064a      	lsls	r2, r1, #25
 8003474:	d0e0      	beq.n	8003438 <USBD_StdEPReq+0x44>
 8003476:	f000 ffa7 	bl	80043c8 <DCD_EP_Stall>
 800347a:	e7dd      	b.n	8003438 <USBD_StdEPReq+0x44>
 800347c:	2b03      	cmp	r3, #3
 800347e:	d107      	bne.n	8003490 <USBD_StdEPReq+0x9c>
 8003480:	8863      	ldrh	r3, [r4, #2]
 8003482:	2b00      	cmp	r3, #0
 8003484:	d1d8      	bne.n	8003438 <USBD_StdEPReq+0x44>
 8003486:	064b      	lsls	r3, r1, #25
 8003488:	d0ea      	beq.n	8003460 <USBD_StdEPReq+0x6c>
 800348a:	f000 ffbd 	bl	8004408 <DCD_EP_ClrStall>
 800348e:	e7e1      	b.n	8003454 <USBD_StdEPReq+0x60>
 8003490:	f994 3000 	ldrsb.w	r3, [r4]
 8003494:	2b00      	cmp	r3, #0
 8003496:	db0a      	blt.n	80034ae <USBD_StdEPReq+0xba>
 8003498:	88e3      	ldrh	r3, [r4, #6]
 800349a:	b143      	cbz	r3, 80034ae <USBD_StdEPReq+0xba>
 800349c:	2100      	movs	r1, #0
 800349e:	4628      	mov	r0, r5
 80034a0:	f000 ff92 	bl	80043c8 <DCD_EP_Stall>
 80034a4:	4628      	mov	r0, r5
 80034a6:	f000 fe95 	bl	80041d4 <USB_OTG_EP0_OutStart>
 80034aa:	2000      	movs	r0, #0
 80034ac:	bd30      	pop	{r4, r5, pc}
 80034ae:	2180      	movs	r1, #128	@ 0x80
 80034b0:	4628      	mov	r0, r5
 80034b2:	f000 ff89 	bl	80043c8 <DCD_EP_Stall>
 80034b6:	e7f5      	b.n	80034a4 <USBD_StdEPReq+0xb0>
 80034b8:	f001 017f 	and.w	r1, r1, #127	@ 0x7f
 80034bc:	eb01 0181 	add.w	r1, r1, r1, lsl #2
 80034c0:	eb00 01c1 	add.w	r1, r0, r1, lsl #3
 80034c4:	f891 311a 	ldrb.w	r3, [r1, #282]	@ 0x11a
 80034c8:	3b00      	subs	r3, #0
 80034ca:	bf18      	it	ne
 80034cc:	2301      	movne	r3, #1
 80034ce:	e7ad      	b.n	800342c <USBD_StdEPReq+0x38>
 80034d0:	200013f4 	.word	0x200013f4

080034d4 <USBD_ParseSetupRequest>:
 80034d4:	f8b0 35c8 	ldrh.w	r3, [r0, #1480]	@ 0x5c8
 80034d8:	800b      	strh	r3, [r1, #0]
 80034da:	f8b0 35ca 	ldrh.w	r3, [r0, #1482]	@ 0x5ca
 80034de:	804b      	strh	r3, [r1, #2]
 80034e0:	f8b0 35cc 	ldrh.w	r3, [r0, #1484]	@ 0x5cc
 80034e4:	808b      	strh	r3, [r1, #4]
 80034e6:	f8b0 35ce 	ldrh.w	r3, [r0, #1486]	@ 0x5ce
 80034ea:	80cb      	strh	r3, [r1, #6]
 80034ec:	2201      	movs	r2, #1
 80034ee:	f8c0 313c 	str.w	r3, [r0, #316]	@ 0x13c
 80034f2:	f880 2111 	strb.w	r2, [r0, #273]	@ 0x111
 80034f6:	4770      	bx	lr

080034f8 <USBD_CtlError>:
 80034f8:	b510      	push	{r4, lr}
 80034fa:	f991 3000 	ldrsb.w	r3, [r1]
 80034fe:	2b00      	cmp	r3, #0
 8003500:	4604      	mov	r4, r0
 8003502:	db01      	blt.n	8003508 <USBD_CtlError+0x10>
 8003504:	88cb      	ldrh	r3, [r1, #6]
 8003506:	b943      	cbnz	r3, 800351a <USBD_CtlError+0x22>
 8003508:	4620      	mov	r0, r4
 800350a:	2180      	movs	r1, #128	@ 0x80
 800350c:	f000 ff5c 	bl	80043c8 <DCD_EP_Stall>
 8003510:	4620      	mov	r0, r4
 8003512:	e8bd 4010 	ldmia.w	sp!, {r4, lr}
 8003516:	f000 be5d 	b.w	80041d4 <USB_OTG_EP0_OutStart>
 800351a:	2100      	movs	r1, #0
 800351c:	f000 ff54 	bl	80043c8 <DCD_EP_Stall>
 8003520:	4620      	mov	r0, r4
 8003522:	e8bd 4010 	ldmia.w	sp!, {r4, lr}
 8003526:	f000 be55 	b.w	80041d4 <USB_OTG_EP0_OutStart>
 800352a:	bf00      	nop

0800352c <USBD_GetString>:
 800352c:	b430      	push	{r4, r5}
 800352e:	b300      	cbz	r0, 8003572 <USBD_GetString+0x46>
 8003530:	7803      	ldrb	r3, [r0, #0]
 8003532:	b303      	cbz	r3, 8003576 <USBD_GetString+0x4a>
 8003534:	4603      	mov	r3, r0
 8003536:	461c      	mov	r4, r3
 8003538:	f813 5f01 	ldrb.w	r5, [r3, #1]!
 800353c:	2d00      	cmp	r5, #0
 800353e:	d1fa      	bne.n	8003536 <USBD_GetString+0xa>
 8003540:	f1c0 0301 	rsb	r3, r0, #1
 8003544:	4423      	add	r3, r4
 8003546:	b2db      	uxtb	r3, r3
 8003548:	3301      	adds	r3, #1
 800354a:	005b      	lsls	r3, r3, #1
 800354c:	b2dc      	uxtb	r4, r3
 800354e:	8013      	strh	r3, [r2, #0]
 8003550:	2303      	movs	r3, #3
 8003552:	700c      	strb	r4, [r1, #0]
 8003554:	704b      	strb	r3, [r1, #1]
 8003556:	7804      	ldrb	r4, [r0, #0]
 8003558:	b15c      	cbz	r4, 8003572 <USBD_GetString+0x46>
 800355a:	2302      	movs	r3, #2
 800355c:	2500      	movs	r5, #0
 800355e:	1c5a      	adds	r2, r3, #1
 8003560:	b2d2      	uxtb	r2, r2
 8003562:	54cc      	strb	r4, [r1, r3]
 8003564:	548d      	strb	r5, [r1, r2]
 8003566:	f810 4f01 	ldrb.w	r4, [r0, #1]!
 800356a:	3302      	adds	r3, #2
 800356c:	b2db      	uxtb	r3, r3
 800356e:	2c00      	cmp	r4, #0
 8003570:	d1f5      	bne.n	800355e <USBD_GetString+0x32>
 8003572:	bc30      	pop	{r4, r5}
 8003574:	4770      	bx	lr
 8003576:	2402      	movs	r4, #2
 8003578:	4623      	mov	r3, r4
 800357a:	e7e8      	b.n	800354e <USBD_GetString+0x22>

0800357c <USBD_USR_Init>:
 800357c:	4b01      	ldr	r3, [pc, #4]	@ (8003584 <USBD_USR_Init+0x8>)
 800357e:	2201      	movs	r2, #1
 8003580:	601a      	str	r2, [r3, #0]
 8003582:	4770      	bx	lr
 8003584:	200013f8 	.word	0x200013f8

08003588 <USBD_USR_DeviceReset>:
 8003588:	4b01      	ldr	r3, [pc, #4]	@ (8003590 <USBD_USR_DeviceReset+0x8>)
 800358a:	2201      	movs	r2, #1
 800358c:	601a      	str	r2, [r3, #0]
 800358e:	4770      	bx	lr
 8003590:	200013f8 	.word	0x200013f8

08003594 <USBD_USR_DeviceConfigured>:
 8003594:	4b01      	ldr	r3, [pc, #4]	@ (800359c <USBD_USR_DeviceConfigured+0x8>)
 8003596:	2202      	movs	r2, #2
 8003598:	601a      	str	r2, [r3, #0]
 800359a:	4770      	bx	lr
 800359c:	200013f8 	.word	0x200013f8

080035a0 <USBD_USR_DeviceSuspended>:
 80035a0:	4b01      	ldr	r3, [pc, #4]	@ (80035a8 <USBD_USR_DeviceSuspended+0x8>)
 80035a2:	2201      	movs	r2, #1
 80035a4:	601a      	str	r2, [r3, #0]
 80035a6:	4770      	bx	lr
 80035a8:	200013f8 	.word	0x200013f8

080035ac <USBD_USR_DeviceResumed>:
 80035ac:	4b01      	ldr	r3, [pc, #4]	@ (80035b4 <USBD_USR_DeviceResumed+0x8>)
 80035ae:	2201      	movs	r2, #1
 80035b0:	601a      	str	r2, [r3, #0]
 80035b2:	4770      	bx	lr
 80035b4:	200013f8 	.word	0x200013f8

080035b8 <USBD_USR_DeviceConnected>:
 80035b8:	4b01      	ldr	r3, [pc, #4]	@ (80035c0 <USBD_USR_DeviceConnected+0x8>)
 80035ba:	2201      	movs	r2, #1
 80035bc:	601a      	str	r2, [r3, #0]
 80035be:	4770      	bx	lr
 80035c0:	200013f8 	.word	0x200013f8

080035c4 <USBD_USR_DeviceDisconnected>:
 80035c4:	4b01      	ldr	r3, [pc, #4]	@ (80035cc <USBD_USR_DeviceDisconnected+0x8>)
 80035c6:	2201      	movs	r2, #1
 80035c8:	601a      	str	r2, [r3, #0]
 80035ca:	4770      	bx	lr
 80035cc:	200013f8 	.word	0x200013f8

080035d0 <_stdout_default>:
 80035d0:	2000      	movs	r0, #0
 80035d2:	4770      	bx	lr

080035d4 <_stdin_default>:
 80035d4:	2000      	movs	r0, #0
 80035d6:	4770      	bx	lr

080035d8 <_stdpoll_default>:
 80035d8:	2000      	movs	r0, #0
 80035da:	4770      	bx	lr

080035dc <_stdout_install>:
 80035dc:	4b01      	ldr	r3, [pc, #4]	@ (80035e4 <_stdout_install+0x8>)
 80035de:	6018      	str	r0, [r3, #0]
 80035e0:	4770      	bx	lr
 80035e2:	bf00      	nop
 80035e4:	200001cc 	.word	0x200001cc

080035e8 <_stdin_install>:
 80035e8:	4b01      	ldr	r3, [pc, #4]	@ (80035f0 <_stdin_install+0x8>)
 80035ea:	6018      	str	r0, [r3, #0]
 80035ec:	4770      	bx	lr
 80035ee:	bf00      	nop
 80035f0:	200001c8 	.word	0x200001c8

080035f4 <_stdpoll_install>:
 80035f4:	4b01      	ldr	r3, [pc, #4]	@ (80035fc <_stdpoll_install+0x8>)
 80035f6:	6018      	str	r0, [r3, #0]
 80035f8:	4770      	bx	lr
 80035fa:	bf00      	nop
 80035fc:	200001c4 	.word	0x200001c4

08003600 <_putchar>:
 8003600:	b500      	push	{lr}
 8003602:	4b03      	ldr	r3, [pc, #12]	@ (8003610 <_putchar+0x10>)
 8003604:	681b      	ldr	r3, [r3, #0]
 8003606:	4798      	blx	r3
 8003608:	2000      	movs	r0, #0
 800360a:	f85d fb04 	ldr.w	pc, [sp], #4
 800360e:	bf00      	nop
 8003610:	200001cc 	.word	0x200001cc

08003614 <hexdump>:
 8003614:	e92d 4ff0 	stmdb	sp!, {r4, r5, r6, r7, r8, r9, sl, fp, lr}
 8003618:	4681      	mov	r9, r0
 800361a:	f020 080f 	bic.w	r8, r0, #15
 800361e:	468b      	mov	fp, r1
 8003620:	2900      	cmp	r1, #0
 8003622:	d06a      	beq.n	80036fa <hexdump+0xe6>
 8003624:	f108 0810 	add.w	r8, r8, #16
 8003628:	f04f 0a00 	mov.w	sl, #0
 800362c:	200a      	movs	r0, #10
 800362e:	f7ff ffe7 	bl	8003600 <_putchar>
 8003632:	251c      	movs	r5, #28
 8003634:	f1a8 0410 	sub.w	r4, r8, #16
 8003638:	fa44 f005 	asr.w	r0, r4, r5
 800363c:	f000 000f 	and.w	r0, r0, #15
 8003640:	2809      	cmp	r0, #9
 8003642:	bfcc      	ite	gt
 8003644:	3037      	addgt	r0, #55	@ 0x37
 8003646:	3030      	addle	r0, #48	@ 0x30
 8003648:	3d04      	subs	r5, #4
 800364a:	f7ff ffd9 	bl	8003600 <_putchar>
 800364e:	1d2b      	adds	r3, r5, #4
 8003650:	d1f2      	bne.n	8003638 <hexdump+0x24>
 8003652:	2020      	movs	r0, #32
 8003654:	f7ff ffd4 	bl	8003600 <_putchar>
 8003658:	2600      	movs	r6, #0
 800365a:	4627      	mov	r7, r4
 800365c:	e00f      	b.n	800367e <hexdump+0x6a>
 800365e:	2020      	movs	r0, #32
 8003660:	f7ff ffce 	bl	8003600 <_putchar>
 8003664:	2020      	movs	r0, #32
 8003666:	f7ff ffcb 	bl	8003600 <_putchar>
 800366a:	2020      	movs	r0, #32
 800366c:	f7ff ffc8 	bl	8003600 <_putchar>
 8003670:	2e07      	cmp	r6, #7
 8003672:	d01f      	beq.n	80036b4 <hexdump+0xa0>
 8003674:	3601      	adds	r6, #1
 8003676:	2e10      	cmp	r6, #16
 8003678:	f107 0701 	add.w	r7, r7, #1
 800367c:	d020      	beq.n	80036c0 <hexdump+0xac>
 800367e:	454f      	cmp	r7, r9
 8003680:	d3ed      	bcc.n	800365e <hexdump+0x4a>
 8003682:	783d      	ldrb	r5, [r7, #0]
 8003684:	2d9f      	cmp	r5, #159	@ 0x9f
 8003686:	ea4f 1015 	mov.w	r0, r5, lsr #4
 800368a:	bf98      	it	ls
 800368c:	3030      	addls	r0, #48	@ 0x30
 800368e:	f005 050f 	and.w	r5, r5, #15
 8003692:	bf88      	it	hi
 8003694:	3037      	addhi	r0, #55	@ 0x37
 8003696:	f7ff ffb3 	bl	8003600 <_putchar>
 800369a:	2d09      	cmp	r5, #9
 800369c:	bf94      	ite	ls
 800369e:	f105 0030 	addls.w	r0, r5, #48	@ 0x30
 80036a2:	f105 0037 	addhi.w	r0, r5, #55	@ 0x37
 80036a6:	f7ff ffab 	bl	8003600 <_putchar>
 80036aa:	2020      	movs	r0, #32
 80036ac:	f7ff ffa8 	bl	8003600 <_putchar>
 80036b0:	2e07      	cmp	r6, #7
 80036b2:	d1df      	bne.n	8003674 <hexdump+0x60>
 80036b4:	2020      	movs	r0, #32
 80036b6:	f7ff ffa3 	bl	8003600 <_putchar>
 80036ba:	2608      	movs	r6, #8
 80036bc:	3701      	adds	r7, #1
 80036be:	e7de      	b.n	800367e <hexdump+0x6a>
 80036c0:	2020      	movs	r0, #32
 80036c2:	f7ff ff9d 	bl	8003600 <_putchar>
 80036c6:	207c      	movs	r0, #124	@ 0x7c
 80036c8:	f7ff ff9a 	bl	8003600 <_putchar>
 80036cc:	7823      	ldrb	r3, [r4, #0]
 80036ce:	f1a3 0220 	sub.w	r2, r3, #32
 80036d2:	2a5e      	cmp	r2, #94	@ 0x5e
 80036d4:	f04f 002e 	mov.w	r0, #46	@ 0x2e
 80036d8:	f104 0401 	add.w	r4, r4, #1
 80036dc:	bf98      	it	ls
 80036de:	4618      	movls	r0, r3
 80036e0:	f7ff ff8e 	bl	8003600 <_putchar>
 80036e4:	4544      	cmp	r4, r8
 80036e6:	d1f1      	bne.n	80036cc <hexdump+0xb8>
 80036e8:	207c      	movs	r0, #124	@ 0x7c
 80036ea:	f10a 0a10 	add.w	sl, sl, #16
 80036ee:	f7ff ff87 	bl	8003600 <_putchar>
 80036f2:	45d3      	cmp	fp, sl
 80036f4:	f108 0810 	add.w	r8, r8, #16
 80036f8:	d898      	bhi.n	800362c <hexdump+0x18>
 80036fa:	2000      	movs	r0, #0
 80036fc:	e8bd 8ff0 	ldmia.w	sp!, {r4, r5, r6, r7, r8, r9, sl, fp, pc}

08003700 <USART_Init>:
 8003700:	6902      	ldr	r2, [r0, #16]
 8003702:	88cb      	ldrh	r3, [r1, #6]
 8003704:	b530      	push	{r4, r5, lr}
 8003706:	f422 5240 	bic.w	r2, r2, #12288	@ 0x3000
 800370a:	4313      	orrs	r3, r2
 800370c:	b29b      	uxth	r3, r3
 800370e:	b084      	sub	sp, #16
 8003710:	460d      	mov	r5, r1
 8003712:	6103      	str	r3, [r0, #16]
 8003714:	888b      	ldrh	r3, [r1, #4]
 8003716:	8909      	ldrh	r1, [r1, #8]
 8003718:	68c2      	ldr	r2, [r0, #12]
 800371a:	430b      	orrs	r3, r1
 800371c:	8969      	ldrh	r1, [r5, #10]
 800371e:	f422 52b0 	bic.w	r2, r2, #5632	@ 0x1600
 8003722:	430b      	orrs	r3, r1
 8003724:	f022 020c 	bic.w	r2, r2, #12
 8003728:	b29b      	uxth	r3, r3
 800372a:	4313      	orrs	r3, r2
 800372c:	b29b      	uxth	r3, r3
 800372e:	60c3      	str	r3, [r0, #12]
 8003730:	6942      	ldr	r2, [r0, #20]
 8003732:	89ab      	ldrh	r3, [r5, #12]
 8003734:	f422 7240 	bic.w	r2, r2, #768	@ 0x300
 8003738:	4313      	orrs	r3, r2
 800373a:	b29b      	uxth	r3, r3
 800373c:	6143      	str	r3, [r0, #20]
 800373e:	4604      	mov	r4, r0
 8003740:	4668      	mov	r0, sp
 8003742:	f7fe fb1b 	bl	8001d7c <RCC_GetClocksFreq>
 8003746:	4b1c      	ldr	r3, [pc, #112]	@ (80037b8 <USART_Init+0xb8>)
 8003748:	429c      	cmp	r4, r3
 800374a:	d005      	beq.n	8003758 <USART_Init+0x58>
 800374c:	f503 6380 	add.w	r3, r3, #1024	@ 0x400
 8003750:	429c      	cmp	r4, r3
 8003752:	d001      	beq.n	8003758 <USART_Init+0x58>
 8003754:	9b02      	ldr	r3, [sp, #8]
 8003756:	e000      	b.n	800375a <USART_Init+0x5a>
 8003758:	9b03      	ldr	r3, [sp, #12]
 800375a:	68e1      	ldr	r1, [r4, #12]
 800375c:	682a      	ldr	r2, [r5, #0]
 800375e:	68e5      	ldr	r5, [r4, #12]
 8003760:	0408      	lsls	r0, r1, #16
 8003762:	4816      	ldr	r0, [pc, #88]	@ (80037bc <USART_Init+0xbc>)
 8003764:	eb03 0383 	add.w	r3, r3, r3, lsl #2
 8003768:	bf4c      	ite	mi
 800376a:	0052      	lslmi	r2, r2, #1
 800376c:	0092      	lslpl	r2, r2, #2
 800376e:	eb03 0383 	add.w	r3, r3, r3, lsl #2
 8003772:	fbb3 f3f2 	udiv	r3, r3, r2
 8003776:	fba0 2103 	umull	r2, r1, r0, r3
 800377a:	0949      	lsrs	r1, r1, #5
 800377c:	f04f 0c64 	mov.w	ip, #100	@ 0x64
 8003780:	010a      	lsls	r2, r1, #4
 8003782:	fb0c 3311 	mls	r3, ip, r1, r3
 8003786:	0429      	lsls	r1, r5, #16
 8003788:	d50a      	bpl.n	80037a0 <USART_Init+0xa0>
 800378a:	00db      	lsls	r3, r3, #3
 800378c:	3332      	adds	r3, #50	@ 0x32
 800378e:	fba0 0303 	umull	r0, r3, r0, r3
 8003792:	f3c3 1342 	ubfx	r3, r3, #5, #3
 8003796:	4313      	orrs	r3, r2
 8003798:	b29b      	uxth	r3, r3
 800379a:	60a3      	str	r3, [r4, #8]
 800379c:	b004      	add	sp, #16
 800379e:	bd30      	pop	{r4, r5, pc}
 80037a0:	011b      	lsls	r3, r3, #4
 80037a2:	3332      	adds	r3, #50	@ 0x32
 80037a4:	fba0 0303 	umull	r0, r3, r0, r3
 80037a8:	f3c3 1343 	ubfx	r3, r3, #5, #4
 80037ac:	4313      	orrs	r3, r2
 80037ae:	b29b      	uxth	r3, r3
 80037b0:	60a3      	str	r3, [r4, #8]
 80037b2:	b004      	add	sp, #16
 80037b4:	bd30      	pop	{r4, r5, pc}
 80037b6:	bf00      	nop
 80037b8:	40011000 	.word	0x40011000
 80037bc:	51eb851f 	.word	0x51eb851f

080037c0 <USART_Cmd>:
 80037c0:	68c3      	ldr	r3, [r0, #12]
 80037c2:	b119      	cbz	r1, 80037cc <USART_Cmd+0xc>
 80037c4:	f443 5300 	orr.w	r3, r3, #8192	@ 0x2000
 80037c8:	60c3      	str	r3, [r0, #12]
 80037ca:	4770      	bx	lr
 80037cc:	f64d 72ff 	movw	r2, #57343	@ 0xdfff
 80037d0:	4013      	ands	r3, r2
 80037d2:	60c3      	str	r3, [r0, #12]
 80037d4:	4770      	bx	lr
 80037d6:	bf00      	nop

080037d8 <USART_SendData>:
 80037d8:	f3c1 0108 	ubfx	r1, r1, #0, #9
 80037dc:	6041      	str	r1, [r0, #4]
 80037de:	4770      	bx	lr

080037e0 <USART_ReceiveData>:
 80037e0:	6840      	ldr	r0, [r0, #4]
 80037e2:	f3c0 0008 	ubfx	r0, r0, #0, #9
 80037e6:	4770      	bx	lr

080037e8 <USART_ITConfig>:
 80037e8:	f001 0c1f 	and.w	ip, r1, #31
 80037ec:	f3c1 1142 	ubfx	r1, r1, #5, #3
 80037f0:	2301      	movs	r3, #1
 80037f2:	2901      	cmp	r1, #1
 80037f4:	fa03 f30c 	lsl.w	r3, r3, ip
 80037f8:	d00d      	beq.n	8003816 <USART_ITConfig+0x2e>
 80037fa:	2902      	cmp	r1, #2
 80037fc:	bf0c      	ite	eq
 80037fe:	3010      	addeq	r0, #16
 8003800:	3014      	addne	r0, #20
 8003802:	b11a      	cbz	r2, 800380c <USART_ITConfig+0x24>
 8003804:	6802      	ldr	r2, [r0, #0]
 8003806:	4313      	orrs	r3, r2
 8003808:	6003      	str	r3, [r0, #0]
 800380a:	4770      	bx	lr
 800380c:	6802      	ldr	r2, [r0, #0]
 800380e:	ea22 0303 	bic.w	r3, r2, r3
 8003812:	6003      	str	r3, [r0, #0]
 8003814:	4770      	bx	lr
 8003816:	300c      	adds	r0, #12
 8003818:	e7f3      	b.n	8003802 <USART_ITConfig+0x1a>
 800381a:	bf00      	nop

0800381c <USART_GetFlagStatus>:
 800381c:	6803      	ldr	r3, [r0, #0]
 800381e:	b288      	uxth	r0, r1
 8003820:	4018      	ands	r0, r3
 8003822:	3800      	subs	r0, #0
 8003824:	bf18      	it	ne
 8003826:	2001      	movne	r0, #1
 8003828:	4770      	bx	lr
 800382a:	bf00      	nop

0800382c <USART_GetITStatus>:
 800382c:	f3c1 1c42 	ubfx	ip, r1, #5, #3
 8003830:	b500      	push	{lr}
 8003832:	2301      	movs	r3, #1
 8003834:	f001 0e1f 	and.w	lr, r1, #31
 8003838:	f1bc 0f01 	cmp.w	ip, #1
 800383c:	4602      	mov	r2, r0
 800383e:	b289      	uxth	r1, r1
 8003840:	fa03 f30e 	lsl.w	r3, r3, lr
 8003844:	d010      	beq.n	8003868 <USART_GetITStatus+0x3c>
 8003846:	f1bc 0f02 	cmp.w	ip, #2
 800384a:	bf0c      	ite	eq
 800384c:	6900      	ldreq	r0, [r0, #16]
 800384e:	6950      	ldrne	r0, [r2, #20]
 8003850:	4018      	ands	r0, r3
 8003852:	6813      	ldr	r3, [r2, #0]
 8003854:	b130      	cbz	r0, 8003864 <USART_GetITStatus+0x38>
 8003856:	0a09      	lsrs	r1, r1, #8
 8003858:	2001      	movs	r0, #1
 800385a:	4088      	lsls	r0, r1
 800385c:	4018      	ands	r0, r3
 800385e:	3800      	subs	r0, #0
 8003860:	bf18      	it	ne
 8003862:	2001      	movne	r0, #1
 8003864:	f85d fb04 	ldr.w	pc, [sp], #4
 8003868:	68c0      	ldr	r0, [r0, #12]
 800386a:	4018      	ands	r0, r3
 800386c:	e7f1      	b.n	8003852 <USART_GetITStatus+0x26>
 800386e:	bf00      	nop

08003870 <USB_OTG_BSP_Init>:
 8003870:	b510      	push	{r4, lr}
 8003872:	2101      	movs	r1, #1
 8003874:	b086      	sub	sp, #24
 8003876:	4608      	mov	r0, r1
 8003878:	f7fe fac6 	bl	8001e08 <RCC_AHB1PeriphClockCmd>
 800387c:	f44f 51d8 	mov.w	r1, #6912	@ 0x1b00
 8003880:	2300      	movs	r3, #0
 8003882:	2202      	movs	r2, #2
 8003884:	9101      	str	r1, [sp, #4]
 8003886:	481c      	ldr	r0, [pc, #112]	@ (80038f8 <USB_OTG_BSP_Init+0x88>)
 8003888:	9304      	str	r3, [sp, #16]
 800388a:	a901      	add	r1, sp, #4
 800388c:	9305      	str	r3, [sp, #20]
 800388e:	9203      	str	r2, [sp, #12]
 8003890:	9202      	str	r2, [sp, #8]
 8003892:	f7fe f9f5 	bl	8001c80 <GPIO_Init>
 8003896:	4818      	ldr	r0, [pc, #96]	@ (80038f8 <USB_OTG_BSP_Init+0x88>)
 8003898:	220a      	movs	r2, #10
 800389a:	2108      	movs	r1, #8
 800389c:	f7fe fa58 	bl	8001d50 <GPIO_PinAFConfig>
 80038a0:	4815      	ldr	r0, [pc, #84]	@ (80038f8 <USB_OTG_BSP_Init+0x88>)
 80038a2:	220a      	movs	r2, #10
 80038a4:	2109      	movs	r1, #9
 80038a6:	f7fe fa53 	bl	8001d50 <GPIO_PinAFConfig>
 80038aa:	4813      	ldr	r0, [pc, #76]	@ (80038f8 <USB_OTG_BSP_Init+0x88>)
 80038ac:	220a      	movs	r2, #10
 80038ae:	210b      	movs	r1, #11
 80038b0:	f7fe fa4e 	bl	8001d50 <GPIO_PinAFConfig>
 80038b4:	4810      	ldr	r0, [pc, #64]	@ (80038f8 <USB_OTG_BSP_Init+0x88>)
 80038b6:	220a      	movs	r2, #10
 80038b8:	210c      	movs	r1, #12
 80038ba:	f7fe fa49 	bl	8001d50 <GPIO_PinAFConfig>
 80038be:	f44f 6380 	mov.w	r3, #1024	@ 0x400
 80038c2:	2401      	movs	r4, #1
 80038c4:	a901      	add	r1, sp, #4
 80038c6:	9301      	str	r3, [sp, #4]
 80038c8:	2202      	movs	r2, #2
 80038ca:	2301      	movs	r3, #1
 80038cc:	480a      	ldr	r0, [pc, #40]	@ (80038f8 <USB_OTG_BSP_Init+0x88>)
 80038ce:	9405      	str	r4, [sp, #20]
 80038d0:	9203      	str	r2, [sp, #12]
 80038d2:	9304      	str	r3, [sp, #16]
 80038d4:	f7fe f9d4 	bl	8001c80 <GPIO_Init>
 80038d8:	220a      	movs	r2, #10
 80038da:	4611      	mov	r1, r2
 80038dc:	4806      	ldr	r0, [pc, #24]	@ (80038f8 <USB_OTG_BSP_Init+0x88>)
 80038de:	f7fe fa37 	bl	8001d50 <GPIO_PinAFConfig>
 80038e2:	4621      	mov	r1, r4
 80038e4:	2080      	movs	r0, #128	@ 0x80
 80038e6:	f7fe fa9b 	bl	8001e20 <RCC_AHB2PeriphClockCmd>
 80038ea:	4621      	mov	r1, r4
 80038ec:	f04f 5080 	mov.w	r0, #268435456	@ 0x10000000
 80038f0:	f7fe faba 	bl	8001e68 <RCC_APB1PeriphResetCmd>
 80038f4:	b006      	add	sp, #24
 80038f6:	bd10      	pop	{r4, pc}
 80038f8:	40020000 	.word	0x40020000

080038fc <USB_OTG_BSP_EnableInterrupt>:
 80038fc:	b500      	push	{lr}
 80038fe:	f44f 60c0 	mov.w	r0, #1536	@ 0x600
 8003902:	b082      	sub	sp, #8
 8003904:	f7fd ff4c 	bl	80017a0 <NVIC_PriorityGroupConfig>
 8003908:	f240 1143 	movw	r1, #323	@ 0x143
 800390c:	2203      	movs	r2, #3
 800390e:	2301      	movs	r3, #1
 8003910:	4668      	mov	r0, sp
 8003912:	f8ad 1000 	strh.w	r1, [sp]
 8003916:	f88d 2002 	strb.w	r2, [sp, #2]
 800391a:	9301      	str	r3, [sp, #4]
 800391c:	f7fd ff4a 	bl	80017b4 <NVIC_Init>
 8003920:	b002      	add	sp, #8
 8003922:	f85d fb04 	ldr.w	pc, [sp], #4
 8003926:	bf00      	nop

08003928 <USB_OTG_BSP_uDelay>:
 8003928:	4770      	bx	lr
 800392a:	bf00      	nop

0800392c <USB_OTG_BSP_mDelay>:
 800392c:	4770      	bx	lr
 800392e:	bf00      	nop

08003930 <OTG_FS_IRQHandler>:
 8003930:	4801      	ldr	r0, [pc, #4]	@ (8003938 <OTG_FS_IRQHandler+0x8>)
 8003932:	f000 bd8f 	b.w	8004454 <USBD_OTG_ISR_Handler>
 8003936:	bf00      	nop
 8003938:	200004d8 	.word	0x200004d8

0800393c <USB_OTG_CoreReset.isra.0>:
 800393c:	b530      	push	{r4, r5, lr}
 800393e:	b082      	sub	sp, #8
 8003940:	2300      	movs	r3, #0
 8003942:	4c12      	ldr	r4, [pc, #72]	@ (800398c <USB_OTG_CoreReset.isra.0+0x50>)
 8003944:	9301      	str	r3, [sp, #4]
 8003946:	4605      	mov	r5, r0
 8003948:	2003      	movs	r0, #3
 800394a:	f7ff ffed 	bl	8003928 <USB_OTG_BSP_uDelay>
 800394e:	68eb      	ldr	r3, [r5, #12]
 8003950:	3c01      	subs	r4, #1
 8003952:	691a      	ldr	r2, [r3, #16]
 8003954:	9201      	str	r2, [sp, #4]
 8003956:	d016      	beq.n	8003986 <USB_OTG_CoreReset.isra.0+0x4a>
 8003958:	9a01      	ldr	r2, [sp, #4]
 800395a:	2a00      	cmp	r2, #0
 800395c:	daf4      	bge.n	8003948 <USB_OTG_CoreReset.isra.0+0xc>
 800395e:	9901      	ldr	r1, [sp, #4]
 8003960:	4a0a      	ldr	r2, [pc, #40]	@ (800398c <USB_OTG_CoreReset.isra.0+0x50>)
 8003962:	f041 0101 	orr.w	r1, r1, #1
 8003966:	9101      	str	r1, [sp, #4]
 8003968:	9901      	ldr	r1, [sp, #4]
 800396a:	6119      	str	r1, [r3, #16]
 800396c:	6919      	ldr	r1, [r3, #16]
 800396e:	9101      	str	r1, [sp, #4]
 8003970:	3a01      	subs	r2, #1
 8003972:	d002      	beq.n	800397a <USB_OTG_CoreReset.isra.0+0x3e>
 8003974:	9901      	ldr	r1, [sp, #4]
 8003976:	07c9      	lsls	r1, r1, #31
 8003978:	d4f8      	bmi.n	800396c <USB_OTG_CoreReset.isra.0+0x30>
 800397a:	2003      	movs	r0, #3
 800397c:	b002      	add	sp, #8
 800397e:	e8bd 4030 	ldmia.w	sp!, {r4, r5, lr}
 8003982:	f7ff bfd1 	b.w	8003928 <USB_OTG_BSP_uDelay>
 8003986:	b002      	add	sp, #8
 8003988:	bd30      	pop	{r4, r5, pc}
 800398a:	bf00      	nop
 800398c:	00030d41 	.word	0x00030d41

08003990 <USB_OTG_WritePacket>:
 8003990:	b430      	push	{r4, r5}
 8003992:	78c4      	ldrb	r4, [r0, #3]
 8003994:	b2d2      	uxtb	r2, r2
 8003996:	b29b      	uxth	r3, r3
 8003998:	b96c      	cbnz	r4, 80039b6 <USB_OTG_WritePacket+0x26>
 800399a:	f102 0534 	add.w	r5, r2, #52	@ 0x34
 800399e:	1cda      	adds	r2, r3, #3
 80039a0:	1092      	asrs	r2, r2, #2
 80039a2:	f850 5025 	ldr.w	r5, [r0, r5, lsl #2]
 80039a6:	d006      	beq.n	80039b6 <USB_OTG_WritePacket+0x26>
 80039a8:	4623      	mov	r3, r4
 80039aa:	3301      	adds	r3, #1
 80039ac:	f851 0b04 	ldr.w	r0, [r1], #4
 80039b0:	6028      	str	r0, [r5, #0]
 80039b2:	429a      	cmp	r2, r3
 80039b4:	d1f9      	bne.n	80039aa <USB_OTG_WritePacket+0x1a>
 80039b6:	2000      	movs	r0, #0
 80039b8:	bc30      	pop	{r4, r5}
 80039ba:	4770      	bx	lr

080039bc <USB_OTG_ReadPacket>:
 80039bc:	fa1f fc82 	uxth.w	ip, r2
 80039c0:	f10c 0c03 	add.w	ip, ip, #3
 80039c4:	ea5f 0cac 	movs.w	ip, ip, asr #2
 80039c8:	b530      	push	{r4, r5, lr}
 80039ca:	f8d0 50d0 	ldr.w	r5, [r0, #208]	@ 0xd0
 80039ce:	d00c      	beq.n	80039ea <USB_OTG_ReadPacket+0x2e>
 80039d0:	460a      	mov	r2, r1
 80039d2:	2300      	movs	r3, #0
 80039d4:	469e      	mov	lr, r3
 80039d6:	3301      	adds	r3, #1
 80039d8:	682c      	ldr	r4, [r5, #0]
 80039da:	f842 4b04 	str.w	r4, [r2], #4
 80039de:	459c      	cmp	ip, r3
 80039e0:	d1f8      	bne.n	80039d4 <USB_OTG_ReadPacket+0x18>
 80039e2:	3104      	adds	r1, #4
 80039e4:	eb01 008e 	add.w	r0, r1, lr, lsl #2
 80039e8:	bd30      	pop	{r4, r5, pc}
 80039ea:	4608      	mov	r0, r1
 80039ec:	bd30      	pop	{r4, r5, pc}
 80039ee:	bf00      	nop

080039f0 <USB_OTG_SelectCore>:
 80039f0:	2201      	movs	r2, #1
 80039f2:	2340      	movs	r3, #64	@ 0x40
 80039f4:	4291      	cmp	r1, r2
 80039f6:	e92d 41f0 	stmdb	sp!, {r4, r5, r6, r7, r8, lr}
 80039fa:	8042      	strh	r2, [r0, #2]
 80039fc:	8083      	strh	r3, [r0, #4]
 80039fe:	d059      	beq.n	8003ab4 <USB_OTG_SelectCore+0xc4>
 8003a00:	2900      	cmp	r1, #0
 8003a02:	d043      	beq.n	8003a8c <USB_OTG_SelectCore+0x9c>
 8003a04:	7847      	ldrb	r7, [r0, #1]
 8003a06:	7805      	ldrb	r5, [r0, #0]
 8003a08:	2300      	movs	r3, #0
 8003a0a:	f44f 6200 	mov.w	r2, #2048	@ 0x800
 8003a0e:	60c3      	str	r3, [r0, #12]
 8003a10:	6102      	str	r2, [r0, #16]
 8003a12:	f44f 6660 	mov.w	r6, #3584	@ 0xe00
 8003a16:	2f00      	cmp	r7, #0
 8003a18:	d063      	beq.n	8003ae2 <USB_OTG_SelectCore+0xf2>
 8003a1a:	461a      	mov	r2, r3
 8003a1c:	f44f 6888 	mov.w	r8, #1088	@ 0x440
 8003a20:	f44f 6e80 	mov.w	lr, #1024	@ 0x400
 8003a24:	f502 6310 	add.w	r3, r2, #2304	@ 0x900
 8003a28:	f100 0c14 	add.w	ip, r0, #20
 8003a2c:	2100      	movs	r1, #0
 8003a2e:	f84c 3f04 	str.w	r3, [ip, #4]!
 8003a32:	3101      	adds	r1, #1
 8003a34:	f503 7400 	add.w	r4, r3, #512	@ 0x200
 8003a38:	42b9      	cmp	r1, r7
 8003a3a:	f8cc 403c 	str.w	r4, [ip, #60]	@ 0x3c
 8003a3e:	f103 0320 	add.w	r3, r3, #32
 8003a42:	d3f4      	bcc.n	8003a2e <USB_OTG_SelectCore+0x3e>
 8003a44:	f8c0 e014 	str.w	lr, [r0, #20]
 8003a48:	f8c0 80cc 	str.w	r8, [r0, #204]	@ 0xcc
 8003a4c:	b1cd      	cbz	r5, 8003a82 <USB_OTG_SelectCore+0x92>
 8003a4e:	f100 038c 	add.w	r3, r0, #140	@ 0x8c
 8003a52:	f502 61a0 	add.w	r1, r2, #1280	@ 0x500
 8003a56:	ea4f 0c85 	mov.w	ip, r5, lsl #2
 8003a5a:	eb03 0485 	add.w	r4, r3, r5, lsl #2
 8003a5e:	f843 1f04 	str.w	r1, [r3, #4]!
 8003a62:	429c      	cmp	r4, r3
 8003a64:	f101 0120 	add.w	r1, r1, #32
 8003a68:	d1f9      	bne.n	8003a5e <USB_OTG_SelectCore+0x6e>
 8003a6a:	f100 01cc 	add.w	r1, r0, #204	@ 0xcc
 8003a6e:	f502 5380 	add.w	r3, r2, #4096	@ 0x1000
 8003a72:	eb01 020c 	add.w	r2, r1, ip
 8003a76:	f841 3f04 	str.w	r3, [r1, #4]!
 8003a7a:	428a      	cmp	r2, r1
 8003a7c:	f503 5380 	add.w	r3, r3, #4096	@ 0x1000
 8003a80:	d1f9      	bne.n	8003a76 <USB_OTG_SelectCore+0x86>
 8003a82:	f8c0 610c 	str.w	r6, [r0, #268]	@ 0x10c
 8003a86:	2000      	movs	r0, #0
 8003a88:	e8bd 81f0 	ldmia.w	sp!, {r4, r5, r6, r7, r8, pc}
 8003a8c:	4b18      	ldr	r3, [pc, #96]	@ (8003af0 <USB_OTG_SelectCore+0x100>)
 8003a8e:	4a19      	ldr	r2, [pc, #100]	@ (8003af4 <USB_OTG_SelectCore+0x104>)
 8003a90:	72c1      	strb	r1, [r0, #11]
 8003a92:	f240 640c 	movw	r4, #1548	@ 0x60c
 8003a96:	f44f 61a0 	mov.w	r1, #1280	@ 0x500
 8003a9a:	6102      	str	r2, [r0, #16]
 8003a9c:	4e16      	ldr	r6, [pc, #88]	@ (8003af8 <USB_OTG_SelectCore+0x108>)
 8003a9e:	f8df 805c 	ldr.w	r8, [pc, #92]	@ 8003afc <USB_OTG_SelectCore+0x10c>
 8003aa2:	f8df e05c 	ldr.w	lr, [pc, #92]	@ 8003b00 <USB_OTG_SelectCore+0x110>
 8003aa6:	8004      	strh	r4, [r0, #0]
 8003aa8:	80c1      	strh	r1, [r0, #6]
 8003aaa:	60c3      	str	r3, [r0, #12]
 8003aac:	2706      	movs	r7, #6
 8003aae:	461a      	mov	r2, r3
 8003ab0:	250c      	movs	r5, #12
 8003ab2:	e7b7      	b.n	8003a24 <USB_OTG_SelectCore+0x34>
 8003ab4:	72c1      	strb	r1, [r0, #11]
 8003ab6:	f44f 71a0 	mov.w	r1, #320	@ 0x140
 8003aba:	4a12      	ldr	r2, [pc, #72]	@ (8003b04 <USB_OTG_SelectCore+0x114>)
 8003abc:	80c1      	strh	r1, [r0, #6]
 8003abe:	f04f 43a0 	mov.w	r3, #1342177280	@ 0x50000000
 8003ac2:	f44f 6481 	mov.w	r4, #1032	@ 0x408
 8003ac6:	2102      	movs	r1, #2
 8003ac8:	6102      	str	r2, [r0, #16]
 8003aca:	4e0f      	ldr	r6, [pc, #60]	@ (8003b08 <USB_OTG_SelectCore+0x118>)
 8003acc:	f8df 803c 	ldr.w	r8, [pc, #60]	@ 8003b0c <USB_OTG_SelectCore+0x11c>
 8003ad0:	f8df e03c 	ldr.w	lr, [pc, #60]	@ 8003b10 <USB_OTG_SelectCore+0x120>
 8003ad4:	8004      	strh	r4, [r0, #0]
 8003ad6:	7201      	strb	r1, [r0, #8]
 8003ad8:	60c3      	str	r3, [r0, #12]
 8003ada:	2704      	movs	r7, #4
 8003adc:	2508      	movs	r5, #8
 8003ade:	461a      	mov	r2, r3
 8003ae0:	e7a0      	b.n	8003a24 <USB_OTG_SelectCore+0x34>
 8003ae2:	f44f 6888 	mov.w	r8, #1088	@ 0x440
 8003ae6:	463a      	mov	r2, r7
 8003ae8:	f44f 6e80 	mov.w	lr, #1024	@ 0x400
 8003aec:	e7aa      	b.n	8003a44 <USB_OTG_SelectCore+0x54>
 8003aee:	bf00      	nop
 8003af0:	40040000 	.word	0x40040000
 8003af4:	40040800 	.word	0x40040800
 8003af8:	40040e00 	.word	0x40040e00
 8003afc:	40040440 	.word	0x40040440
 8003b00:	40040400 	.word	0x40040400
 8003b04:	50000800 	.word	0x50000800
 8003b08:	50000e00 	.word	0x50000e00
 8003b0c:	50000440 	.word	0x50000440
 8003b10:	50000400 	.word	0x50000400

08003b14 <USB_OTG_CoreInit>:
 8003b14:	b530      	push	{r4, r5, lr}
 8003b16:	7a03      	ldrb	r3, [r0, #8]
 8003b18:	68c2      	ldr	r2, [r0, #12]
 8003b1a:	2b01      	cmp	r3, #1
 8003b1c:	4604      	mov	r4, r0
 8003b1e:	f04f 0500 	mov.w	r5, #0
 8003b22:	d11a      	bne.n	8003b5a <USB_OTG_CoreInit+0x46>
 8003b24:	6b95      	ldr	r5, [r2, #56]	@ 0x38
 8003b26:	7a41      	ldrb	r1, [r0, #9]
 8003b28:	f425 3580 	bic.w	r5, r5, #65536	@ 0x10000
 8003b2c:	b191      	cbz	r1, 8003b54 <USB_OTG_CoreInit+0x40>
 8003b2e:	f363 5514 	bfi	r5, r3, #20, #1
 8003b32:	6395      	str	r5, [r2, #56]	@ 0x38
 8003b34:	68d3      	ldr	r3, [r2, #12]
 8003b36:	f423 0394 	bic.w	r3, r3, #4849664	@ 0x4a0000
 8003b3a:	f023 03d8 	bic.w	r3, r3, #216	@ 0xd8
 8003b3e:	f043 0310 	orr.w	r3, r3, #16
 8003b42:	60d3      	str	r3, [r2, #12]
 8003b44:	4620      	mov	r0, r4
 8003b46:	f7ff fef9 	bl	800393c <USB_OTG_CoreReset.isra.0>
 8003b4a:	78e3      	ldrb	r3, [r4, #3]
 8003b4c:	2b01      	cmp	r3, #1
 8003b4e:	d02c      	beq.n	8003baa <USB_OTG_CoreInit+0x96>
 8003b50:	2000      	movs	r0, #0
 8003b52:	bd30      	pop	{r4, r5, pc}
 8003b54:	f3c5 5300 	ubfx	r3, r5, #20, #1
 8003b58:	e7e9      	b.n	8003b2e <USB_OTG_CoreInit+0x1a>
 8003b5a:	68d3      	ldr	r3, [r2, #12]
 8003b5c:	f043 0340 	orr.w	r3, r3, #64	@ 0x40
 8003b60:	60d3      	str	r3, [r2, #12]
 8003b62:	f7ff feeb 	bl	800393c <USB_OTG_CoreReset.isra.0>
 8003b66:	7a23      	ldrb	r3, [r4, #8]
 8003b68:	7a62      	ldrb	r2, [r4, #9]
 8003b6a:	f1a3 0303 	sub.w	r3, r3, #3
 8003b6e:	fab3 f383 	clz	r3, r3
 8003b72:	095b      	lsrs	r3, r3, #5
 8003b74:	3a00      	subs	r2, #0
 8003b76:	ea4f 0343 	mov.w	r3, r3, lsl #1
 8003b7a:	bf18      	it	ne
 8003b7c:	2201      	movne	r2, #1
 8003b7e:	f043 030d 	orr.w	r3, r3, #13
 8003b82:	ea43 1302 	orr.w	r3, r3, r2, lsl #4
 8003b86:	68e2      	ldr	r2, [r4, #12]
 8003b88:	f363 4517 	bfi	r5, r3, #16, #8
 8003b8c:	6395      	str	r5, [r2, #56]	@ 0x38
 8003b8e:	2014      	movs	r0, #20
 8003b90:	f7ff fecc 	bl	800392c <USB_OTG_BSP_mDelay>
 8003b94:	7a21      	ldrb	r1, [r4, #8]
 8003b96:	68e2      	ldr	r2, [r4, #12]
 8003b98:	2903      	cmp	r1, #3
 8003b9a:	68d3      	ldr	r3, [r2, #12]
 8003b9c:	d012      	beq.n	8003bc4 <USB_OTG_CoreInit+0xb0>
 8003b9e:	60d3      	str	r3, [r2, #12]
 8003ba0:	78e3      	ldrb	r3, [r4, #3]
 8003ba2:	2b01      	cmp	r3, #1
 8003ba4:	d1d4      	bne.n	8003b50 <USB_OTG_CoreInit+0x3c>
 8003ba6:	68e1      	ldr	r1, [r4, #12]
 8003ba8:	e002      	b.n	8003bb0 <USB_OTG_CoreInit+0x9c>
 8003baa:	68e1      	ldr	r1, [r4, #12]
 8003bac:	232a      	movs	r3, #42	@ 0x2a
 8003bae:	608b      	str	r3, [r1, #8]
 8003bb0:	688b      	ldr	r3, [r1, #8]
 8003bb2:	f023 023e 	bic.w	r2, r3, #62	@ 0x3e
 8003bb6:	f042 022a 	orr.w	r2, r2, #42	@ 0x2a
 8003bba:	f362 0307 	bfi	r3, r2, #0, #8
 8003bbe:	608b      	str	r3, [r1, #8]
 8003bc0:	2000      	movs	r0, #0
 8003bc2:	bd30      	pop	{r4, r5, pc}
 8003bc4:	f443 3380 	orr.w	r3, r3, #65536	@ 0x10000
 8003bc8:	60d3      	str	r3, [r2, #12]
 8003bca:	6b15      	ldr	r5, [r2, #48]	@ 0x30
 8003bcc:	4b0a      	ldr	r3, [pc, #40]	@ (8003bf8 <USB_OTG_CoreInit+0xe4>)
 8003bce:	ea03 4315 	and.w	r3, r3, r5, lsr #16
 8003bd2:	f443 53a1 	orr.w	r3, r3, #5152	@ 0x1420
 8003bd6:	f043 030d 	orr.w	r3, r3, #13
 8003bda:	f363 451f 	bfi	r5, r3, #16, #16
 8003bde:	6315      	str	r5, [r2, #48]	@ 0x30
 8003be0:	20c8      	movs	r0, #200	@ 0xc8
 8003be2:	f7ff fea3 	bl	800392c <USB_OTG_BSP_mDelay>
 8003be6:	68e3      	ldr	r3, [r4, #12]
 8003be8:	f445 0500 	orr.w	r5, r5, #8388608	@ 0x800000
 8003bec:	20c8      	movs	r0, #200	@ 0xc8
 8003bee:	631d      	str	r5, [r3, #48]	@ 0x30
 8003bf0:	f7ff fe9c 	bl	800392c <USB_OTG_BSP_mDelay>
 8003bf4:	e7d4      	b.n	8003ba0 <USB_OTG_CoreInit+0x8c>
 8003bf6:	bf00      	nop
 8003bf8:	ffffe300 	.word	0xffffe300

08003bfc <USB_OTG_EnableGlobalInt>:
 8003bfc:	4603      	mov	r3, r0
 8003bfe:	2000      	movs	r0, #0
 8003c00:	68da      	ldr	r2, [r3, #12]
 8003c02:	6893      	ldr	r3, [r2, #8]
 8003c04:	f043 0301 	orr.w	r3, r3, #1
 8003c08:	6093      	str	r3, [r2, #8]
 8003c0a:	4770      	bx	lr

08003c0c <USB_OTG_DisableGlobalInt>:
 8003c0c:	4603      	mov	r3, r0
 8003c0e:	2000      	movs	r0, #0
 8003c10:	68da      	ldr	r2, [r3, #12]
 8003c12:	6893      	ldr	r3, [r2, #8]
 8003c14:	f023 0301 	bic.w	r3, r3, #1
 8003c18:	6093      	str	r3, [r2, #8]
 8003c1a:	4770      	bx	lr

08003c1c <USB_OTG_FlushTxFifo>:
 8003c1c:	b500      	push	{lr}
 8003c1e:	b082      	sub	sp, #8
 8003c20:	2300      	movs	r3, #0
 8003c22:	9301      	str	r3, [sp, #4]
 8003c24:	9b01      	ldr	r3, [sp, #4]
 8003c26:	f043 0320 	orr.w	r3, r3, #32
 8003c2a:	9301      	str	r3, [sp, #4]
 8003c2c:	9b01      	ldr	r3, [sp, #4]
 8003c2e:	f361 138a 	bfi	r3, r1, #6, #5
 8003c32:	9301      	str	r3, [sp, #4]
 8003c34:	68c1      	ldr	r1, [r0, #12]
 8003c36:	9a01      	ldr	r2, [sp, #4]
 8003c38:	4b07      	ldr	r3, [pc, #28]	@ (8003c58 <USB_OTG_FlushTxFifo+0x3c>)
 8003c3a:	610a      	str	r2, [r1, #16]
 8003c3c:	690a      	ldr	r2, [r1, #16]
 8003c3e:	9201      	str	r2, [sp, #4]
 8003c40:	3b01      	subs	r3, #1
 8003c42:	d002      	beq.n	8003c4a <USB_OTG_FlushTxFifo+0x2e>
 8003c44:	9a01      	ldr	r2, [sp, #4]
 8003c46:	0692      	lsls	r2, r2, #26
 8003c48:	d4f8      	bmi.n	8003c3c <USB_OTG_FlushTxFifo+0x20>
 8003c4a:	2003      	movs	r0, #3
 8003c4c:	f7ff fe6c 	bl	8003928 <USB_OTG_BSP_uDelay>
 8003c50:	2000      	movs	r0, #0
 8003c52:	b002      	add	sp, #8
 8003c54:	f85d fb04 	ldr.w	pc, [sp], #4
 8003c58:	00030d41 	.word	0x00030d41

08003c5c <USB_OTG_SetCurrentMode>:
 8003c5c:	68c0      	ldr	r0, [r0, #12]
 8003c5e:	68c3      	ldr	r3, [r0, #12]
 8003c60:	b2c9      	uxtb	r1, r1
 8003c62:	f3c3 6207 	ubfx	r2, r3, #24, #8
 8003c66:	f022 0260 	bic.w	r2, r2, #96	@ 0x60
 8003c6a:	2901      	cmp	r1, #1
 8003c6c:	b500      	push	{lr}
 8003c6e:	f362 631f 	bfi	r3, r2, #24, #8
 8003c72:	d009      	beq.n	8003c88 <USB_OTG_SetCurrentMode+0x2c>
 8003c74:	b909      	cbnz	r1, 8003c7a <USB_OTG_SetCurrentMode+0x1e>
 8003c76:	f043 4380 	orr.w	r3, r3, #1073741824	@ 0x40000000
 8003c7a:	60c3      	str	r3, [r0, #12]
 8003c7c:	2032      	movs	r0, #50	@ 0x32
 8003c7e:	f7ff fe55 	bl	800392c <USB_OTG_BSP_mDelay>
 8003c82:	2000      	movs	r0, #0
 8003c84:	f85d fb04 	ldr.w	pc, [sp], #4
 8003c88:	f043 5300 	orr.w	r3, r3, #536870912	@ 0x20000000
 8003c8c:	e7f5      	b.n	8003c7a <USB_OTG_SetCurrentMode+0x1e>
 8003c8e:	bf00      	nop

08003c90 <USB_OTG_IsDeviceMode>:
 8003c90:	68c3      	ldr	r3, [r0, #12]
 8003c92:	6958      	ldr	r0, [r3, #20]
 8003c94:	43c0      	mvns	r0, r0
 8003c96:	f000 0001 	and.w	r0, r0, #1
 8003c9a:	4770      	bx	lr

08003c9c <USB_OTG_ReadCoreItr>:
 8003c9c:	68c3      	ldr	r3, [r0, #12]
 8003c9e:	6958      	ldr	r0, [r3, #20]
 8003ca0:	699b      	ldr	r3, [r3, #24]
 8003ca2:	4018      	ands	r0, r3
 8003ca4:	4770      	bx	lr
 8003ca6:	bf00      	nop

08003ca8 <USB_OTG_EnableDevInt>:
 8003ca8:	b410      	push	{r4}
 8003caa:	68c3      	ldr	r3, [r0, #12]
 8003cac:	4c0a      	ldr	r4, [pc, #40]	@ (8003cd8 <USB_OTG_EnableDevInt+0x30>)
 8003cae:	f04f 31ff 	mov.w	r1, #4294967295	@ 0xffffffff
 8003cb2:	4602      	mov	r2, r0
 8003cb4:	2000      	movs	r0, #0
 8003cb6:	6198      	str	r0, [r3, #24]
 8003cb8:	6159      	str	r1, [r3, #20]
 8003cba:	6059      	str	r1, [r3, #4]
 8003cbc:	6159      	str	r1, [r3, #20]
 8003cbe:	619c      	str	r4, [r3, #24]
 8003cc0:	78d1      	ldrb	r1, [r2, #3]
 8003cc2:	4a06      	ldr	r2, [pc, #24]	@ (8003cdc <USB_OTG_EnableDevInt+0x34>)
 8003cc4:	699c      	ldr	r4, [r3, #24]
 8003cc6:	fab1 f181 	clz	r1, r1
 8003cca:	0949      	lsrs	r1, r1, #5
 8003ccc:	ea42 1201 	orr.w	r2, r2, r1, lsl #4
 8003cd0:	4322      	orrs	r2, r4
 8003cd2:	619a      	str	r2, [r3, #24]
 8003cd4:	bc10      	pop	{r4}
 8003cd6:	4770      	bx	lr
 8003cd8:	80000800 	.word	0x80000800
 8003cdc:	403c380c 	.word	0x403c380c

08003ce0 <USB_OTG_CoreInitDev>:
 8003ce0:	b5f0      	push	{r4, r5, r6, r7, lr}
 8003ce2:	4604      	mov	r4, r0
 8003ce4:	2000      	movs	r0, #0
 8003ce6:	f8d4 310c 	ldr.w	r3, [r4, #268]	@ 0x10c
 8003cea:	6922      	ldr	r2, [r4, #16]
 8003cec:	68e1      	ldr	r1, [r4, #12]
 8003cee:	b082      	sub	sp, #8
 8003cf0:	6018      	str	r0, [r3, #0]
 8003cf2:	6813      	ldr	r3, [r2, #0]
 8003cf4:	f360 23cc 	bfi	r3, r0, #11, #2
 8003cf8:	6013      	str	r3, [r2, #0]
 8003cfa:	7ae3      	ldrb	r3, [r4, #11]
 8003cfc:	2b01      	cmp	r3, #1
 8003cfe:	d111      	bne.n	8003d24 <USB_OTG_CoreInitDev+0x44>
 8003d00:	6813      	ldr	r3, [r2, #0]
 8003d02:	483e      	ldr	r0, [pc, #248]	@ (8003dfc <USB_OTG_CoreInitDev+0x11c>)
 8003d04:	f043 0303 	orr.w	r3, r3, #3
 8003d08:	6013      	str	r3, [r2, #0]
 8003d0a:	2580      	movs	r5, #128	@ 0x80
 8003d0c:	4b3c      	ldr	r3, [pc, #240]	@ (8003e00 <USB_OTG_CoreInitDev+0x120>)
 8003d0e:	624d      	str	r5, [r1, #36]	@ 0x24
 8003d10:	4a3c      	ldr	r2, [pc, #240]	@ (8003e04 <USB_OTG_CoreInitDev+0x124>)
 8003d12:	6288      	str	r0, [r1, #40]	@ 0x28
 8003d14:	f8c1 3104 	str.w	r3, [r1, #260]	@ 0x104
 8003d18:	f44f 73a0 	mov.w	r3, #320	@ 0x140
 8003d1c:	f8c1 2108 	str.w	r2, [r1, #264]	@ 0x108
 8003d20:	f8c1 310c 	str.w	r3, [r1, #268]	@ 0x10c
 8003d24:	2300      	movs	r3, #0
 8003d26:	9301      	str	r3, [sp, #4]
 8003d28:	9b01      	ldr	r3, [sp, #4]
 8003d2a:	f043 0320 	orr.w	r3, r3, #32
 8003d2e:	9301      	str	r3, [sp, #4]
 8003d30:	9a01      	ldr	r2, [sp, #4]
 8003d32:	4b35      	ldr	r3, [pc, #212]	@ (8003e08 <USB_OTG_CoreInitDev+0x128>)
 8003d34:	2010      	movs	r0, #16
 8003d36:	f360 128a 	bfi	r2, r0, #6, #5
 8003d3a:	9201      	str	r2, [sp, #4]
 8003d3c:	9a01      	ldr	r2, [sp, #4]
 8003d3e:	610a      	str	r2, [r1, #16]
 8003d40:	690a      	ldr	r2, [r1, #16]
 8003d42:	9201      	str	r2, [sp, #4]
 8003d44:	3b01      	subs	r3, #1
 8003d46:	d002      	beq.n	8003d4e <USB_OTG_CoreInitDev+0x6e>
 8003d48:	9a01      	ldr	r2, [sp, #4]
 8003d4a:	0690      	lsls	r0, r2, #26
 8003d4c:	d4f8      	bmi.n	8003d40 <USB_OTG_CoreInitDev+0x60>
 8003d4e:	2003      	movs	r0, #3
 8003d50:	f7ff fdea 	bl	8003928 <USB_OTG_BSP_uDelay>
 8003d54:	2200      	movs	r2, #0
 8003d56:	9200      	str	r2, [sp, #0]
 8003d58:	9a00      	ldr	r2, [sp, #0]
 8003d5a:	68e1      	ldr	r1, [r4, #12]
 8003d5c:	4b2a      	ldr	r3, [pc, #168]	@ (8003e08 <USB_OTG_CoreInitDev+0x128>)
 8003d5e:	f042 0210 	orr.w	r2, r2, #16
 8003d62:	9200      	str	r2, [sp, #0]
 8003d64:	9a00      	ldr	r2, [sp, #0]
 8003d66:	610a      	str	r2, [r1, #16]
 8003d68:	690a      	ldr	r2, [r1, #16]
 8003d6a:	9200      	str	r2, [sp, #0]
 8003d6c:	3b01      	subs	r3, #1
 8003d6e:	d002      	beq.n	8003d76 <USB_OTG_CoreInitDev+0x96>
 8003d70:	9a00      	ldr	r2, [sp, #0]
 8003d72:	06d2      	lsls	r2, r2, #27
 8003d74:	d4f8      	bmi.n	8003d68 <USB_OTG_CoreInitDev+0x88>
 8003d76:	2003      	movs	r0, #3
 8003d78:	f7ff fdd6 	bl	8003928 <USB_OTG_BSP_uDelay>
 8003d7c:	6926      	ldr	r6, [r4, #16]
 8003d7e:	2500      	movs	r5, #0
 8003d80:	f04f 33ff 	mov.w	r3, #4294967295	@ 0xffffffff
 8003d84:	6135      	str	r5, [r6, #16]
 8003d86:	6175      	str	r5, [r6, #20]
 8003d88:	61b3      	str	r3, [r6, #24]
 8003d8a:	61f5      	str	r5, [r6, #28]
 8003d8c:	7860      	ldrb	r0, [r4, #1]
 8003d8e:	b330      	cbz	r0, 8003dde <USB_OTG_CoreInitDev+0xfe>
 8003d90:	f104 0214 	add.w	r2, r4, #20
 8003d94:	ea4f 0c80 	mov.w	ip, r0, lsl #2
 8003d98:	27ff      	movs	r7, #255	@ 0xff
 8003d9a:	eb02 0080 	add.w	r0, r2, r0, lsl #2
 8003d9e:	f852 3f04 	ldr.w	r3, [r2, #4]!
 8003da2:	6819      	ldr	r1, [r3, #0]
 8003da4:	2900      	cmp	r1, #0
 8003da6:	bfb4      	ite	lt
 8003da8:	f04f 4190 	movlt.w	r1, #1207959552	@ 0x48000000
 8003dac:	2100      	movge	r1, #0
 8003dae:	4282      	cmp	r2, r0
 8003db0:	6019      	str	r1, [r3, #0]
 8003db2:	611d      	str	r5, [r3, #16]
 8003db4:	609f      	str	r7, [r3, #8]
 8003db6:	d1f2      	bne.n	8003d9e <USB_OTG_CoreInitDev+0xbe>
 8003db8:	f104 0250 	add.w	r2, r4, #80	@ 0x50
 8003dbc:	eb02 000c 	add.w	r0, r2, ip
 8003dc0:	2700      	movs	r7, #0
 8003dc2:	25ff      	movs	r5, #255	@ 0xff
 8003dc4:	f852 3f04 	ldr.w	r3, [r2, #4]!
 8003dc8:	6819      	ldr	r1, [r3, #0]
 8003dca:	2900      	cmp	r1, #0
 8003dcc:	bfb4      	ite	lt
 8003dce:	f04f 4190 	movlt.w	r1, #1207959552	@ 0x48000000
 8003dd2:	2100      	movge	r1, #0
 8003dd4:	4290      	cmp	r0, r2
 8003dd6:	6019      	str	r1, [r3, #0]
 8003dd8:	611f      	str	r7, [r3, #16]
 8003dda:	609d      	str	r5, [r3, #8]
 8003ddc:	d1f2      	bne.n	8003dc4 <USB_OTG_CoreInitDev+0xe4>
 8003dde:	6933      	ldr	r3, [r6, #16]
 8003de0:	f443 7380 	orr.w	r3, r3, #256	@ 0x100
 8003de4:	6133      	str	r3, [r6, #16]
 8003de6:	78e3      	ldrb	r3, [r4, #3]
 8003de8:	2b01      	cmp	r3, #1
 8003dea:	d101      	bne.n	8003df0 <USB_OTG_CoreInitDev+0x110>
 8003dec:	4b07      	ldr	r3, [pc, #28]	@ (8003e0c <USB_OTG_CoreInitDev+0x12c>)
 8003dee:	6333      	str	r3, [r6, #48]	@ 0x30
 8003df0:	4620      	mov	r0, r4
 8003df2:	f7ff ff59 	bl	8003ca8 <USB_OTG_EnableDevInt>
 8003df6:	2000      	movs	r0, #0
 8003df8:	b002      	add	sp, #8
 8003dfa:	bdf0      	pop	{r4, r5, r6, r7, pc}
 8003dfc:	00200080 	.word	0x00200080
 8003e00:	008000a0 	.word	0x008000a0
 8003e04:	00200120 	.word	0x00200120
 8003e08:	00030d41 	.word	0x00030d41
 8003e0c:	00810103 	.word	0x00810103

08003e10 <USB_OTG_GetDeviceSpeed>:
 8003e10:	6903      	ldr	r3, [r0, #16]
 8003e12:	6898      	ldr	r0, [r3, #8]
 8003e14:	f3c0 0041 	ubfx	r0, r0, #1, #2
 8003e18:	2802      	cmp	r0, #2
 8003e1a:	bf1a      	itte	ne
 8003e1c:	f000 0001 	andne.w	r0, r0, #1
 8003e20:	f1c0 0003 	rsbne	r0, r0, #3
 8003e24:	2001      	moveq	r0, #1
 8003e26:	4770      	bx	lr

08003e28 <USB_OTG_EP0Activate>:
 8003e28:	6903      	ldr	r3, [r0, #16]
 8003e2a:	6981      	ldr	r1, [r0, #24]
 8003e2c:	689a      	ldr	r2, [r3, #8]
 8003e2e:	6808      	ldr	r0, [r1, #0]
 8003e30:	f3c2 0241 	ubfx	r2, r2, #1, #2
 8003e34:	2a02      	cmp	r2, #2
 8003e36:	bf0c      	ite	eq
 8003e38:	2203      	moveq	r2, #3
 8003e3a:	2200      	movne	r2, #0
 8003e3c:	f362 000a 	bfi	r0, r2, #0, #11
 8003e40:	6008      	str	r0, [r1, #0]
 8003e42:	685a      	ldr	r2, [r3, #4]
 8003e44:	f442 7280 	orr.w	r2, r2, #256	@ 0x100
 8003e48:	2000      	movs	r0, #0
 8003e4a:	605a      	str	r2, [r3, #4]
 8003e4c:	4770      	bx	lr
 8003e4e:	bf00      	nop

08003e50 <USB_OTG_EPActivate>:
 8003e50:	b430      	push	{r4, r5}
 8003e52:	784c      	ldrb	r4, [r1, #1]
 8003e54:	f891 c000 	ldrb.w	ip, [r1]
 8003e58:	2c01      	cmp	r4, #1
 8003e5a:	f04f 0301 	mov.w	r3, #1
 8003e5e:	fa03 f30c 	lsl.w	r3, r3, ip
 8003e62:	bf0c      	ite	eq
 8003e64:	f10c 0c06 	addeq.w	ip, ip, #6
 8003e68:	f10c 0c15 	addne.w	ip, ip, #21
 8003e6c:	b29b      	uxth	r3, r3
 8003e6e:	f850 402c 	ldr.w	r4, [r0, ip, lsl #2]
 8003e72:	6825      	ldr	r5, [r4, #0]
 8003e74:	f04f 0200 	mov.w	r2, #0
 8003e78:	bf0c      	ite	eq
 8003e7a:	f363 020f 	bfieq	r2, r3, #0, #16
 8003e7e:	f363 421f 	bfine	r2, r3, #16, #16
 8003e82:	042b      	lsls	r3, r5, #16
 8003e84:	d415      	bmi.n	8003eb2 <USB_OTG_EPActivate+0x62>
 8003e86:	688b      	ldr	r3, [r1, #8]
 8003e88:	f891 c003 	ldrb.w	ip, [r1, #3]
 8003e8c:	88c9      	ldrh	r1, [r1, #6]
 8003e8e:	f3c3 030a 	ubfx	r3, r3, #0, #11
 8003e92:	f043 5380 	orr.w	r3, r3, #268435456	@ 0x10000000
 8003e96:	f443 4300 	orr.w	r3, r3, #32768	@ 0x8000
 8003e9a:	f00c 0c03 	and.w	ip, ip, #3
 8003e9e:	f001 010f 	and.w	r1, r1, #15
 8003ea2:	ea43 438c 	orr.w	r3, r3, ip, lsl #18
 8003ea6:	ea43 5381 	orr.w	r3, r3, r1, lsl #22
 8003eaa:	4905      	ldr	r1, [pc, #20]	@ (8003ec0 <USB_OTG_EPActivate+0x70>)
 8003eac:	4029      	ands	r1, r5
 8003eae:	430b      	orrs	r3, r1
 8003eb0:	6023      	str	r3, [r4, #0]
 8003eb2:	6903      	ldr	r3, [r0, #16]
 8003eb4:	69d9      	ldr	r1, [r3, #28]
 8003eb6:	430a      	orrs	r2, r1
 8003eb8:	2000      	movs	r0, #0
 8003eba:	bc30      	pop	{r4, r5}
 8003ebc:	61da      	str	r2, [r3, #28]
 8003ebe:	4770      	bx	lr
 8003ec0:	ec337800 	.word	0xec337800

08003ec4 <USB_OTG_EPDeactivate>:
 8003ec4:	f891 c001 	ldrb.w	ip, [r1, #1]
 8003ec8:	780a      	ldrb	r2, [r1, #0]
 8003eca:	f1bc 0f01 	cmp.w	ip, #1
 8003ece:	f04f 0301 	mov.w	r3, #1
 8003ed2:	fa03 f302 	lsl.w	r3, r3, r2
 8003ed6:	bf0c      	ite	eq
 8003ed8:	3206      	addeq	r2, #6
 8003eda:	3215      	addne	r2, #21
 8003edc:	f04f 0100 	mov.w	r1, #0
 8003ee0:	b29b      	uxth	r3, r3
 8003ee2:	bf0c      	ite	eq
 8003ee4:	f363 010f 	bfieq	r1, r3, #0, #16
 8003ee8:	f363 411f 	bfine	r1, r3, #16, #16
 8003eec:	f850 3022 	ldr.w	r3, [r0, r2, lsl #2]
 8003ef0:	6902      	ldr	r2, [r0, #16]
 8003ef2:	2000      	movs	r0, #0
 8003ef4:	6018      	str	r0, [r3, #0]
 8003ef6:	69d3      	ldr	r3, [r2, #28]
 8003ef8:	ea23 0301 	bic.w	r3, r3, r1
 8003efc:	61d3      	str	r3, [r2, #28]
 8003efe:	4770      	bx	lr

08003f00 <USB_OTG_EPStartXfer>:
 8003f00:	e92d 47f0 	stmdb	sp!, {r4, r5, r6, r7, r8, r9, sl, lr}
 8003f04:	784d      	ldrb	r5, [r1, #1]
 8003f06:	780a      	ldrb	r2, [r1, #0]
 8003f08:	694b      	ldr	r3, [r1, #20]
 8003f0a:	f891 c003 	ldrb.w	ip, [r1, #3]
 8003f0e:	2d01      	cmp	r5, #1
 8003f10:	d02c      	beq.n	8003f6c <USB_OTG_EPStartXfer+0x6c>
 8003f12:	3215      	adds	r2, #21
 8003f14:	688f      	ldr	r7, [r1, #8]
 8003f16:	f850 5022 	ldr.w	r5, [r0, r2, lsl #2]
 8003f1a:	f3c7 0212 	ubfx	r2, r7, #0, #19
 8003f1e:	682c      	ldr	r4, [r5, #0]
 8003f20:	692e      	ldr	r6, [r5, #16]
 8003f22:	b30b      	cbz	r3, 8003f68 <USB_OTG_EPStartXfer+0x68>
 8003f24:	443b      	add	r3, r7
 8003f26:	3b01      	subs	r3, #1
 8003f28:	fbb3 f3f7 	udiv	r3, r3, r7
 8003f2c:	f3c3 0709 	ubfx	r7, r3, #0, #10
 8003f30:	fb07 f202 	mul.w	r2, r7, r2
 8003f34:	463b      	mov	r3, r7
 8003f36:	f3c2 0212 	ubfx	r2, r2, #0, #19
 8003f3a:	ea42 42c3 	orr.w	r2, r2, r3, lsl #19
 8003f3e:	f362 061c 	bfi	r6, r2, #0, #29
 8003f42:	612e      	str	r6, [r5, #16]
 8003f44:	78c3      	ldrb	r3, [r0, #3]
 8003f46:	2b01      	cmp	r3, #1
 8003f48:	bf04      	itt	eq
 8003f4a:	690b      	ldreq	r3, [r1, #16]
 8003f4c:	616b      	streq	r3, [r5, #20]
 8003f4e:	f1bc 0f01 	cmp.w	ip, #1
 8003f52:	d03f      	beq.n	8003fd4 <USB_OTG_EPStartXfer+0xd4>
 8003f54:	f3c4 6307 	ubfx	r3, r4, #24, #8
 8003f58:	f063 037b 	orn	r3, r3, #123	@ 0x7b
 8003f5c:	f363 641f 	bfi	r4, r3, #24, #8
 8003f60:	602c      	str	r4, [r5, #0]
 8003f62:	2000      	movs	r0, #0
 8003f64:	e8bd 87f0 	ldmia.w	sp!, {r4, r5, r6, r7, r8, r9, sl, pc}
 8003f68:	2301      	movs	r3, #1
 8003f6a:	e7e6      	b.n	8003f3a <USB_OTG_EPStartXfer+0x3a>
 8003f6c:	eb00 0882 	add.w	r8, r0, r2, lsl #2
 8003f70:	f8d8 e018 	ldr.w	lr, [r8, #24]
 8003f74:	f8de 4000 	ldr.w	r4, [lr]
 8003f78:	f8de 6010 	ldr.w	r6, [lr, #16]
 8003f7c:	f006 4660 	and.w	r6, r6, #3758096384	@ 0xe0000000
 8003f80:	b36b      	cbz	r3, 8003fde <USB_OTG_EPStartXfer+0xde>
 8003f82:	f8d1 a008 	ldr.w	sl, [r1, #8]
 8003f86:	4f37      	ldr	r7, [pc, #220]	@ (8004064 <USB_OTG_EPStartXfer+0x164>)
 8003f88:	eb0a 0903 	add.w	r9, sl, r3
 8003f8c:	f109 39ff 	add.w	r9, r9, #4294967295	@ 0xffffffff
 8003f90:	fbb9 f9fa 	udiv	r9, r9, sl
 8003f94:	ea07 47c9 	and.w	r7, r7, r9, lsl #19
 8003f98:	f3c3 0912 	ubfx	r9, r3, #0, #19
 8003f9c:	ea47 0709 	orr.w	r7, r7, r9
 8003fa0:	4337      	orrs	r7, r6
 8003fa2:	f1bc 0f01 	cmp.w	ip, #1
 8003fa6:	463e      	mov	r6, r7
 8003fa8:	d046      	beq.n	8004038 <USB_OTG_EPStartXfer+0x138>
 8003faa:	f8ce 7010 	str.w	r7, [lr, #16]
 8003fae:	78c3      	ldrb	r3, [r0, #3]
 8003fb0:	2b01      	cmp	r3, #1
 8003fb2:	d053      	beq.n	800405c <USB_OTG_EPStartXfer+0x15c>
 8003fb4:	6903      	ldr	r3, [r0, #16]
 8003fb6:	4095      	lsls	r5, r2
 8003fb8:	6b5a      	ldr	r2, [r3, #52]	@ 0x34
 8003fba:	4315      	orrs	r5, r2
 8003fbc:	635d      	str	r5, [r3, #52]	@ 0x34
 8003fbe:	f3c4 6307 	ubfx	r3, r4, #24, #8
 8003fc2:	f063 037b 	orn	r3, r3, #123	@ 0x7b
 8003fc6:	f363 641f 	bfi	r4, r3, #24, #8
 8003fca:	f8ce 4000 	str.w	r4, [lr]
 8003fce:	2000      	movs	r0, #0
 8003fd0:	e8bd 87f0 	ldmia.w	sp!, {r4, r5, r6, r7, r8, r9, sl, pc}
 8003fd4:	794b      	ldrb	r3, [r1, #5]
 8003fd6:	b363      	cbz	r3, 8004032 <USB_OTG_EPStartXfer+0x132>
 8003fd8:	f044 5400 	orr.w	r4, r4, #536870912	@ 0x20000000
 8003fdc:	e7ba      	b.n	8003f54 <USB_OTG_EPStartXfer+0x54>
 8003fde:	f446 2600 	orr.w	r6, r6, #524288	@ 0x80000
 8003fe2:	f8ce 6010 	str.w	r6, [lr, #16]
 8003fe6:	78c5      	ldrb	r5, [r0, #3]
 8003fe8:	2d01      	cmp	r5, #1
 8003fea:	d030      	beq.n	800404e <USB_OTG_EPStartXfer+0x14e>
 8003fec:	f1bc 0f01 	cmp.w	ip, #1
 8003ff0:	d1e5      	bne.n	8003fbe <USB_OTG_EPStartXfer+0xbe>
 8003ff2:	6902      	ldr	r2, [r0, #16]
 8003ff4:	6892      	ldr	r2, [r2, #8]
 8003ff6:	f412 7f80 	tst.w	r2, #256	@ 0x100
 8003ffa:	f3c4 6207 	ubfx	r2, r4, #24, #8
 8003ffe:	bf0c      	ite	eq
 8004000:	f062 025b 	orneq	r2, r2, #91	@ 0x5b
 8004004:	f062 026b 	ornne	r2, r2, #107	@ 0x6b
 8004008:	f362 641f 	bfi	r4, r2, #24, #8
 800400c:	f8ce 4000 	str.w	r4, [lr]
 8004010:	2d00      	cmp	r5, #0
 8004012:	d1a6      	bne.n	8003f62 <USB_OTG_EPStartXfer+0x62>
 8004014:	b298      	uxth	r0, r3
 8004016:	3003      	adds	r0, #3
 8004018:	1080      	asrs	r0, r0, #2
 800401a:	f8d8 40d0 	ldr.w	r4, [r8, #208]	@ 0xd0
 800401e:	d0a0      	beq.n	8003f62 <USB_OTG_EPStartXfer+0x62>
 8004020:	68ca      	ldr	r2, [r1, #12]
 8004022:	462b      	mov	r3, r5
 8004024:	3301      	adds	r3, #1
 8004026:	f852 1b04 	ldr.w	r1, [r2], #4
 800402a:	6021      	str	r1, [r4, #0]
 800402c:	4298      	cmp	r0, r3
 800402e:	d1f9      	bne.n	8004024 <USB_OTG_EPStartXfer+0x124>
 8004030:	e797      	b.n	8003f62 <USB_OTG_EPStartXfer+0x62>
 8004032:	f044 5480 	orr.w	r4, r4, #268435456	@ 0x10000000
 8004036:	e78d      	b.n	8003f54 <USB_OTG_EPStartXfer+0x54>
 8004038:	f36c 765e 	bfi	r6, ip, #29, #2
 800403c:	f8ce 6010 	str.w	r6, [lr, #16]
 8004040:	78c5      	ldrb	r5, [r0, #3]
 8004042:	2d01      	cmp	r5, #1
 8004044:	d1d5      	bne.n	8003ff2 <USB_OTG_EPStartXfer+0xf2>
 8004046:	690a      	ldr	r2, [r1, #16]
 8004048:	f8ce 2014 	str.w	r2, [lr, #20]
 800404c:	e7d1      	b.n	8003ff2 <USB_OTG_EPStartXfer+0xf2>
 800404e:	690a      	ldr	r2, [r1, #16]
 8004050:	f8ce 2014 	str.w	r2, [lr, #20]
 8004054:	f1bc 0f01 	cmp.w	ip, #1
 8004058:	d1b1      	bne.n	8003fbe <USB_OTG_EPStartXfer+0xbe>
 800405a:	e7ca      	b.n	8003ff2 <USB_OTG_EPStartXfer+0xf2>
 800405c:	690b      	ldr	r3, [r1, #16]
 800405e:	f8ce 3014 	str.w	r3, [lr, #20]
 8004062:	e7ac      	b.n	8003fbe <USB_OTG_EPStartXfer+0xbe>
 8004064:	1ff80000 	.word	0x1ff80000

08004068 <USB_OTG_EP0StartXfer>:
 8004068:	b470      	push	{r4, r5, r6}
 800406a:	784b      	ldrb	r3, [r1, #1]
 800406c:	694d      	ldr	r5, [r1, #20]
 800406e:	2b01      	cmp	r3, #1
 8004070:	d022      	beq.n	80040b8 <USB_OTG_EP0StartXfer+0x50>
 8004072:	780b      	ldrb	r3, [r1, #0]
 8004074:	688a      	ldr	r2, [r1, #8]
 8004076:	3315      	adds	r3, #21
 8004078:	f850 6023 	ldr.w	r6, [r0, r3, lsl #2]
 800407c:	6834      	ldr	r4, [r6, #0]
 800407e:	6933      	ldr	r3, [r6, #16]
 8004080:	b9c5      	cbnz	r5, 80040b4 <USB_OTG_EP0StartXfer+0x4c>
 8004082:	f423 13c0 	bic.w	r3, r3, #1572864	@ 0x180000
 8004086:	f002 027f 	and.w	r2, r2, #127	@ 0x7f
 800408a:	f442 2200 	orr.w	r2, r2, #524288	@ 0x80000
 800408e:	f023 037f 	bic.w	r3, r3, #127	@ 0x7f
 8004092:	4313      	orrs	r3, r2
 8004094:	6133      	str	r3, [r6, #16]
 8004096:	78c3      	ldrb	r3, [r0, #3]
 8004098:	2b01      	cmp	r3, #1
 800409a:	bf04      	itt	eq
 800409c:	690b      	ldreq	r3, [r1, #16]
 800409e:	6173      	streq	r3, [r6, #20]
 80040a0:	f3c4 6307 	ubfx	r3, r4, #24, #8
 80040a4:	f063 037b 	orn	r3, r3, #123	@ 0x7b
 80040a8:	f363 641f 	bfi	r4, r3, #24, #8
 80040ac:	6034      	str	r4, [r6, #0]
 80040ae:	2000      	movs	r0, #0
 80040b0:	bc70      	pop	{r4, r5, r6}
 80040b2:	4770      	bx	lr
 80040b4:	614a      	str	r2, [r1, #20]
 80040b6:	e7e4      	b.n	8004082 <USB_OTG_EP0StartXfer+0x1a>
 80040b8:	6982      	ldr	r2, [r0, #24]
 80040ba:	6814      	ldr	r4, [r2, #0]
 80040bc:	6913      	ldr	r3, [r2, #16]
 80040be:	b9f5      	cbnz	r5, 80040fe <USB_OTG_EP0StartXfer+0x96>
 80040c0:	f423 13c0 	bic.w	r3, r3, #1572864	@ 0x180000
 80040c4:	f023 037f 	bic.w	r3, r3, #127	@ 0x7f
 80040c8:	f445 2500 	orr.w	r5, r5, #524288	@ 0x80000
 80040cc:	432b      	orrs	r3, r5
 80040ce:	6113      	str	r3, [r2, #16]
 80040d0:	78c3      	ldrb	r3, [r0, #3]
 80040d2:	2b01      	cmp	r3, #1
 80040d4:	d01c      	beq.n	8004110 <USB_OTG_EP0StartXfer+0xa8>
 80040d6:	f3c4 6507 	ubfx	r5, r4, #24, #8
 80040da:	f065 057b 	orn	r5, r5, #123	@ 0x7b
 80040de:	f365 641f 	bfi	r4, r5, #24, #8
 80040e2:	6014      	str	r4, [r2, #0]
 80040e4:	2b00      	cmp	r3, #0
 80040e6:	d1e2      	bne.n	80040ae <USB_OTG_EP0StartXfer+0x46>
 80040e8:	694b      	ldr	r3, [r1, #20]
 80040ea:	2b00      	cmp	r3, #0
 80040ec:	d0df      	beq.n	80040ae <USB_OTG_EP0StartXfer+0x46>
 80040ee:	6902      	ldr	r2, [r0, #16]
 80040f0:	7808      	ldrb	r0, [r1, #0]
 80040f2:	6b51      	ldr	r1, [r2, #52]	@ 0x34
 80040f4:	2301      	movs	r3, #1
 80040f6:	4083      	lsls	r3, r0
 80040f8:	430b      	orrs	r3, r1
 80040fa:	6353      	str	r3, [r2, #52]	@ 0x34
 80040fc:	e7d7      	b.n	80040ae <USB_OTG_EP0StartXfer+0x46>
 80040fe:	688e      	ldr	r6, [r1, #8]
 8004100:	42ae      	cmp	r6, r5
 8004102:	bf3a      	itte	cc
 8004104:	614e      	strcc	r6, [r1, #20]
 8004106:	f006 057f 	andcc.w	r5, r6, #127	@ 0x7f
 800410a:	f005 057f 	andcs.w	r5, r5, #127	@ 0x7f
 800410e:	e7d7      	b.n	80040c0 <USB_OTG_EP0StartXfer+0x58>
 8004110:	780b      	ldrb	r3, [r1, #0]
 8004112:	690d      	ldr	r5, [r1, #16]
 8004114:	3306      	adds	r3, #6
 8004116:	f850 1023 	ldr.w	r1, [r0, r3, lsl #2]
 800411a:	f3c4 6307 	ubfx	r3, r4, #24, #8
 800411e:	f063 037b 	orn	r3, r3, #123	@ 0x7b
 8004122:	f363 641f 	bfi	r4, r3, #24, #8
 8004126:	614d      	str	r5, [r1, #20]
 8004128:	2000      	movs	r0, #0
 800412a:	6014      	str	r4, [r2, #0]
 800412c:	bc70      	pop	{r4, r5, r6}
 800412e:	4770      	bx	lr

08004130 <USB_OTG_EPSetStall>:
 8004130:	784b      	ldrb	r3, [r1, #1]
 8004132:	2b01      	cmp	r3, #1
 8004134:	d009      	beq.n	800414a <USB_OTG_EPSetStall+0x1a>
 8004136:	780b      	ldrb	r3, [r1, #0]
 8004138:	3315      	adds	r3, #21
 800413a:	f850 2023 	ldr.w	r2, [r0, r3, lsl #2]
 800413e:	6813      	ldr	r3, [r2, #0]
 8004140:	f443 1300 	orr.w	r3, r3, #2097152	@ 0x200000
 8004144:	6013      	str	r3, [r2, #0]
 8004146:	2000      	movs	r0, #0
 8004148:	4770      	bx	lr
 800414a:	780a      	ldrb	r2, [r1, #0]
 800414c:	4909      	ldr	r1, [pc, #36]	@ (8004174 <USB_OTG_EPSetStall+0x44>)
 800414e:	3206      	adds	r2, #6
 8004150:	f850 0022 	ldr.w	r0, [r0, r2, lsl #2]
 8004154:	6802      	ldr	r2, [r0, #0]
 8004156:	2a00      	cmp	r2, #0
 8004158:	bfa8      	it	ge
 800415a:	f3c2 7380 	ubfxge	r3, r2, #30, #1
 800415e:	039b      	lsls	r3, r3, #14
 8004160:	ea01 4112 	and.w	r1, r1, r2, lsr #16
 8004164:	f043 0320 	orr.w	r3, r3, #32
 8004168:	430b      	orrs	r3, r1
 800416a:	f363 421f 	bfi	r2, r3, #16, #16
 800416e:	6002      	str	r2, [r0, #0]
 8004170:	2000      	movs	r0, #0
 8004172:	4770      	bx	lr
 8004174:	ffffbfdf 	.word	0xffffbfdf

08004178 <USB_OTG_EPClearStall>:
 8004178:	784a      	ldrb	r2, [r1, #1]
 800417a:	780b      	ldrb	r3, [r1, #0]
 800417c:	2a01      	cmp	r2, #1
 800417e:	bf0c      	ite	eq
 8004180:	3306      	addeq	r3, #6
 8004182:	3315      	addne	r3, #21
 8004184:	78ca      	ldrb	r2, [r1, #3]
 8004186:	f850 0023 	ldr.w	r0, [r0, r3, lsl #2]
 800418a:	6803      	ldr	r3, [r0, #0]
 800418c:	3a02      	subs	r2, #2
 800418e:	2a01      	cmp	r2, #1
 8004190:	f423 1300 	bic.w	r3, r3, #2097152	@ 0x200000
 8004194:	bf8c      	ite	hi
 8004196:	f3c3 7200 	ubfxhi	r2, r3, #28, #1
 800419a:	2201      	movls	r2, #1
 800419c:	f362 731c 	bfi	r3, r2, #28, #1
 80041a0:	6003      	str	r3, [r0, #0]
 80041a2:	2000      	movs	r0, #0
 80041a4:	4770      	bx	lr
 80041a6:	bf00      	nop

080041a8 <USB_OTG_ReadDevAllOutEp_itr>:
 80041a8:	6903      	ldr	r3, [r0, #16]
 80041aa:	6998      	ldr	r0, [r3, #24]
 80041ac:	69db      	ldr	r3, [r3, #28]
 80041ae:	4018      	ands	r0, r3
 80041b0:	0c00      	lsrs	r0, r0, #16
 80041b2:	4770      	bx	lr

080041b4 <USB_OTG_ReadDevOutEP_itr>:
 80041b4:	b2c9      	uxtb	r1, r1
 80041b6:	3115      	adds	r1, #21
 80041b8:	6903      	ldr	r3, [r0, #16]
 80041ba:	f850 2021 	ldr.w	r2, [r0, r1, lsl #2]
 80041be:	6890      	ldr	r0, [r2, #8]
 80041c0:	695b      	ldr	r3, [r3, #20]
 80041c2:	4018      	ands	r0, r3
 80041c4:	4770      	bx	lr
 80041c6:	bf00      	nop

080041c8 <USB_OTG_ReadDevAllInEPItr>:
 80041c8:	6903      	ldr	r3, [r0, #16]
 80041ca:	6998      	ldr	r0, [r3, #24]
 80041cc:	69db      	ldr	r3, [r3, #28]
 80041ce:	4018      	ands	r0, r3
 80041d0:	b280      	uxth	r0, r0
 80041d2:	4770      	bx	lr

080041d4 <USB_OTG_EP0_OutStart>:
 80041d4:	6d43      	ldr	r3, [r0, #84]	@ 0x54
 80041d6:	4a06      	ldr	r2, [pc, #24]	@ (80041f0 <USB_OTG_EP0_OutStart+0x1c>)
 80041d8:	611a      	str	r2, [r3, #16]
 80041da:	78c2      	ldrb	r2, [r0, #3]
 80041dc:	2a01      	cmp	r2, #1
 80041de:	d106      	bne.n	80041ee <USB_OTG_EP0_OutStart+0x1a>
 80041e0:	f500 60b9 	add.w	r0, r0, #1480	@ 0x5c8
 80041e4:	6158      	str	r0, [r3, #20]
 80041e6:	f04f 2280 	mov.w	r2, #2147516416	@ 0x80008000
 80041ea:	6819      	ldr	r1, [r3, #0]
 80041ec:	601a      	str	r2, [r3, #0]
 80041ee:	4770      	bx	lr
 80041f0:	c0080018 	.word	0xc0080018

080041f4 <DCD_Init>:
 80041f4:	b5f0      	push	{r4, r5, r6, r7, lr}
 80041f6:	4606      	mov	r6, r0
 80041f8:	f7ff fbfa 	bl	80039f0 <USB_OTG_SelectCore>
 80041fc:	7875      	ldrb	r5, [r6, #1]
 80041fe:	2001      	movs	r0, #1
 8004200:	f8a6 0112 	strh.w	r0, [r6, #274]	@ 0x112
 8004204:	b36d      	cbz	r5, 8004262 <DCD_Init+0x6e>
 8004206:	2100      	movs	r1, #0
 8004208:	4633      	mov	r3, r6
 800420a:	4632      	mov	r2, r6
 800420c:	460c      	mov	r4, r1
 800420e:	2740      	movs	r7, #64	@ 0x40
 8004210:	f882 1118 	strb.w	r1, [r2, #280]	@ 0x118
 8004214:	f8a2 111e 	strh.w	r1, [r2, #286]	@ 0x11e
 8004218:	3101      	adds	r1, #1
 800421a:	42a9      	cmp	r1, r5
 800421c:	f882 0119 	strb.w	r0, [r2, #281]	@ 0x119
 8004220:	f882 411b 	strb.w	r4, [r2, #283]	@ 0x11b
 8004224:	f8c2 7120 	str.w	r7, [r2, #288]	@ 0x120
 8004228:	f8c2 4124 	str.w	r4, [r2, #292]	@ 0x124
 800422c:	f8c2 412c 	str.w	r4, [r2, #300]	@ 0x12c
 8004230:	f102 0228 	add.w	r2, r2, #40	@ 0x28
 8004234:	d1ec      	bne.n	8004210 <DCD_Init+0x1c>
 8004236:	2200      	movs	r2, #0
 8004238:	4611      	mov	r1, r2
 800423a:	2040      	movs	r0, #64	@ 0x40
 800423c:	f883 2370 	strb.w	r2, [r3, #880]	@ 0x370
 8004240:	f8a3 2376 	strh.w	r2, [r3, #886]	@ 0x376
 8004244:	3201      	adds	r2, #1
 8004246:	42aa      	cmp	r2, r5
 8004248:	f883 1371 	strb.w	r1, [r3, #881]	@ 0x371
 800424c:	f883 1373 	strb.w	r1, [r3, #883]	@ 0x373
 8004250:	f8c3 0378 	str.w	r0, [r3, #888]	@ 0x378
 8004254:	f8c3 137c 	str.w	r1, [r3, #892]	@ 0x37c
 8004258:	f8c3 1384 	str.w	r1, [r3, #900]	@ 0x384
 800425c:	f103 0328 	add.w	r3, r3, #40	@ 0x28
 8004260:	d1ec      	bne.n	800423c <DCD_Init+0x48>
 8004262:	4630      	mov	r0, r6
 8004264:	f7ff fcd2 	bl	8003c0c <USB_OTG_DisableGlobalInt>
 8004268:	4630      	mov	r0, r6
 800426a:	f7ff fc53 	bl	8003b14 <USB_OTG_CoreInit>
 800426e:	2100      	movs	r1, #0
 8004270:	4630      	mov	r0, r6
 8004272:	f7ff fcf3 	bl	8003c5c <USB_OTG_SetCurrentMode>
 8004276:	4630      	mov	r0, r6
 8004278:	f7ff fd32 	bl	8003ce0 <USB_OTG_CoreInitDev>
 800427c:	4630      	mov	r0, r6
 800427e:	e8bd 40f0 	ldmia.w	sp!, {r4, r5, r6, r7, lr}
 8004282:	f7ff bcbb 	b.w	8003bfc <USB_OTG_EnableGlobalInt>
 8004286:	bf00      	nop

08004288 <DCD_EP_Open>:
 8004288:	fa5f fc81 	uxtb.w	ip, r1
 800428c:	0609      	lsls	r1, r1, #24
 800428e:	b500      	push	{lr}
 8004290:	b292      	uxth	r2, r2
 8004292:	b2db      	uxtb	r3, r3
 8004294:	d419      	bmi.n	80042ca <DCD_EP_Open+0x42>
 8004296:	eb0c 018c 	add.w	r1, ip, ip, lsl #2
 800429a:	00c9      	lsls	r1, r1, #3
 800429c:	eb00 0e01 	add.w	lr, r0, r1
 80042a0:	f501 715c 	add.w	r1, r1, #880	@ 0x370
 80042a4:	f8ce 2378 	str.w	r2, [lr, #888]	@ 0x378
 80042a8:	2200      	movs	r2, #0
 80042aa:	f88e c370 	strb.w	ip, [lr, #880]	@ 0x370
 80042ae:	4401      	add	r1, r0
 80042b0:	f88e 3373 	strb.w	r3, [lr, #883]	@ 0x373
 80042b4:	f88e 2371 	strb.w	r2, [lr, #881]	@ 0x371
 80042b8:	2b02      	cmp	r3, #2
 80042ba:	bf04      	itt	eq
 80042bc:	2300      	moveq	r3, #0
 80042be:	710b      	strbeq	r3, [r1, #4]
 80042c0:	f7ff fdc6 	bl	8003e50 <USB_OTG_EPActivate>
 80042c4:	2000      	movs	r0, #0
 80042c6:	f85d fb04 	ldr.w	pc, [sp], #4
 80042ca:	f00c 0c7f 	and.w	ip, ip, #127	@ 0x7f
 80042ce:	eb0c 018c 	add.w	r1, ip, ip, lsl #2
 80042d2:	00c9      	lsls	r1, r1, #3
 80042d4:	eb00 0e01 	add.w	lr, r0, r1
 80042d8:	f501 718c 	add.w	r1, r1, #280	@ 0x118
 80042dc:	f8ce 2120 	str.w	r2, [lr, #288]	@ 0x120
 80042e0:	2201      	movs	r2, #1
 80042e2:	4401      	add	r1, r0
 80042e4:	f88e c118 	strb.w	ip, [lr, #280]	@ 0x118
 80042e8:	f88e 311b 	strb.w	r3, [lr, #283]	@ 0x11b
 80042ec:	f8ae c11e 	strh.w	ip, [lr, #286]	@ 0x11e
 80042f0:	f88e 2119 	strb.w	r2, [lr, #281]	@ 0x119
 80042f4:	e7e0      	b.n	80042b8 <DCD_EP_Open+0x30>
 80042f6:	bf00      	nop

080042f8 <DCD_EP_Close>:
 80042f8:	b2cb      	uxtb	r3, r1
 80042fa:	f001 027f 	and.w	r2, r1, #127	@ 0x7f
 80042fe:	0609      	lsls	r1, r1, #24
 8004300:	b500      	push	{lr}
 8004302:	d40d      	bmi.n	8004320 <DCD_EP_Close+0x28>
 8004304:	eb03 0183 	add.w	r1, r3, r3, lsl #2
 8004308:	eb00 01c1 	add.w	r1, r0, r1, lsl #3
 800430c:	f501 715c 	add.w	r1, r1, #880	@ 0x370
 8004310:	09db      	lsrs	r3, r3, #7
 8004312:	700a      	strb	r2, [r1, #0]
 8004314:	704b      	strb	r3, [r1, #1]
 8004316:	f7ff fdd5 	bl	8003ec4 <USB_OTG_EPDeactivate>
 800431a:	2000      	movs	r0, #0
 800431c:	f85d fb04 	ldr.w	pc, [sp], #4
 8004320:	eb02 0182 	add.w	r1, r2, r2, lsl #2
 8004324:	eb00 01c1 	add.w	r1, r0, r1, lsl #3
 8004328:	f501 718c 	add.w	r1, r1, #280	@ 0x118
 800432c:	e7f0      	b.n	8004310 <DCD_EP_Close+0x18>
 800432e:	bf00      	nop

08004330 <DCD_EP_PrepareRx>:
 8004330:	b510      	push	{r4, lr}
 8004332:	f001 047f 	and.w	r4, r1, #127	@ 0x7f
 8004336:	eb04 0c84 	add.w	ip, r4, r4, lsl #2
 800433a:	ea4f 0ccc 	mov.w	ip, ip, lsl #3
 800433e:	eb00 0e0c 	add.w	lr, r0, ip
 8004342:	b29b      	uxth	r3, r3
 8004344:	f8ce 3384 	str.w	r3, [lr, #900]	@ 0x384
 8004348:	2300      	movs	r3, #0
 800434a:	f8ce 237c 	str.w	r2, [lr, #892]	@ 0x37c
 800434e:	f88e 4370 	strb.w	r4, [lr, #880]	@ 0x370
 8004352:	f8ce 3388 	str.w	r3, [lr, #904]	@ 0x388
 8004356:	f88e 3371 	strb.w	r3, [lr, #881]	@ 0x371
 800435a:	78c3      	ldrb	r3, [r0, #3]
 800435c:	f50c 7c5c 	add.w	ip, ip, #880	@ 0x370
 8004360:	2b01      	cmp	r3, #1
 8004362:	eb00 010c 	add.w	r1, r0, ip
 8004366:	bf08      	it	eq
 8004368:	f8ce 2380 	streq.w	r2, [lr, #896]	@ 0x380
 800436c:	b91c      	cbnz	r4, 8004376 <DCD_EP_PrepareRx+0x46>
 800436e:	f7ff fe7b 	bl	8004068 <USB_OTG_EP0StartXfer>
 8004372:	2000      	movs	r0, #0
 8004374:	bd10      	pop	{r4, pc}
 8004376:	f7ff fdc3 	bl	8003f00 <USB_OTG_EPStartXfer>
 800437a:	2000      	movs	r0, #0
 800437c:	bd10      	pop	{r4, pc}
 800437e:	bf00      	nop

08004380 <DCD_EP_Tx>:
 8004380:	b510      	push	{r4, lr}
 8004382:	f001 047f 	and.w	r4, r1, #127	@ 0x7f
 8004386:	eb04 0e84 	add.w	lr, r4, r4, lsl #2
 800438a:	ea4f 0ece 	mov.w	lr, lr, lsl #3
 800438e:	eb00 0c0e 	add.w	ip, r0, lr
 8004392:	4601      	mov	r1, r0
 8004394:	f8cc 312c 	str.w	r3, [ip, #300]	@ 0x12c
 8004398:	2300      	movs	r3, #0
 800439a:	f50e 7e8c 	add.w	lr, lr, #280	@ 0x118
 800439e:	f8cc 3130 	str.w	r3, [ip, #304]	@ 0x130
 80043a2:	2301      	movs	r3, #1
 80043a4:	4471      	add	r1, lr
 80043a6:	f88c 4118 	strb.w	r4, [ip, #280]	@ 0x118
 80043aa:	f8cc 2124 	str.w	r2, [ip, #292]	@ 0x124
 80043ae:	f8cc 2128 	str.w	r2, [ip, #296]	@ 0x128
 80043b2:	f88c 3119 	strb.w	r3, [ip, #281]	@ 0x119
 80043b6:	b91c      	cbnz	r4, 80043c0 <DCD_EP_Tx+0x40>
 80043b8:	f7ff fe56 	bl	8004068 <USB_OTG_EP0StartXfer>
 80043bc:	2000      	movs	r0, #0
 80043be:	bd10      	pop	{r4, pc}
 80043c0:	f7ff fd9e 	bl	8003f00 <USB_OTG_EPStartXfer>
 80043c4:	2000      	movs	r0, #0
 80043c6:	bd10      	pop	{r4, pc}

080043c8 <DCD_EP_Stall>:
 80043c8:	b2cb      	uxtb	r3, r1
 80043ca:	f001 027f 	and.w	r2, r1, #127	@ 0x7f
 80043ce:	0609      	lsls	r1, r1, #24
 80043d0:	b500      	push	{lr}
 80043d2:	d411      	bmi.n	80043f8 <DCD_EP_Stall+0x30>
 80043d4:	eb03 0183 	add.w	r1, r3, r3, lsl #2
 80043d8:	eb00 01c1 	add.w	r1, r0, r1, lsl #3
 80043dc:	f501 715c 	add.w	r1, r1, #880	@ 0x370
 80043e0:	f04f 0c01 	mov.w	ip, #1
 80043e4:	09db      	lsrs	r3, r3, #7
 80043e6:	f881 c002 	strb.w	ip, [r1, #2]
 80043ea:	700a      	strb	r2, [r1, #0]
 80043ec:	704b      	strb	r3, [r1, #1]
 80043ee:	f7ff fe9f 	bl	8004130 <USB_OTG_EPSetStall>
 80043f2:	2000      	movs	r0, #0
 80043f4:	f85d fb04 	ldr.w	pc, [sp], #4
 80043f8:	eb02 0182 	add.w	r1, r2, r2, lsl #2
 80043fc:	eb00 01c1 	add.w	r1, r0, r1, lsl #3
 8004400:	f501 718c 	add.w	r1, r1, #280	@ 0x118
 8004404:	e7ec      	b.n	80043e0 <DCD_EP_Stall+0x18>
 8004406:	bf00      	nop

08004408 <DCD_EP_ClrStall>:
 8004408:	b2cb      	uxtb	r3, r1
 800440a:	f001 027f 	and.w	r2, r1, #127	@ 0x7f
 800440e:	0609      	lsls	r1, r1, #24
 8004410:	b510      	push	{r4, lr}
 8004412:	d40e      	bmi.n	8004432 <DCD_EP_ClrStall+0x2a>
 8004414:	eb03 0183 	add.w	r1, r3, r3, lsl #2
 8004418:	eb00 01c1 	add.w	r1, r0, r1, lsl #3
 800441c:	f501 715c 	add.w	r1, r1, #880	@ 0x370
 8004420:	2400      	movs	r4, #0
 8004422:	09db      	lsrs	r3, r3, #7
 8004424:	708c      	strb	r4, [r1, #2]
 8004426:	700a      	strb	r2, [r1, #0]
 8004428:	704b      	strb	r3, [r1, #1]
 800442a:	f7ff fea5 	bl	8004178 <USB_OTG_EPClearStall>
 800442e:	4620      	mov	r0, r4
 8004430:	bd10      	pop	{r4, pc}
 8004432:	eb02 0182 	add.w	r1, r2, r2, lsl #2
 8004436:	eb00 01c1 	add.w	r1, r0, r1, lsl #3
 800443a:	f501 718c 	add.w	r1, r1, #280	@ 0x118
 800443e:	e7ef      	b.n	8004420 <DCD_EP_ClrStall+0x18>

08004440 <DCD_EP_SetAddress>:
 8004440:	6902      	ldr	r2, [r0, #16]
 8004442:	b2c9      	uxtb	r1, r1
 8004444:	6810      	ldr	r0, [r2, #0]
 8004446:	2300      	movs	r3, #0
 8004448:	f361 130a 	bfi	r3, r1, #4, #7
 800444c:	4303      	orrs	r3, r0
 800444e:	6013      	str	r3, [r2, #0]
 8004450:	4770      	bx	lr
 8004452:	bf00      	nop

08004454 <USBD_OTG_ISR_Handler>:
 8004454:	e92d 4ff0 	stmdb	sp!, {r4, r5, r6, r7, r8, r9, sl, fp, lr}
 8004458:	b081      	sub	sp, #4
 800445a:	4604      	mov	r4, r0
 800445c:	f7ff fc18 	bl	8003c90 <USB_OTG_IsDeviceMode>
 8004460:	b918      	cbnz	r0, 800446a <USBD_OTG_ISR_Handler+0x16>
 8004462:	2000      	movs	r0, #0
 8004464:	b001      	add	sp, #4
 8004466:	e8bd 8ff0 	ldmia.w	sp!, {r4, r5, r6, r7, r8, r9, sl, fp, pc}
 800446a:	4620      	mov	r0, r4
 800446c:	f7ff fc16 	bl	8003c9c <USB_OTG_ReadCoreItr>
 8004470:	4607      	mov	r7, r0
 8004472:	2800      	cmp	r0, #0
 8004474:	d0f5      	beq.n	8004462 <USBD_OTG_ISR_Handler+0xe>
 8004476:	f3c0 4307 	ubfx	r3, r0, #16, #8
 800447a:	f013 0008 	ands.w	r0, r3, #8
 800447e:	9300      	str	r3, [sp, #0]
 8004480:	f040 80c1 	bne.w	8004606 <USBD_OTG_ISR_Handler+0x1b2>
 8004484:	9b00      	ldr	r3, [sp, #0]
 8004486:	075e      	lsls	r6, r3, #29
 8004488:	d47f      	bmi.n	800458a <USBD_OTG_ISR_Handler+0x136>
 800448a:	07b9      	lsls	r1, r7, #30
 800448c:	b2fd      	uxtb	r5, r7
 800448e:	d502      	bpl.n	8004496 <USBD_OTG_ISR_Handler+0x42>
 8004490:	68e3      	ldr	r3, [r4, #12]
 8004492:	2202      	movs	r2, #2
 8004494:	615a      	str	r2, [r3, #20]
 8004496:	2f00      	cmp	r7, #0
 8004498:	ea4f 6817 	mov.w	r8, r7, lsr #24
 800449c:	f2c0 8171 	blt.w	8004782 <USBD_OTG_ISR_Handler+0x32e>
 80044a0:	053a      	lsls	r2, r7, #20
 80044a2:	f3c7 2607 	ubfx	r6, r7, #8, #8
 80044a6:	f100 810b 	bmi.w	80046c0 <USBD_OTG_ISR_Handler+0x26c>
 80044aa:	072f      	lsls	r7, r5, #28
 80044ac:	d508      	bpl.n	80044c0 <USBD_OTG_ISR_Handler+0x6c>
 80044ae:	4b94      	ldr	r3, [pc, #592]	@ (8004700 <USBD_OTG_ISR_Handler+0x2ac>)
 80044b0:	681b      	ldr	r3, [r3, #0]
 80044b2:	4620      	mov	r0, r4
 80044b4:	68db      	ldr	r3, [r3, #12]
 80044b6:	4798      	blx	r3
 80044b8:	68e3      	ldr	r3, [r4, #12]
 80044ba:	2208      	movs	r2, #8
 80044bc:	2001      	movs	r0, #1
 80044be:	615a      	str	r2, [r3, #20]
 80044c0:	06e9      	lsls	r1, r5, #27
 80044c2:	d43b      	bmi.n	800453c <USBD_OTG_ISR_Handler+0xe8>
 80044c4:	06f2      	lsls	r2, r6, #27
 80044c6:	f100 811f 	bmi.w	8004708 <USBD_OTG_ISR_Handler+0x2b4>
 80044ca:	06b3      	lsls	r3, r6, #26
 80044cc:	f100 80df 	bmi.w	800468e <USBD_OTG_ISR_Handler+0x23a>
 80044d0:	9b00      	ldr	r3, [sp, #0]
 80044d2:	06df      	lsls	r7, r3, #27
 80044d4:	d509      	bpl.n	80044ea <USBD_OTG_ISR_Handler+0x96>
 80044d6:	4b8a      	ldr	r3, [pc, #552]	@ (8004700 <USBD_OTG_ISR_Handler+0x2ac>)
 80044d8:	681b      	ldr	r3, [r3, #0]
 80044da:	4620      	mov	r0, r4
 80044dc:	69db      	ldr	r3, [r3, #28]
 80044de:	4798      	blx	r3
 80044e0:	68e3      	ldr	r3, [r4, #12]
 80044e2:	f44f 1280 	mov.w	r2, #1048576	@ 0x100000
 80044e6:	615a      	str	r2, [r3, #20]
 80044e8:	2001      	movs	r0, #1
 80044ea:	9b00      	ldr	r3, [sp, #0]
 80044ec:	069e      	lsls	r6, r3, #26
 80044ee:	d509      	bpl.n	8004504 <USBD_OTG_ISR_Handler+0xb0>
 80044f0:	4b83      	ldr	r3, [pc, #524]	@ (8004700 <USBD_OTG_ISR_Handler+0x2ac>)
 80044f2:	681b      	ldr	r3, [r3, #0]
 80044f4:	4620      	mov	r0, r4
 80044f6:	6a1b      	ldr	r3, [r3, #32]
 80044f8:	4798      	blx	r3
 80044fa:	68e3      	ldr	r3, [r4, #12]
 80044fc:	f44f 1200 	mov.w	r2, #2097152	@ 0x200000
 8004500:	2001      	movs	r0, #1
 8004502:	615a      	str	r2, [r3, #20]
 8004504:	f018 0f40 	tst.w	r8, #64	@ 0x40
 8004508:	d009      	beq.n	800451e <USBD_OTG_ISR_Handler+0xca>
 800450a:	4b7d      	ldr	r3, [pc, #500]	@ (8004700 <USBD_OTG_ISR_Handler+0x2ac>)
 800450c:	681b      	ldr	r3, [r3, #0]
 800450e:	4620      	mov	r0, r4
 8004510:	6a5b      	ldr	r3, [r3, #36]	@ 0x24
 8004512:	4798      	blx	r3
 8004514:	68e3      	ldr	r3, [r4, #12]
 8004516:	f04f 4280 	mov.w	r2, #1073741824	@ 0x40000000
 800451a:	2001      	movs	r0, #1
 800451c:	615a      	str	r2, [r3, #20]
 800451e:	0769      	lsls	r1, r5, #29
 8004520:	d5a0      	bpl.n	8004464 <USBD_OTG_ISR_Handler+0x10>
 8004522:	68e3      	ldr	r3, [r4, #12]
 8004524:	685d      	ldr	r5, [r3, #4]
 8004526:	076a      	lsls	r2, r5, #29
 8004528:	d505      	bpl.n	8004536 <USBD_OTG_ISR_Handler+0xe2>
 800452a:	4b75      	ldr	r3, [pc, #468]	@ (8004700 <USBD_OTG_ISR_Handler+0x2ac>)
 800452c:	681b      	ldr	r3, [r3, #0]
 800452e:	4620      	mov	r0, r4
 8004530:	6a9b      	ldr	r3, [r3, #40]	@ 0x28
 8004532:	4798      	blx	r3
 8004534:	68e3      	ldr	r3, [r4, #12]
 8004536:	605d      	str	r5, [r3, #4]
 8004538:	2001      	movs	r0, #1
 800453a:	e793      	b.n	8004464 <USBD_OTG_ISR_Handler+0x10>
 800453c:	68e3      	ldr	r3, [r4, #12]
 800453e:	699a      	ldr	r2, [r3, #24]
 8004540:	f022 0210 	bic.w	r2, r2, #16
 8004544:	619a      	str	r2, [r3, #24]
 8004546:	6a1f      	ldr	r7, [r3, #32]
 8004548:	f3c7 4243 	ubfx	r2, r7, #17, #4
 800454c:	2a02      	cmp	r2, #2
 800454e:	f007 0a0f 	and.w	sl, r7, #15
 8004552:	f000 8156 	beq.w	8004802 <USBD_OTG_ISR_Handler+0x3ae>
 8004556:	2a06      	cmp	r2, #6
 8004558:	d111      	bne.n	800457e <USBD_OTG_ISR_Handler+0x12a>
 800455a:	eb0a 0a8a 	add.w	sl, sl, sl, lsl #2
 800455e:	eb04 0aca 	add.w	sl, r4, sl, lsl #3
 8004562:	2208      	movs	r2, #8
 8004564:	f504 61b9 	add.w	r1, r4, #1480	@ 0x5c8
 8004568:	4620      	mov	r0, r4
 800456a:	f7ff fa27 	bl	80039bc <USB_OTG_ReadPacket>
 800456e:	f8da 3388 	ldr.w	r3, [sl, #904]	@ 0x388
 8004572:	f3c7 170a 	ubfx	r7, r7, #4, #11
 8004576:	443b      	add	r3, r7
 8004578:	f8ca 3388 	str.w	r3, [sl, #904]	@ 0x388
 800457c:	68e3      	ldr	r3, [r4, #12]
 800457e:	699a      	ldr	r2, [r3, #24]
 8004580:	f042 0210 	orr.w	r2, r2, #16
 8004584:	619a      	str	r2, [r3, #24]
 8004586:	2001      	movs	r0, #1
 8004588:	e79c      	b.n	80044c4 <USBD_OTG_ISR_Handler+0x70>
 800458a:	4620      	mov	r0, r4
 800458c:	f7ff fe1c 	bl	80041c8 <USB_OTG_ReadDevAllInEPItr>
 8004590:	4683      	mov	fp, r0
 8004592:	2800      	cmp	r0, #0
 8004594:	d035      	beq.n	8004602 <USBD_OTG_ISR_Handler+0x1ae>
 8004596:	4626      	mov	r6, r4
 8004598:	f104 0918 	add.w	r9, r4, #24
 800459c:	f04f 0a00 	mov.w	sl, #0
 80045a0:	f01b 0f01 	tst.w	fp, #1
 80045a4:	f000 8108 	beq.w	80047b8 <USBD_OTG_ISR_Handler+0x364>
 80045a8:	6922      	ldr	r2, [r4, #16]
 80045aa:	f8d9 1000 	ldr.w	r1, [r9]
 80045ae:	6910      	ldr	r0, [r2, #16]
 80045b0:	6b53      	ldr	r3, [r2, #52]	@ 0x34
 80045b2:	fa23 f30a 	lsr.w	r3, r3, sl
 80045b6:	01db      	lsls	r3, r3, #7
 80045b8:	b2db      	uxtb	r3, r3
 80045ba:	4303      	orrs	r3, r0
 80045bc:	6888      	ldr	r0, [r1, #8]
 80045be:	4003      	ands	r3, r0
 80045c0:	07dd      	lsls	r5, r3, #31
 80045c2:	b2d8      	uxtb	r0, r3
 80045c4:	f140 8100 	bpl.w	80047c8 <USBD_OTG_ISR_Handler+0x374>
 80045c8:	4b4d      	ldr	r3, [pc, #308]	@ (8004700 <USBD_OTG_ISR_Handler+0x2ac>)
 80045ca:	6b50      	ldr	r0, [r2, #52]	@ 0x34
 80045cc:	681b      	ldr	r3, [r3, #0]
 80045ce:	f04f 0c01 	mov.w	ip, #1
 80045d2:	685d      	ldr	r5, [r3, #4]
 80045d4:	fa0c f30a 	lsl.w	r3, ip, sl
 80045d8:	ea20 0303 	bic.w	r3, r0, r3
 80045dc:	6353      	str	r3, [r2, #52]	@ 0x34
 80045de:	4620      	mov	r0, r4
 80045e0:	f8c1 c008 	str.w	ip, [r1, #8]
 80045e4:	4651      	mov	r1, sl
 80045e6:	47a8      	blx	r5
 80045e8:	78e3      	ldrb	r3, [r4, #3]
 80045ea:	2b01      	cmp	r3, #1
 80045ec:	f000 8126 	beq.w	800483c <USBD_OTG_ISR_Handler+0x3e8>
 80045f0:	ea5f 0b5b 	movs.w	fp, fp, lsr #1
 80045f4:	f10a 0a01 	add.w	sl, sl, #1
 80045f8:	f106 0628 	add.w	r6, r6, #40	@ 0x28
 80045fc:	f109 0904 	add.w	r9, r9, #4
 8004600:	d1ce      	bne.n	80045a0 <USBD_OTG_ISR_Handler+0x14c>
 8004602:	2001      	movs	r0, #1
 8004604:	e741      	b.n	800448a <USBD_OTG_ISR_Handler+0x36>
 8004606:	4620      	mov	r0, r4
 8004608:	f7ff fdce 	bl	80041a8 <USB_OTG_ReadDevAllOutEp_itr>
 800460c:	4605      	mov	r5, r0
 800460e:	2800      	cmp	r0, #0
 8004610:	f000 80f0 	beq.w	80047f4 <USBD_OTG_ISR_Handler+0x3a0>
 8004614:	4e3a      	ldr	r6, [pc, #232]	@ (8004700 <USBD_OTG_ISR_Handler+0x2ac>)
 8004616:	f104 0b54 	add.w	fp, r4, #84	@ 0x54
 800461a:	46a0      	mov	r8, r4
 800461c:	f04f 0900 	mov.w	r9, #0
 8004620:	f04f 0a01 	mov.w	sl, #1
 8004624:	07eb      	lsls	r3, r5, #31
 8004626:	d408      	bmi.n	800463a <USBD_OTG_ISR_Handler+0x1e6>
 8004628:	086d      	lsrs	r5, r5, #1
 800462a:	07eb      	lsls	r3, r5, #31
 800462c:	f109 0901 	add.w	r9, r9, #1
 8004630:	f10b 0b04 	add.w	fp, fp, #4
 8004634:	f108 0828 	add.w	r8, r8, #40	@ 0x28
 8004638:	d5f6      	bpl.n	8004628 <USBD_OTG_ISR_Handler+0x1d4>
 800463a:	4649      	mov	r1, r9
 800463c:	4620      	mov	r0, r4
 800463e:	f7ff fdb9 	bl	80041b4 <USB_OTG_ReadDevOutEP_itr>
 8004642:	b2c3      	uxtb	r3, r0
 8004644:	07c0      	lsls	r0, r0, #31
 8004646:	f140 80ce 	bpl.w	80047e6 <USBD_OTG_ISR_Handler+0x392>
 800464a:	f8db 3000 	ldr.w	r3, [fp]
 800464e:	f8c3 a008 	str.w	sl, [r3, #8]
 8004652:	78e2      	ldrb	r2, [r4, #3]
 8004654:	2a01      	cmp	r2, #1
 8004656:	d107      	bne.n	8004668 <USBD_OTG_ISR_Handler+0x214>
 8004658:	691a      	ldr	r2, [r3, #16]
 800465a:	f8d8 3378 	ldr.w	r3, [r8, #888]	@ 0x378
 800465e:	f3c2 0212 	ubfx	r2, r2, #0, #19
 8004662:	1a9b      	subs	r3, r3, r2
 8004664:	f8c8 3388 	str.w	r3, [r8, #904]	@ 0x388
 8004668:	6833      	ldr	r3, [r6, #0]
 800466a:	4649      	mov	r1, r9
 800466c:	681b      	ldr	r3, [r3, #0]
 800466e:	4620      	mov	r0, r4
 8004670:	4798      	blx	r3
 8004672:	78e3      	ldrb	r3, [r4, #3]
 8004674:	2b01      	cmp	r3, #1
 8004676:	f000 80fa 	beq.w	800486e <USBD_OTG_ISR_Handler+0x41a>
 800467a:	086d      	lsrs	r5, r5, #1
 800467c:	f000 80ba 	beq.w	80047f4 <USBD_OTG_ISR_Handler+0x3a0>
 8004680:	f109 0901 	add.w	r9, r9, #1
 8004684:	f10b 0b04 	add.w	fp, fp, #4
 8004688:	f108 0828 	add.w	r8, r8, #40	@ 0x28
 800468c:	e7ca      	b.n	8004624 <USBD_OTG_ISR_Handler+0x1d0>
 800468e:	4620      	mov	r0, r4
 8004690:	f7ff fbca 	bl	8003e28 <USB_OTG_EP0Activate>
 8004694:	68e3      	ldr	r3, [r4, #12]
 8004696:	4620      	mov	r0, r4
 8004698:	68de      	ldr	r6, [r3, #12]
 800469a:	f7ff fbb9 	bl	8003e10 <USB_OTG_GetDeviceSpeed>
 800469e:	2803      	cmp	r0, #3
 80046a0:	f000 80aa 	beq.w	80047f8 <USBD_OTG_ISR_Handler+0x3a4>
 80046a4:	2201      	movs	r2, #1
 80046a6:	2340      	movs	r3, #64	@ 0x40
 80046a8:	2105      	movs	r1, #5
 80046aa:	80a3      	strh	r3, [r4, #4]
 80046ac:	68e3      	ldr	r3, [r4, #12]
 80046ae:	70a2      	strb	r2, [r4, #2]
 80046b0:	f361 268d 	bfi	r6, r1, #10, #4
 80046b4:	f44f 5200 	mov.w	r2, #8192	@ 0x2000
 80046b8:	60de      	str	r6, [r3, #12]
 80046ba:	2001      	movs	r0, #1
 80046bc:	615a      	str	r2, [r3, #20]
 80046be:	e707      	b.n	80044d0 <USBD_OTG_ISR_Handler+0x7c>
 80046c0:	4b0f      	ldr	r3, [pc, #60]	@ (8004700 <USBD_OTG_ISR_Handler+0x2ac>)
 80046c2:	681b      	ldr	r3, [r3, #0]
 80046c4:	4620      	mov	r0, r4
 80046c6:	695b      	ldr	r3, [r3, #20]
 80046c8:	4798      	blx	r3
 80046ca:	6923      	ldr	r3, [r4, #16]
 80046cc:	6899      	ldr	r1, [r3, #8]
 80046ce:	68e3      	ldr	r3, [r4, #12]
 80046d0:	f44f 6200 	mov.w	r2, #2048	@ 0x800
 80046d4:	615a      	str	r2, [r3, #20]
 80046d6:	7aa3      	ldrb	r3, [r4, #10]
 80046d8:	b183      	cbz	r3, 80046fc <USBD_OTG_ISR_Handler+0x2a8>
 80046da:	07cb      	lsls	r3, r1, #31
 80046dc:	d50e      	bpl.n	80046fc <USBD_OTG_ISR_Handler+0x2a8>
 80046de:	f8d4 310c 	ldr.w	r3, [r4, #268]	@ 0x10c
 80046e2:	4908      	ldr	r1, [pc, #32]	@ (8004704 <USBD_OTG_ISR_Handler+0x2b0>)
 80046e4:	681a      	ldr	r2, [r3, #0]
 80046e6:	f042 0201 	orr.w	r2, r2, #1
 80046ea:	601a      	str	r2, [r3, #0]
 80046ec:	681a      	ldr	r2, [r3, #0]
 80046ee:	f042 0203 	orr.w	r2, r2, #3
 80046f2:	601a      	str	r2, [r3, #0]
 80046f4:	690b      	ldr	r3, [r1, #16]
 80046f6:	f043 0306 	orr.w	r3, r3, #6
 80046fa:	610b      	str	r3, [r1, #16]
 80046fc:	2001      	movs	r0, #1
 80046fe:	e6d4      	b.n	80044aa <USBD_OTG_ISR_Handler+0x56>
 8004700:	20000144 	.word	0x20000144
 8004704:	e000ed00 	.word	0xe000ed00
 8004708:	6922      	ldr	r2, [r4, #16]
 800470a:	6853      	ldr	r3, [r2, #4]
 800470c:	f04f 0b00 	mov.w	fp, #0
 8004710:	f023 0301 	bic.w	r3, r3, #1
 8004714:	6053      	str	r3, [r2, #4]
 8004716:	4659      	mov	r1, fp
 8004718:	4620      	mov	r0, r4
 800471a:	f7ff fa7f 	bl	8003c1c <USB_OTG_FlushTxFifo>
 800471e:	7867      	ldrb	r7, [r4, #1]
 8004720:	46da      	mov	sl, fp
 8004722:	b15f      	cbz	r7, 800473c <USBD_OTG_ISR_Handler+0x2e8>
 8004724:	f104 0314 	add.w	r3, r4, #20
 8004728:	eb03 0787 	add.w	r7, r3, r7, lsl #2
 800472c:	22ff      	movs	r2, #255	@ 0xff
 800472e:	f853 1f04 	ldr.w	r1, [r3, #4]!
 8004732:	608a      	str	r2, [r1, #8]
 8004734:	6bd9      	ldr	r1, [r3, #60]	@ 0x3c
 8004736:	429f      	cmp	r7, r3
 8004738:	608a      	str	r2, [r1, #8]
 800473a:	d1f8      	bne.n	800472e <USBD_OTG_ISR_Handler+0x2da>
 800473c:	220f      	movs	r2, #15
 800473e:	6923      	ldr	r3, [r4, #16]
 8004740:	f362 0b07 	bfi	fp, r2, #0, #8
 8004744:	222f      	movs	r2, #47	@ 0x2f
 8004746:	f362 0a07 	bfi	sl, r2, #0, #8
 800474a:	f04f 32ff 	mov.w	r2, #4294967295	@ 0xffffffff
 800474e:	619a      	str	r2, [r3, #24]
 8004750:	f04f 1201 	mov.w	r2, #65537	@ 0x10001
 8004754:	61da      	str	r2, [r3, #28]
 8004756:	f8c3 b014 	str.w	fp, [r3, #20]
 800475a:	f8c3 a010 	str.w	sl, [r3, #16]
 800475e:	681a      	ldr	r2, [r3, #0]
 8004760:	f422 62fe 	bic.w	r2, r2, #2032	@ 0x7f0
 8004764:	601a      	str	r2, [r3, #0]
 8004766:	4620      	mov	r0, r4
 8004768:	f7ff fd34 	bl	80041d4 <USB_OTG_EP0_OutStart>
 800476c:	4b78      	ldr	r3, [pc, #480]	@ (8004950 <USBD_OTG_ISR_Handler+0x4fc>)
 800476e:	68e2      	ldr	r2, [r4, #12]
 8004770:	681b      	ldr	r3, [r3, #0]
 8004772:	f44f 5180 	mov.w	r1, #4096	@ 0x1000
 8004776:	691b      	ldr	r3, [r3, #16]
 8004778:	6151      	str	r1, [r2, #20]
 800477a:	4620      	mov	r0, r4
 800477c:	4798      	blx	r3
 800477e:	2001      	movs	r0, #1
 8004780:	e6a3      	b.n	80044ca <USBD_OTG_ISR_Handler+0x76>
 8004782:	7aa3      	ldrb	r3, [r4, #10]
 8004784:	b143      	cbz	r3, 8004798 <USBD_OTG_ISR_Handler+0x344>
 8004786:	f8d4 310c 	ldr.w	r3, [r4, #268]	@ 0x10c
 800478a:	f8d4 210c 	ldr.w	r2, [r4, #268]	@ 0x10c
 800478e:	f023 0103 	bic.w	r1, r3, #3
 8004792:	f361 0307 	bfi	r3, r1, #0, #8
 8004796:	6013      	str	r3, [r2, #0]
 8004798:	4b6d      	ldr	r3, [pc, #436]	@ (8004950 <USBD_OTG_ISR_Handler+0x4fc>)
 800479a:	6922      	ldr	r2, [r4, #16]
 800479c:	681b      	ldr	r3, [r3, #0]
 800479e:	6999      	ldr	r1, [r3, #24]
 80047a0:	6853      	ldr	r3, [r2, #4]
 80047a2:	f023 0301 	bic.w	r3, r3, #1
 80047a6:	6053      	str	r3, [r2, #4]
 80047a8:	4620      	mov	r0, r4
 80047aa:	4788      	blx	r1
 80047ac:	68e3      	ldr	r3, [r4, #12]
 80047ae:	f04f 4200 	mov.w	r2, #2147483648	@ 0x80000000
 80047b2:	2001      	movs	r0, #1
 80047b4:	615a      	str	r2, [r3, #20]
 80047b6:	e673      	b.n	80044a0 <USBD_OTG_ISR_Handler+0x4c>
 80047b8:	f10a 0a01 	add.w	sl, sl, #1
 80047bc:	ea4f 0b5b 	mov.w	fp, fp, lsr #1
 80047c0:	3628      	adds	r6, #40	@ 0x28
 80047c2:	f109 0904 	add.w	r9, r9, #4
 80047c6:	e6eb      	b.n	80045a0 <USBD_OTG_ISR_Handler+0x14c>
 80047c8:	0745      	lsls	r5, r0, #29
 80047ca:	d409      	bmi.n	80047e0 <USBD_OTG_ISR_Handler+0x38c>
 80047cc:	0702      	lsls	r2, r0, #28
 80047ce:	d404      	bmi.n	80047da <USBD_OTG_ISR_Handler+0x386>
 80047d0:	06c5      	lsls	r5, r0, #27
 80047d2:	d547      	bpl.n	8004864 <USBD_OTG_ISR_Handler+0x410>
 80047d4:	2310      	movs	r3, #16
 80047d6:	608b      	str	r3, [r1, #8]
 80047d8:	e70a      	b.n	80045f0 <USBD_OTG_ISR_Handler+0x19c>
 80047da:	2308      	movs	r3, #8
 80047dc:	608b      	str	r3, [r1, #8]
 80047de:	e707      	b.n	80045f0 <USBD_OTG_ISR_Handler+0x19c>
 80047e0:	2304      	movs	r3, #4
 80047e2:	608b      	str	r3, [r1, #8]
 80047e4:	e704      	b.n	80045f0 <USBD_OTG_ISR_Handler+0x19c>
 80047e6:	0799      	lsls	r1, r3, #30
 80047e8:	d535      	bpl.n	8004856 <USBD_OTG_ISR_Handler+0x402>
 80047ea:	f8db 3000 	ldr.w	r3, [fp]
 80047ee:	2202      	movs	r2, #2
 80047f0:	609a      	str	r2, [r3, #8]
 80047f2:	e742      	b.n	800467a <USBD_OTG_ISR_Handler+0x226>
 80047f4:	2001      	movs	r0, #1
 80047f6:	e645      	b.n	8004484 <USBD_OTG_ISR_Handler+0x30>
 80047f8:	2200      	movs	r2, #0
 80047fa:	f44f 7300 	mov.w	r3, #512	@ 0x200
 80047fe:	2109      	movs	r1, #9
 8004800:	e753      	b.n	80046aa <USBD_OTG_ISR_Handler+0x256>
 8004802:	f647 72f0 	movw	r2, #32752	@ 0x7ff0
 8004806:	423a      	tst	r2, r7
 8004808:	f43f aeb9 	beq.w	800457e <USBD_OTG_ISR_Handler+0x12a>
 800480c:	eb0a 0a8a 	add.w	sl, sl, sl, lsl #2
 8004810:	eb04 0aca 	add.w	sl, r4, sl, lsl #3
 8004814:	f3c7 170a 	ubfx	r7, r7, #4, #11
 8004818:	f8da 137c 	ldr.w	r1, [sl, #892]	@ 0x37c
 800481c:	463a      	mov	r2, r7
 800481e:	4620      	mov	r0, r4
 8004820:	f7ff f8cc 	bl	80039bc <USB_OTG_ReadPacket>
 8004824:	f8da 337c 	ldr.w	r3, [sl, #892]	@ 0x37c
 8004828:	443b      	add	r3, r7
 800482a:	f8ca 337c 	str.w	r3, [sl, #892]	@ 0x37c
 800482e:	f8da 3388 	ldr.w	r3, [sl, #904]	@ 0x388
 8004832:	443b      	add	r3, r7
 8004834:	f8ca 3388 	str.w	r3, [sl, #904]	@ 0x388
 8004838:	68e3      	ldr	r3, [r4, #12]
 800483a:	e6a0      	b.n	800457e <USBD_OTG_ISR_Handler+0x12a>
 800483c:	f1ba 0f00 	cmp.w	sl, #0
 8004840:	f47f aed6 	bne.w	80045f0 <USBD_OTG_ISR_Handler+0x19c>
 8004844:	f894 3111 	ldrb.w	r3, [r4, #273]	@ 0x111
 8004848:	2b04      	cmp	r3, #4
 800484a:	f47f aed1 	bne.w	80045f0 <USBD_OTG_ISR_Handler+0x19c>
 800484e:	4620      	mov	r0, r4
 8004850:	f7ff fcc0 	bl	80041d4 <USB_OTG_EP0_OutStart>
 8004854:	e6cc      	b.n	80045f0 <USBD_OTG_ISR_Handler+0x19c>
 8004856:	075a      	lsls	r2, r3, #29
 8004858:	d516      	bpl.n	8004888 <USBD_OTG_ISR_Handler+0x434>
 800485a:	f8db 3000 	ldr.w	r3, [fp]
 800485e:	2204      	movs	r2, #4
 8004860:	609a      	str	r2, [r3, #8]
 8004862:	e70a      	b.n	800467a <USBD_OTG_ISR_Handler+0x226>
 8004864:	0682      	lsls	r2, r0, #26
 8004866:	d51b      	bpl.n	80048a0 <USBD_OTG_ISR_Handler+0x44c>
 8004868:	2320      	movs	r3, #32
 800486a:	608b      	str	r3, [r1, #8]
 800486c:	e6c0      	b.n	80045f0 <USBD_OTG_ISR_Handler+0x19c>
 800486e:	f1b9 0f00 	cmp.w	r9, #0
 8004872:	f47f af02 	bne.w	800467a <USBD_OTG_ISR_Handler+0x226>
 8004876:	f894 3111 	ldrb.w	r3, [r4, #273]	@ 0x111
 800487a:	2b05      	cmp	r3, #5
 800487c:	f47f aefd 	bne.w	800467a <USBD_OTG_ISR_Handler+0x226>
 8004880:	4620      	mov	r0, r4
 8004882:	f7ff fca7 	bl	80041d4 <USB_OTG_EP0_OutStart>
 8004886:	e6f8      	b.n	800467a <USBD_OTG_ISR_Handler+0x226>
 8004888:	071b      	lsls	r3, r3, #28
 800488a:	f57f aef6 	bpl.w	800467a <USBD_OTG_ISR_Handler+0x226>
 800488e:	6833      	ldr	r3, [r6, #0]
 8004890:	4620      	mov	r0, r4
 8004892:	689b      	ldr	r3, [r3, #8]
 8004894:	4798      	blx	r3
 8004896:	f8db 3000 	ldr.w	r3, [fp]
 800489a:	2208      	movs	r2, #8
 800489c:	609a      	str	r2, [r3, #8]
 800489e:	e6ec      	b.n	800467a <USBD_OTG_ISR_Handler+0x226>
 80048a0:	0645      	lsls	r5, r0, #25
 80048a2:	d502      	bpl.n	80048aa <USBD_OTG_ISR_Handler+0x456>
 80048a4:	2340      	movs	r3, #64	@ 0x40
 80048a6:	608b      	str	r3, [r1, #8]
 80048a8:	e6a2      	b.n	80045f0 <USBD_OTG_ISR_Handler+0x19c>
 80048aa:	0780      	lsls	r0, r0, #30
 80048ac:	d502      	bpl.n	80048b4 <USBD_OTG_ISR_Handler+0x460>
 80048ae:	2302      	movs	r3, #2
 80048b0:	608b      	str	r3, [r1, #8]
 80048b2:	e69d      	b.n	80045f0 <USBD_OTG_ISR_Handler+0x19c>
 80048b4:	b25b      	sxtb	r3, r3
 80048b6:	2b00      	cmp	r3, #0
 80048b8:	f43f ae9a 	beq.w	80045f0 <USBD_OTG_ISR_Handler+0x19c>
 80048bc:	f8d6 3130 	ldr.w	r3, [r6, #304]	@ 0x130
 80048c0:	698d      	ldr	r5, [r1, #24]
 80048c2:	f8d6 012c 	ldr.w	r0, [r6, #300]	@ 0x12c
 80048c6:	f8d6 2120 	ldr.w	r2, [r6, #288]	@ 0x120
 80048ca:	fa1f fc85 	uxth.w	ip, r5
 80048ce:	1ac5      	subs	r5, r0, r3
 80048d0:	42aa      	cmp	r2, r5
 80048d2:	bf28      	it	cs
 80048d4:	462a      	movcs	r2, r5
 80048d6:	3203      	adds	r2, #3
 80048d8:	ebbc 0f92 	cmp.w	ip, r2, lsr #2
 80048dc:	bf88      	it	hi
 80048de:	461d      	movhi	r5, r3
 80048e0:	d824      	bhi.n	800492c <USBD_OTG_ISR_Handler+0x4d8>
 80048e2:	e027      	b.n	8004934 <USBD_OTG_ISR_Handler+0x4e0>
 80048e4:	f8d6 3120 	ldr.w	r3, [r6, #288]	@ 0x120
 80048e8:	f8d6 1124 	ldr.w	r1, [r6, #292]	@ 0x124
 80048ec:	429d      	cmp	r5, r3
 80048ee:	bf28      	it	cs
 80048f0:	461d      	movcs	r5, r3
 80048f2:	b2ab      	uxth	r3, r5
 80048f4:	4652      	mov	r2, sl
 80048f6:	4620      	mov	r0, r4
 80048f8:	f7ff f84a 	bl	8003990 <USB_OTG_WritePacket>
 80048fc:	f8d6 3124 	ldr.w	r3, [r6, #292]	@ 0x124
 8004900:	f8d6 012c 	ldr.w	r0, [r6, #300]	@ 0x12c
 8004904:	f8d9 1000 	ldr.w	r1, [r9]
 8004908:	442b      	add	r3, r5
 800490a:	f8c6 3124 	str.w	r3, [r6, #292]	@ 0x124
 800490e:	f8d6 3130 	ldr.w	r3, [r6, #304]	@ 0x130
 8004912:	f105 0803 	add.w	r8, r5, #3
 8004916:	441d      	add	r5, r3
 8004918:	4285      	cmp	r5, r0
 800491a:	ea4f 0898 	mov.w	r8, r8, lsr #2
 800491e:	f8c6 5130 	str.w	r5, [r6, #304]	@ 0x130
 8004922:	d20a      	bcs.n	800493a <USBD_OTG_ISR_Handler+0x4e6>
 8004924:	698a      	ldr	r2, [r1, #24]
 8004926:	b292      	uxth	r2, r2
 8004928:	4590      	cmp	r8, r2
 800492a:	d203      	bcs.n	8004934 <USBD_OTG_ISR_Handler+0x4e0>
 800492c:	42a8      	cmp	r0, r5
 800492e:	eba0 0505 	sub.w	r5, r0, r5
 8004932:	d8d7      	bhi.n	80048e4 <USBD_OTG_ISR_Handler+0x490>
 8004934:	2380      	movs	r3, #128	@ 0x80
 8004936:	608b      	str	r3, [r1, #8]
 8004938:	e65a      	b.n	80045f0 <USBD_OTG_ISR_Handler+0x19c>
 800493a:	6920      	ldr	r0, [r4, #16]
 800493c:	f896 5118 	ldrb.w	r5, [r6, #280]	@ 0x118
 8004940:	6b43      	ldr	r3, [r0, #52]	@ 0x34
 8004942:	2201      	movs	r2, #1
 8004944:	40aa      	lsls	r2, r5
 8004946:	ea23 0302 	bic.w	r3, r3, r2
 800494a:	6343      	str	r3, [r0, #52]	@ 0x34
 800494c:	e7f2      	b.n	8004934 <USBD_OTG_ISR_Handler+0x4e0>
 800494e:	bf00      	nop
 8004950:	20000144 	.word	0x20000144
 8004954:	5f424c53 	.word	0x5f424c53
 8004958:	4554494c 	.word	0x4554494c
 800495c:	7067203a 	.word	0x7067203a
 8004960:	635f6f69 	.word	0x635f6f69
 8004964:	69666e6f 	.word	0x69666e6f
 8004968:	6e697067 	.word	0x6e697067
 800496c:	0a292873 	.word	0x0a292873
 8004970:	00000000 	.word	0x00000000
 8004974:	5b667562 	.word	0x5b667562
 8004978:	205d6425 	.word	0x205d6425
 800497c:	6425203d 	.word	0x6425203d
 8004980:	0000000a 	.word	0x0000000a
 8004984:	756c6176 	.word	0x756c6176
 8004988:	65725f65 	.word	0x65725f65
 800498c:	6e727574 	.word	0x6e727574
 8004990:	3d206465 	.word	0x3d206465
 8004994:	20642520 	.word	0x20642520
 8004998:	75252065 	.word	0x75252065
 800499c:	0000000a 	.word	0x0000000a
 80049a0:	64626c73 	.word	0x64626c73
 80049a4:	63697665 	.word	0x63697665
 80049a8:	00000065 	.word	0x00000065
 80049ac:	6f697067 	.word	0x6f697067
 80049b0:	7665645f 	.word	0x7665645f
 80049b4:	00656369 	.word	0x00656369
 80049b8:	2a2a2a0a 	.word	0x2a2a2a0a
 80049bc:	73617420 	.word	0x73617420
 80049c0:	6425206b 	.word	0x6425206b
 80049c4:	7473202c 	.word	0x7473202c
 80049c8:	3a6b6361 	.word	0x3a6b6361
 80049cc:	25783020 	.word	0x25783020
 80049d0:	73282070 	.word	0x73282070
 80049d4:	20657a69 	.word	0x20657a69
 80049d8:	0a296425 	.word	0x0a296425
 80049dc:	00000000 	.word	0x00000000
 80049e0:	4c554e3c 	.word	0x4c554e3c
 80049e4:	00003e4c 	.word	0x00003e4c
 80049e8:	33323130 	.word	0x33323130
 80049ec:	37363534 	.word	0x37363534
 80049f0:	62613938 	.word	0x62613938
 80049f4:	66656463 	.word	0x66656463
 80049f8:	00000000 	.word	0x00000000
 80049fc:	204d5241 	.word	0x204d5241
 8004a00:	74726f43 	.word	0x74726f43
 8004a04:	4d207865 	.word	0x4d207865
 8004a08:	73282034 	.word	0x73282034
 8004a0c:	32336d74 	.word	0x32336d74
 8004a10:	78783466 	.word	0x78783466
 8004a14:	00000029 	.word	0x00000029
 8004a18:	37392e30 	.word	0x37392e30
 8004a1c:	00000000 	.word	0x00000000
 8004a20:	2f584355 	.word	0x2f584355
 8004a24:	7620534f 	.word	0x7620534f
 8004a28:	62207325 	.word	0x62207325
 8004a2c:	20746f6f 	.word	0x20746f6f
 8004a30:	25206e6f 	.word	0x25206e6f
 8004a34:	00000a73 	.word	0x00000a73
 8004a38:	70616568 	.word	0x70616568
 8004a3c:	696e695f 	.word	0x696e695f
 8004a40:	2c292874 	.word	0x2c292874
 8004a44:	20642520 	.word	0x20642520
 8004a48:	65747962 	.word	0x65747962
 8004a4c:	72662073 	.word	0x72662073
 8004a50:	000a6565 	.word	0x000a6565
 8004a54:	00000a5a 	.word	0x00000a5a
 8004a58:	00000a58 	.word	0x00000a58
 8004a5c:	2a2a2a0a 	.word	0x2a2a2a0a
 8004a60:	4c414820 	.word	0x4c414820
 8004a64:	25282054 	.word	0x25282054
 8004a68:	00002964 	.word	0x00002964
 8004a6c:	25202d20 	.word	0x25202d20
 8004a70:	00000a73 	.word	0x00000a73
 8004a74:	6b736174 	.word	0x6b736174
 8004a78:	3a642520 	.word	0x3a642520
 8004a7c:	25783020 	.word	0x25783020
 8004a80:	73202c70 	.word	0x73202c70
 8004a84:	6b636174 	.word	0x6b636174
 8004a88:	7830203a 	.word	0x7830203a
 8004a8c:	202c7025 	.word	0x202c7025
 8004a90:	657a6973 	.word	0x657a6973
 8004a94:	0a642520 	.word	0x0a642520
 8004a98:	00000000 	.word	0x00000000
 8004a9c:	334d5453 	.word	0x334d5453
 8004aa0:	69562032 	.word	0x69562032
 8004aa4:	61757472 	.word	0x61757472
 8004aa8:	6f43206c 	.word	0x6f43206c
 8004aac:	726f506d 	.word	0x726f506d
 8004ab0:	00000074 	.word	0x00000074
 8004ab4:	694d5453 	.word	0x694d5453
 8004ab8:	656f7263 	.word	0x656f7263
 8004abc:	7463656c 	.word	0x7463656c
 8004ac0:	696e6f72 	.word	0x696e6f72
 8004ac4:	00007363 	.word	0x00007363
 8004ac8:	30303030 	.word	0x30303030
 8004acc:	30303030 	.word	0x30303030
 8004ad0:	43303530 	.word	0x43303530
 8004ad4:	00000000 	.word	0x00000000
 8004ad8:	20504356 	.word	0x20504356
 8004adc:	666e6f43 	.word	0x666e6f43
 8004ae0:	00006769 	.word	0x00006769
 8004ae4:	20504356 	.word	0x20504356
 8004ae8:	65746e49 	.word	0x65746e49
 8004aec:	63616672 	.word	0x63616672
 8004af0:	00000065 	.word	0x00000065
 8004af4:	65206f6e 	.word	0x65206f6e
 8004af8:	726f7272 	.word	0x726f7272
 8004afc:	00000000 	.word	0x00000000
 8004b00:	6c696166 	.word	0x6c696166
 8004b04:	00657275 	.word	0x00657275
 8004b08:	74206f6e 	.word	0x74206f6e
 8004b0c:	736b7361 	.word	0x736b7361
 8004b10:	206f7420 	.word	0x206f7420
 8004b14:	006e7572 	.word	0x006e7572
 8004b18:	2062636b 	.word	0x2062636b
 8004b1c:	6f6c6c61 	.word	0x6f6c6c61
 8004b20:	61662063 	.word	0x61662063
 8004b24:	64656c69 	.word	0x64656c69
 8004b28:	00000000 	.word	0x00000000
 8004b2c:	20626374 	.word	0x20626374
 8004b30:	6f6c6c61 	.word	0x6f6c6c61
 8004b34:	61662063 	.word	0x61662063
 8004b38:	64656c69 	.word	0x64656c69
 8004b3c:	00000000 	.word	0x00000000
 8004b40:	63617473 	.word	0x63617473
 8004b44:	6c61206b 	.word	0x6c61206b
 8004b48:	20636f6c 	.word	0x20636f6c
 8004b4c:	6c696166 	.word	0x6c696166
 8004b50:	00006465 	.word	0x00006465
 8004b54:	6b736174 	.word	0x6b736174
 8004b58:	746f6e20 	.word	0x746f6e20
 8004b5c:	756f6620 	.word	0x756f6620
 8004b60:	0000646e 	.word	0x0000646e
 8004b64:	6b736174 	.word	0x6b736174
 8004b68:	73757320 	.word	0x73757320
 8004b6c:	646e6570 	.word	0x646e6570
 8004b70:	69616620 	.word	0x69616620
 8004b74:	0064656c 	.word	0x0064656c
 8004b78:	6b736174 	.word	0x6b736174
 8004b7c:	73657220 	.word	0x73657220
 8004b80:	20656d75 	.word	0x20656d75
 8004b84:	6c696166 	.word	0x6c696166
 8004b88:	00006465 	.word	0x00006465
 8004b8c:	6b736174 	.word	0x6b736174
 8004b90:	766e6920 	.word	0x766e6920
 8004b94:	64696c61 	.word	0x64696c61
 8004b98:	69727020 	.word	0x69727020
 8004b9c:	7469726f 	.word	0x7469726f
 8004ba0:	00000079 	.word	0x00000079
 8004ba4:	63617473 	.word	0x63617473
 8004ba8:	6863206b 	.word	0x6863206b
 8004bac:	206b6365 	.word	0x206b6365
 8004bb0:	6c696166 	.word	0x6c696166
 8004bb4:	00006465 	.word	0x00006465
 8004bb8:	65706970 	.word	0x65706970
 8004bbc:	6c6c6120 	.word	0x6c6c6120
 8004bc0:	6620636f 	.word	0x6620636f
 8004bc4:	656c6961 	.word	0x656c6961
 8004bc8:	00000064 	.word	0x00000064
 8004bcc:	65706970 	.word	0x65706970
 8004bd0:	61656420 	.word	0x61656420
 8004bd4:	636f6c6c 	.word	0x636f6c6c
 8004bd8:	69616620 	.word	0x69616620
 8004bdc:	0064656c 	.word	0x0064656c
 8004be0:	616d6573 	.word	0x616d6573
 8004be4:	6c6c6120 	.word	0x6c6c6120
 8004be8:	6620636f 	.word	0x6620636f
 8004bec:	656c6961 	.word	0x656c6961
 8004bf0:	00000064 	.word	0x00000064
 8004bf4:	616d6573 	.word	0x616d6573
 8004bf8:	61656420 	.word	0x61656420
 8004bfc:	636f6c6c 	.word	0x636f6c6c
 8004c00:	69616620 	.word	0x69616620
 8004c04:	0064656c 	.word	0x0064656c
 8004c08:	616d6573 	.word	0x616d6573
 8004c0c:	65706f20 	.word	0x65706f20
 8004c10:	69746172 	.word	0x69746172
 8004c14:	66206e6f 	.word	0x66206e6f
 8004c18:	656c6961 	.word	0x656c6961
 8004c1c:	00000064 	.word	0x00000064
 8004c20:	7373656d 	.word	0x7373656d
 8004c24:	20656761 	.word	0x20656761
 8004c28:	75657571 	.word	0x75657571
 8004c2c:	6f6e2065 	.word	0x6f6e2065
 8004c30:	6d652074 	.word	0x6d652074
 8004c34:	00797470 	.word	0x00797470
 8004c38:	6e6b6e75 	.word	0x6e6b6e75
 8004c3c:	206e776f 	.word	0x206e776f
 8004c40:	73616572 	.word	0x73616572
 8004c44:	00006e6f 	.word	0x00006e6f

08004c48 <slb_device>:
 8004c48:	080049a0 08004c5c 200002c8 20000024     .I..\L..... $.. 
 8004c58:	00000000                                ....

08004c5c <slb_config>:
 8004c5c:	00000021 00000101 00000000 08000241     !...........A...
 8004c6c:	080001e5                                ....

08004c70 <gpio_device>:
 8004c70:	080049ac 08004c84 00000000 00000000     .I...L..........
 8004c80:	2000000c                                ... 

08004c84 <gpio_config>:
 8004c84:	00800001 00008000 00000000              ............

08004c90 <APBAHBPrescTable>:
 8004c90:	00000000 04030201 04030201 09080706     ................

08004ca0 <AHBPrescTable>:
	...
 8004ca8:	04030201 09080706                       ........
