
./build/target/image.elf:     file format elf32-littlearm


Disassembly of section .text:

08000188 <setjmp>:
 8000188:	1c02      	adds	r2, r0, #0
 800018a:	4673      	mov	r3, lr
 800018c:	c0f8      	stmia	r0!, {r3, r4, r5, r6, r7}
 800018e:	4643      	mov	r3, r8
 8000190:	464c      	mov	r4, r9
 8000192:	4655      	mov	r5, sl
 8000194:	465e      	mov	r6, fp
 8000196:	466f      	mov	r7, sp
 8000198:	c0f8      	stmia	r0!, {r3, r4, r5, r6, r7}
 800019a:	caf8      	ldmia	r2!, {r3, r4, r5, r6, r7}
 800019c:	2000      	movs	r0, #0
 800019e:	4770      	bx	lr

080001a0 <longjmp>:
 80001a0:	1c02      	adds	r2, r0, #0
 80001a2:	3014      	adds	r0, #20
 80001a4:	c8f8      	ldmia	r0!, {r3, r4, r5, r6, r7}
 80001a6:	4698      	mov	r8, r3
 80001a8:	46a1      	mov	r9, r4
 80001aa:	46aa      	mov	sl, r5
 80001ac:	46b3      	mov	fp, r6
 80001ae:	46bd      	mov	sp, r7
 80001b0:	caf8      	ldmia	r2!, {r3, r4, r5, r6, r7}
 80001b2:	1c08      	adds	r0, r1, #0
 80001b4:	d100      	bne.n	80001b8 <longjmp+0x18>
 80001b6:	2001      	movs	r0, #1
 80001b8:	4718      	bx	r3
 80001ba:	bf00      	nop

080001bc <PendSV_Handler>:
 80001bc:	f3ef 8009 	mrs	r0, PSP
 80001c0:	e920 0ff0 	stmdb	r0!, {r4, r5, r6, r7, r8, r9, sl, fp}
 80001c4:	4905      	ldr	r1, [pc, #20]	@ (80001dc <PendSV_Handler+0x20>)
 80001c6:	6809      	ldr	r1, [r1, #0]
 80001c8:	6008      	str	r0, [r1, #0]
 80001ca:	4905      	ldr	r1, [pc, #20]	@ (80001e0 <PendSV_Handler+0x24>)
 80001cc:	6809      	ldr	r1, [r1, #0]
 80001ce:	6808      	ldr	r0, [r1, #0]
 80001d0:	e8b0 0ff0 	ldmia.w	r0!, {r4, r5, r6, r7, r8, r9, sl, fp}
 80001d4:	f380 8809 	msr	PSP, r0
 80001d8:	4770      	bx	lr
 80001da:	0000      	.short	0x0000
 80001dc:	20000294 	.word	0x20000294
 80001e0:	20000290 	.word	0x20000290

080001e4 <gpio_sdl>:
 80001e4:	b530      	push	{r4, r5, lr}
 80001e6:	b130      	cbz	r0, 80001f6 <gpio_sdl+0x12>
 80001e8:	2801      	cmp	r0, #1
 80001ea:	d01b      	beq.n	8000224 <gpio_sdl+0x40>
 80001ec:	3001      	adds	r0, #1
 80001ee:	d00b      	beq.n	8000208 <gpio_sdl+0x24>
 80001f0:	f04f 30ff 	mov.w	r0, #4294967295	@ 0xffffffff
 80001f4:	bd30      	pop	{r4, r5, pc}
 80001f6:	4b0f      	ldr	r3, [pc, #60]	@ (8000234 <gpio_sdl+0x50>)
 80001f8:	4a0f      	ldr	r2, [pc, #60]	@ (8000238 <gpio_sdl+0x54>)
 80001fa:	681b      	ldr	r3, [r3, #0]
 80001fc:	6810      	ldr	r0, [r2, #0]
 80001fe:	68db      	ldr	r3, [r3, #12]
 8000200:	2180      	movs	r1, #128	@ 0x80
 8000202:	4798      	blx	r3
 8000204:	2000      	movs	r0, #0
 8000206:	bd30      	pop	{r4, r5, pc}
 8000208:	4d0a      	ldr	r5, [pc, #40]	@ (8000234 <gpio_sdl+0x50>)
 800020a:	4c0b      	ldr	r4, [pc, #44]	@ (8000238 <gpio_sdl+0x54>)
 800020c:	682b      	ldr	r3, [r5, #0]
 800020e:	6820      	ldr	r0, [r4, #0]
 8000210:	689b      	ldr	r3, [r3, #8]
 8000212:	2180      	movs	r1, #128	@ 0x80
 8000214:	4798      	blx	r3
 8000216:	682b      	ldr	r3, [r5, #0]
 8000218:	6820      	ldr	r0, [r4, #0]
 800021a:	685b      	ldr	r3, [r3, #4]
 800021c:	4798      	blx	r3
 800021e:	f3c0 10c0 	ubfx	r0, r0, #7, #1
 8000222:	bd30      	pop	{r4, r5, pc}
 8000224:	4b03      	ldr	r3, [pc, #12]	@ (8000234 <gpio_sdl+0x50>)
 8000226:	4a04      	ldr	r2, [pc, #16]	@ (8000238 <gpio_sdl+0x54>)
 8000228:	681b      	ldr	r3, [r3, #0]
 800022a:	6810      	ldr	r0, [r2, #0]
 800022c:	689b      	ldr	r3, [r3, #8]
 800022e:	2180      	movs	r1, #128	@ 0x80
 8000230:	4798      	blx	r3
 8000232:	e7e7      	b.n	8000204 <gpio_sdl+0x20>
 8000234:	20000004 	.word	0x20000004
 8000238:	20000008 	.word	0x20000008

0800023c <gpio_configpins>:
 800023c:	b500      	push	{lr}
 800023e:	4806      	ldr	r0, [pc, #24]	@ (8000258 <gpio_configpins+0x1c>)
 8000240:	f000 fc7a 	bl	8000b38 <ucx_printf>
 8000244:	4b05      	ldr	r3, [pc, #20]	@ (800025c <gpio_configpins+0x20>)
 8000246:	4a06      	ldr	r2, [pc, #24]	@ (8000260 <gpio_configpins+0x24>)
 8000248:	681b      	ldr	r3, [r3, #0]
 800024a:	6810      	ldr	r0, [r2, #0]
 800024c:	681b      	ldr	r3, [r3, #0]
 800024e:	4798      	blx	r3
 8000250:	2000      	movs	r0, #0
 8000252:	f85d fb04 	ldr.w	pc, [sp], #4
 8000256:	bf00      	nop
 8000258:	0800494c 	.word	0x0800494c
 800025c:	20000004 	.word	0x20000004
 8000260:	20000008 	.word	0x20000008

08000264 <task0>:
 8000264:	b530      	push	{r4, r5, lr}
 8000266:	4c12      	ldr	r4, [pc, #72]	@ (80002b0 <task0+0x4c>)
 8000268:	4812      	ldr	r0, [pc, #72]	@ (80002b4 <task0+0x50>)
 800026a:	4d13      	ldr	r5, [pc, #76]	@ (80002b8 <task0+0x54>)
 800026c:	b0b2      	sub	sp, #200	@ 0xc8
 800026e:	f000 fc63 	bl	8000b38 <ucx_printf>
 8000272:	4a12      	ldr	r2, [pc, #72]	@ (80002bc <task0+0x58>)
 8000274:	6820      	ldr	r0, [r4, #0]
 8000276:	9200      	str	r2, [sp, #0]
 8000278:	2364      	movs	r3, #100	@ 0x64
 800027a:	2100      	movs	r1, #0
 800027c:	f88d 3004 	strb.w	r3, [sp, #4]
 8000280:	f000 f834 	bl	80002ec <dev_open>
 8000284:	4669      	mov	r1, sp
 8000286:	6820      	ldr	r0, [r4, #0]
 8000288:	2205      	movs	r2, #5
 800028a:	f000 f837 	bl	80002fc <dev_write>
 800028e:	a919      	add	r1, sp, #100	@ 0x64
 8000290:	6820      	ldr	r0, [r4, #0]
 8000292:	220a      	movs	r2, #10
 8000294:	f000 f82e 	bl	80002f4 <dev_read>
 8000298:	f89d 2065 	ldrb.w	r2, [sp, #101]	@ 0x65
 800029c:	f89d 1064 	ldrb.w	r1, [sp, #100]	@ 0x64
 80002a0:	4628      	mov	r0, r5
 80002a2:	f000 fc49 	bl	8000b38 <ucx_printf>
 80002a6:	f44f 707a 	mov.w	r0, #1000	@ 0x3e8
 80002aa:	f000 f8dd 	bl	8000468 <_delay_ms>
 80002ae:	e7e9      	b.n	8000284 <task0+0x20>
 80002b0:	20000000 	.word	0x20000000
 80002b4:	0800496c 	.word	0x0800496c
 80002b8:	08004980 	.word	0x08004980
 80002bc:	02002002 	.word	0x02002002

080002c0 <app_main>:
 80002c0:	b500      	push	{lr}
 80002c2:	f44f 6100 	mov.w	r1, #2048	@ 0x800
 80002c6:	4805      	ldr	r0, [pc, #20]	@ (80002dc <app_main+0x1c>)
 80002c8:	f001 f9c6 	bl	8001658 <ucx_task_spawn>
 80002cc:	4b04      	ldr	r3, [pc, #16]	@ (80002e0 <app_main+0x20>)
 80002ce:	6818      	ldr	r0, [r3, #0]
 80002d0:	f000 f808 	bl	80002e4 <dev_init>
 80002d4:	2001      	movs	r0, #1
 80002d6:	f85d fb04 	ldr.w	pc, [sp], #4
 80002da:	bf00      	nop
 80002dc:	08000265 	.word	0x08000265
 80002e0:	20000000 	.word	0x20000000

080002e4 <dev_init>:
 80002e4:	68c3      	ldr	r3, [r0, #12]
 80002e6:	681b      	ldr	r3, [r3, #0]
 80002e8:	4718      	bx	r3
 80002ea:	bf00      	nop

080002ec <dev_open>:
 80002ec:	68c3      	ldr	r3, [r0, #12]
 80002ee:	689b      	ldr	r3, [r3, #8]
 80002f0:	4718      	bx	r3
 80002f2:	bf00      	nop

080002f4 <dev_read>:
 80002f4:	68c3      	ldr	r3, [r0, #12]
 80002f6:	691b      	ldr	r3, [r3, #16]
 80002f8:	4718      	bx	r3
 80002fa:	bf00      	nop

080002fc <dev_write>:
 80002fc:	68c3      	ldr	r3, [r0, #12]
 80002fe:	695b      	ldr	r3, [r3, #20]
 8000300:	4718      	bx	r3
 8000302:	bf00      	nop

08000304 <driver_int_attach>:
 8000304:	6840      	ldr	r0, [r0, #4]
 8000306:	f003 b80d 	b.w	8003324 <gpio_ll_int_attach>
 800030a:	bf00      	nop

0800030c <driver_toggle>:
 800030c:	6840      	ldr	r0, [r0, #4]
 800030e:	f002 beff 	b.w	8003110 <gpio_ll_toggle>
 8000312:	bf00      	nop

08000314 <driver_clear>:
 8000314:	6840      	ldr	r0, [r0, #4]
 8000316:	f002 bed9 	b.w	80030cc <gpio_ll_clear>
 800031a:	bf00      	nop

0800031c <driver_set>:
 800031c:	6840      	ldr	r0, [r0, #4]
 800031e:	f002 beb3 	b.w	8003088 <gpio_ll_set>
 8000322:	bf00      	nop

08000324 <driver_get>:
 8000324:	b500      	push	{lr}
 8000326:	6840      	ldr	r0, [r0, #4]
 8000328:	f002 fe8e 	bl	8003048 <gpio_ll_get>
 800032c:	2800      	cmp	r0, #0
 800032e:	bfa8      	it	ge
 8000330:	b280      	uxthge	r0, r0
 8000332:	f85d fb04 	ldr.w	pc, [sp], #4
 8000336:	bf00      	nop

08000338 <driver_setup>:
 8000338:	6840      	ldr	r0, [r0, #4]
 800033a:	f002 bd7f 	b.w	8002e3c <gpio_ll_setup>
 800033e:	bf00      	nop

08000340 <Dummy_Handler>:
 8000340:	4770      	bx	lr
 8000342:	bf00      	nop

08000344 <SVC_Handler>:
 8000344:	f3ef 8309 	mrs	r3, PSP
 8000348:	681a      	ldr	r2, [r3, #0]
 800034a:	6858      	ldr	r0, [r3, #4]
 800034c:	4710      	bx	r2
 800034e:	bf00      	nop

08000350 <_delay_update>:
 8000350:	6843      	ldr	r3, [r0, #4]
 8000352:	f893 2066 	ldrb.w	r2, [r3, #102]	@ 0x66
 8000356:	2a03      	cmp	r2, #3
 8000358:	d001      	beq.n	800035e <_delay_update+0xe>
 800035a:	2000      	movs	r0, #0
 800035c:	4770      	bx	lr
 800035e:	f8b3 2062 	ldrh.w	r2, [r3, #98]	@ 0x62
 8000362:	2a00      	cmp	r2, #0
 8000364:	d0f9      	beq.n	800035a <_delay_update+0xa>
 8000366:	3a01      	subs	r2, #1
 8000368:	b292      	uxth	r2, r2
 800036a:	f8a3 2062 	strh.w	r2, [r3, #98]	@ 0x62
 800036e:	2a00      	cmp	r2, #0
 8000370:	d1f3      	bne.n	800035a <_delay_update+0xa>
 8000372:	2201      	movs	r2, #1
 8000374:	f883 2066 	strb.w	r2, [r3, #102]	@ 0x66
 8000378:	e7ef      	b.n	800035a <_delay_update+0xa>
 800037a:	bf00      	nop

0800037c <timer_enable>:
 800037c:	f04f 22e0 	mov.w	r2, #3758153728	@ 0xe000e000
 8000380:	6913      	ldr	r3, [r2, #16]
 8000382:	f043 0301 	orr.w	r3, r3, #1
 8000386:	6113      	str	r3, [r2, #16]
 8000388:	4770      	bx	lr
 800038a:	bf00      	nop

0800038c <timer_disable>:
 800038c:	f04f 22e0 	mov.w	r2, #3758153728	@ 0xe000e000
 8000390:	6913      	ldr	r3, [r2, #16]
 8000392:	f023 0301 	bic.w	r3, r3, #1
 8000396:	6113      	str	r3, [r2, #16]
 8000398:	4770      	bx	lr
 800039a:	bf00      	nop

0800039c <Reset_Handler>:
 800039c:	4b11      	ldr	r3, [pc, #68]	@ (80003e4 <Reset_Handler+0x48>)
 800039e:	4a12      	ldr	r2, [pc, #72]	@ (80003e8 <Reset_Handler+0x4c>)
 80003a0:	4293      	cmp	r3, r2
 80003a2:	b500      	push	{lr}
 80003a4:	d20c      	bcs.n	80003c0 <Reset_Handler+0x24>
 80003a6:	3a01      	subs	r2, #1
 80003a8:	1ad2      	subs	r2, r2, r3
 80003aa:	f022 0203 	bic.w	r2, r2, #3
 80003ae:	3204      	adds	r2, #4
 80003b0:	490e      	ldr	r1, [pc, #56]	@ (80003ec <Reset_Handler+0x50>)
 80003b2:	441a      	add	r2, r3
 80003b4:	f851 0b04 	ldr.w	r0, [r1], #4
 80003b8:	f843 0b04 	str.w	r0, [r3], #4
 80003bc:	4293      	cmp	r3, r2
 80003be:	d1f9      	bne.n	80003b4 <Reset_Handler+0x18>
 80003c0:	4b0b      	ldr	r3, [pc, #44]	@ (80003f0 <Reset_Handler+0x54>)
 80003c2:	4a0c      	ldr	r2, [pc, #48]	@ (80003f4 <Reset_Handler+0x58>)
 80003c4:	4293      	cmp	r3, r2
 80003c6:	d20a      	bcs.n	80003de <Reset_Handler+0x42>
 80003c8:	3a01      	subs	r2, #1
 80003ca:	1ad2      	subs	r2, r2, r3
 80003cc:	f022 0203 	bic.w	r2, r2, #3
 80003d0:	3204      	adds	r2, #4
 80003d2:	441a      	add	r2, r3
 80003d4:	2100      	movs	r1, #0
 80003d6:	f843 1b04 	str.w	r1, [r3], #4
 80003da:	4293      	cmp	r3, r2
 80003dc:	d1fb      	bne.n	80003d6 <Reset_Handler+0x3a>
 80003de:	f000 fc17 	bl	8000c10 <main>
 80003e2:	e7fe      	b.n	80003e2 <Reset_Handler+0x46>
 80003e4:	20000000 	.word	0x20000000
 80003e8:	20000284 	.word	0x20000284
 80003ec:	08004ccc 	.word	0x08004ccc
 80003f0:	20000284 	.word	0x20000284
 80003f4:	200013b8 	.word	0x200013b8

080003f8 <_stack_check>:
 80003f8:	4b0c      	ldr	r3, [pc, #48]	@ (800042c <_stack_check+0x34>)
 80003fa:	681b      	ldr	r3, [r3, #0]
 80003fc:	685b      	ldr	r3, [r3, #4]
 80003fe:	b510      	push	{r4, lr}
 8000400:	685c      	ldr	r4, [r3, #4]
 8000402:	6d60      	ldr	r0, [r4, #84]	@ 0x54
 8000404:	6803      	ldr	r3, [r0, #0]
 8000406:	f1b3 3f33 	cmp.w	r3, #858993459	@ 0x33333333
 800040a:	d100      	bne.n	800040e <_stack_check+0x16>
 800040c:	bd10      	pop	{r4, pc}
 800040e:	6da1      	ldr	r1, [r4, #88]	@ 0x58
 8000410:	f002 fc9e 	bl	8002d50 <hexdump>
 8000414:	6da3      	ldr	r3, [r4, #88]	@ 0x58
 8000416:	6d62      	ldr	r2, [r4, #84]	@ 0x54
 8000418:	f8b4 1060 	ldrh.w	r1, [r4, #96]	@ 0x60
 800041c:	4804      	ldr	r0, [pc, #16]	@ (8000430 <_stack_check+0x38>)
 800041e:	f000 fb8b 	bl	8000b38 <ucx_printf>
 8000422:	e8bd 4010 	ldmia.w	sp!, {r4, lr}
 8000426:	4803      	ldr	r0, [pc, #12]	@ (8000434 <_stack_check+0x3c>)
 8000428:	f001 b8b0 	b.w	800158c <krnl_panic>
 800042c:	20000068 	.word	0x20000068
 8000430:	08004a04 	.word	0x08004a04
 8000434:	ffffc00a 	.word	0xffffc00a

08000438 <__kbhit>:
 8000438:	b500      	push	{lr}
 800043a:	2000      	movs	r0, #0
 800043c:	f001 fb4c 	bl	8001ad8 <usart_rxsize>
 8000440:	3800      	subs	r0, #0
 8000442:	bf18      	it	ne
 8000444:	2001      	movne	r0, #1
 8000446:	f85d fb04 	ldr.w	pc, [sp], #4
 800044a:	bf00      	nop

0800044c <__getchar>:
 800044c:	b500      	push	{lr}
 800044e:	2000      	movs	r0, #0
 8000450:	f001 fbca 	bl	8001be8 <usart_rx>
 8000454:	f85d fb04 	ldr.w	pc, [sp], #4

08000458 <__putchar>:
 8000458:	b510      	push	{r4, lr}
 800045a:	b2c1      	uxtb	r1, r0
 800045c:	4604      	mov	r4, r0
 800045e:	2000      	movs	r0, #0
 8000460:	f001 fb78 	bl	8001b54 <usart_tx>
 8000464:	4620      	mov	r0, r4
 8000466:	bd10      	pop	{r4, pc}

08000468 <_delay_ms>:
 8000468:	e92d 47f0 	stmdb	sp!, {r4, r5, r6, r7, r8, r9, sl, lr}
 800046c:	4b2d      	ldr	r3, [pc, #180]	@ (8000524 <_delay_ms+0xbc>)
 800046e:	f8df 80b8 	ldr.w	r8, [pc, #184]	@ 8000528 <_delay_ms+0xc0>
 8000472:	6a5b      	ldr	r3, [r3, #36]	@ 0x24
 8000474:	4f2d      	ldr	r7, [pc, #180]	@ (800052c <_delay_ms+0xc4>)
 8000476:	f8b8 2000 	ldrh.w	r2, [r8]
 800047a:	683c      	ldr	r4, [r7, #0]
 800047c:	4e29      	ldr	r6, [pc, #164]	@ (8000524 <_delay_ms+0xbc>)
 800047e:	b086      	sub	sp, #24
 8000480:	b29b      	uxth	r3, r3
 8000482:	f8ad 300c 	strh.w	r3, [sp, #12]
 8000486:	f8bd 300c 	ldrh.w	r3, [sp, #12]
 800048a:	b29b      	uxth	r3, r3
 800048c:	429a      	cmp	r2, r3
 800048e:	f8bd 300c 	ldrh.w	r3, [sp, #12]
 8000492:	f8bd a00c 	ldrh.w	sl, [sp, #12]
 8000496:	bf88      	it	hi
 8000498:	3401      	addhi	r4, #1
 800049a:	fa1f fa8a 	uxth.w	sl, sl
 800049e:	ea4f 4204 	mov.w	r2, r4, lsl #16
 80004a2:	f44f 757a 	mov.w	r5, #1000	@ 0x3e8
 80004a6:	bf88      	it	hi
 80004a8:	603c      	strhi	r4, [r7, #0]
 80004aa:	ea4f 4c14 	mov.w	ip, r4, lsr #16
 80004ae:	fba0 5e05 	umull	r5, lr, r0, r5
 80004b2:	eb12 000a 	adds.w	r0, r2, sl
 80004b6:	f14c 0100 	adc.w	r1, ip, #0
 80004ba:	9004      	str	r0, [sp, #16]
 80004bc:	9105      	str	r1, [sp, #20]
 80004be:	b29b      	uxth	r3, r3
 80004c0:	f04f 0900 	mov.w	r9, #0
 80004c4:	6a71      	ldr	r1, [r6, #36]	@ 0x24
 80004c6:	b289      	uxth	r1, r1
 80004c8:	f8ad 100e 	strh.w	r1, [sp, #14]
 80004cc:	f8bd 100e 	ldrh.w	r1, [sp, #14]
 80004d0:	b289      	uxth	r1, r1
 80004d2:	4299      	cmp	r1, r3
 80004d4:	d205      	bcs.n	80004e2 <_delay_ms+0x7a>
 80004d6:	3401      	adds	r4, #1
 80004d8:	ea4f 4c14 	mov.w	ip, r4, lsr #16
 80004dc:	0422      	lsls	r2, r4, #16
 80004de:	f04f 0901 	mov.w	r9, #1
 80004e2:	f8bd 300e 	ldrh.w	r3, [sp, #14]
 80004e6:	f8bd a00e 	ldrh.w	sl, [sp, #14]
 80004ea:	a904      	add	r1, sp, #16
 80004ec:	c903      	ldmia	r1, {r0, r1}
 80004ee:	e88d 0003 	stmia.w	sp, {r0, r1}
 80004f2:	9901      	ldr	r1, [sp, #4]
 80004f4:	fa1f fa8a 	uxth.w	sl, sl
 80004f8:	ebba 0000 	subs.w	r0, sl, r0
 80004fc:	eb61 0141 	sbc.w	r1, r1, r1, lsl #1
 8000500:	1810      	adds	r0, r2, r0
 8000502:	eb41 010c 	adc.w	r1, r1, ip
 8000506:	42a8      	cmp	r0, r5
 8000508:	eb71 010e 	sbcs.w	r1, r1, lr
 800050c:	b29b      	uxth	r3, r3
 800050e:	d3d9      	bcc.n	80004c4 <_delay_ms+0x5c>
 8000510:	f8a8 3000 	strh.w	r3, [r8]
 8000514:	f1b9 0f00 	cmp.w	r9, #0
 8000518:	d000      	beq.n	800051c <_delay_ms+0xb4>
 800051a:	603c      	str	r4, [r7, #0]
 800051c:	b006      	add	sp, #24
 800051e:	e8bd 87f0 	ldmia.w	sp!, {r4, r5, r6, r7, r8, r9, sl, pc}
 8000522:	bf00      	nop
 8000524:	40014800 	.word	0x40014800
 8000528:	2000028c 	.word	0x2000028c
 800052c:	20000288 	.word	0x20000288

08000530 <_delay_us>:
 8000530:	e92d 43f0 	stmdb	sp!, {r4, r5, r6, r7, r8, r9, lr}
 8000534:	4b29      	ldr	r3, [pc, #164]	@ (80005dc <_delay_us+0xac>)
 8000536:	f8df 80a8 	ldr.w	r8, [pc, #168]	@ 80005e0 <_delay_us+0xb0>
 800053a:	6a5b      	ldr	r3, [r3, #36]	@ 0x24
 800053c:	f8df e0a4 	ldr.w	lr, [pc, #164]	@ 80005e4 <_delay_us+0xb4>
 8000540:	f8b8 2000 	ldrh.w	r2, [r8]
 8000544:	f8de 6000 	ldr.w	r6, [lr]
 8000548:	4f24      	ldr	r7, [pc, #144]	@ (80005dc <_delay_us+0xac>)
 800054a:	b084      	sub	sp, #16
 800054c:	b29b      	uxth	r3, r3
 800054e:	f8ad 3004 	strh.w	r3, [sp, #4]
 8000552:	f8bd 3004 	ldrh.w	r3, [sp, #4]
 8000556:	b29b      	uxth	r3, r3
 8000558:	429a      	cmp	r2, r3
 800055a:	f8bd 2004 	ldrh.w	r2, [sp, #4]
 800055e:	f8bd 3004 	ldrh.w	r3, [sp, #4]
 8000562:	bf88      	it	hi
 8000564:	3601      	addhi	r6, #1
 8000566:	b29b      	uxth	r3, r3
 8000568:	ea4f 4106 	mov.w	r1, r6, lsl #16
 800056c:	bf88      	it	hi
 800056e:	f8ce 6000 	strhi.w	r6, [lr]
 8000572:	ea4f 4c16 	mov.w	ip, r6, lsr #16
 8000576:	18cc      	adds	r4, r1, r3
 8000578:	f14c 0500 	adc.w	r5, ip, #0
 800057c:	9402      	str	r4, [sp, #8]
 800057e:	9503      	str	r5, [sp, #12]
 8000580:	b292      	uxth	r2, r2
 8000582:	f04f 0900 	mov.w	r9, #0
 8000586:	6a7b      	ldr	r3, [r7, #36]	@ 0x24
 8000588:	b29b      	uxth	r3, r3
 800058a:	f8ad 3006 	strh.w	r3, [sp, #6]
 800058e:	f8bd 3006 	ldrh.w	r3, [sp, #6]
 8000592:	b29b      	uxth	r3, r3
 8000594:	4293      	cmp	r3, r2
 8000596:	d205      	bcs.n	80005a4 <_delay_us+0x74>
 8000598:	3601      	adds	r6, #1
 800059a:	ea4f 4c16 	mov.w	ip, r6, lsr #16
 800059e:	0431      	lsls	r1, r6, #16
 80005a0:	f04f 0901 	mov.w	r9, #1
 80005a4:	f8bd 2006 	ldrh.w	r2, [sp, #6]
 80005a8:	f8bd 3006 	ldrh.w	r3, [sp, #6]
 80005ac:	ad02      	add	r5, sp, #8
 80005ae:	cd30      	ldmia	r5, {r4, r5}
 80005b0:	b29b      	uxth	r3, r3
 80005b2:	1b1b      	subs	r3, r3, r4
 80005b4:	eb65 0445 	sbc.w	r4, r5, r5, lsl #1
 80005b8:	185b      	adds	r3, r3, r1
 80005ba:	eb44 040c 	adc.w	r4, r4, ip
 80005be:	4283      	cmp	r3, r0
 80005c0:	f174 0400 	sbcs.w	r4, r4, #0
 80005c4:	b292      	uxth	r2, r2
 80005c6:	d3de      	bcc.n	8000586 <_delay_us+0x56>
 80005c8:	f8a8 2000 	strh.w	r2, [r8]
 80005cc:	f1b9 0f00 	cmp.w	r9, #0
 80005d0:	d001      	beq.n	80005d6 <_delay_us+0xa6>
 80005d2:	f8ce 6000 	str.w	r6, [lr]
 80005d6:	b004      	add	sp, #16
 80005d8:	e8bd 83f0 	ldmia.w	sp!, {r4, r5, r6, r7, r8, r9, pc}
 80005dc:	40014800 	.word	0x40014800
 80005e0:	2000028c 	.word	0x2000028c
 80005e4:	20000288 	.word	0x20000288

080005e8 <_read_us>:
 80005e8:	b410      	push	{r4}
 80005ea:	4b10      	ldr	r3, [pc, #64]	@ (800062c <_read_us+0x44>)
 80005ec:	4c10      	ldr	r4, [pc, #64]	@ (8000630 <_read_us+0x48>)
 80005ee:	6a5b      	ldr	r3, [r3, #36]	@ 0x24
 80005f0:	4910      	ldr	r1, [pc, #64]	@ (8000634 <_read_us+0x4c>)
 80005f2:	8820      	ldrh	r0, [r4, #0]
 80005f4:	b082      	sub	sp, #8
 80005f6:	b29b      	uxth	r3, r3
 80005f8:	f8ad 3006 	strh.w	r3, [sp, #6]
 80005fc:	f8bd 2006 	ldrh.w	r2, [sp, #6]
 8000600:	680b      	ldr	r3, [r1, #0]
 8000602:	f8bd c006 	ldrh.w	ip, [sp, #6]
 8000606:	f8a4 c000 	strh.w	ip, [r4]
 800060a:	b292      	uxth	r2, r2
 800060c:	4290      	cmp	r0, r2
 800060e:	f8bd 2006 	ldrh.w	r2, [sp, #6]
 8000612:	bf84      	itt	hi
 8000614:	3301      	addhi	r3, #1
 8000616:	600b      	strhi	r3, [r1, #0]
 8000618:	b292      	uxth	r2, r2
 800061a:	0c19      	lsrs	r1, r3, #16
 800061c:	041b      	lsls	r3, r3, #16
 800061e:	1898      	adds	r0, r3, r2
 8000620:	f141 0100 	adc.w	r1, r1, #0
 8000624:	b002      	add	sp, #8
 8000626:	bc10      	pop	{r4}
 8000628:	4770      	bx	lr
 800062a:	bf00      	nop
 800062c:	40014800 	.word	0x40014800
 8000630:	2000028c 	.word	0x2000028c
 8000634:	20000288 	.word	0x20000288

08000638 <SysTick_Handler>:
 8000638:	b530      	push	{r4, r5, lr}
 800063a:	4d0b      	ldr	r5, [pc, #44]	@ (8000668 <SysTick_Handler+0x30>)
 800063c:	682b      	ldr	r3, [r5, #0]
 800063e:	685b      	ldr	r3, [r3, #4]
 8000640:	685c      	ldr	r4, [r3, #4]
 8000642:	f7ff ffd1 	bl	80005e8 <_read_us>
 8000646:	4b09      	ldr	r3, [pc, #36]	@ (800066c <SysTick_Handler+0x34>)
 8000648:	342c      	adds	r4, #44	@ 0x2c
 800064a:	601c      	str	r4, [r3, #0]
 800064c:	f000 fffa 	bl	8001644 <krnl_dispatcher>
 8000650:	682b      	ldr	r3, [r5, #0]
 8000652:	4a07      	ldr	r2, [pc, #28]	@ (8000670 <SysTick_Handler+0x38>)
 8000654:	685b      	ldr	r3, [r3, #4]
 8000656:	4907      	ldr	r1, [pc, #28]	@ (8000674 <SysTick_Handler+0x3c>)
 8000658:	685b      	ldr	r3, [r3, #4]
 800065a:	332c      	adds	r3, #44	@ 0x2c
 800065c:	600b      	str	r3, [r1, #0]
 800065e:	6853      	ldr	r3, [r2, #4]
 8000660:	f043 5380 	orr.w	r3, r3, #268435456	@ 0x10000000
 8000664:	6053      	str	r3, [r2, #4]
 8000666:	bd30      	pop	{r4, r5, pc}
 8000668:	20000068 	.word	0x20000068
 800066c:	20000294 	.word	0x20000294
 8000670:	e000ed00 	.word	0xe000ed00
 8000674:	20000290 	.word	0x20000290

08000678 <syscall>:
 8000678:	df0b      	svc	11
 800067a:	4770      	bx	lr

0800067c <_dispatch>:
 800067c:	b510      	push	{r4, lr}
 800067e:	4c0a      	ldr	r4, [pc, #40]	@ (80006a8 <_dispatch+0x2c>)
 8000680:	6823      	ldr	r3, [r4, #0]
 8000682:	681b      	ldr	r3, [r3, #0]
 8000684:	689b      	ldr	r3, [r3, #8]
 8000686:	b15b      	cbz	r3, 80006a0 <_dispatch+0x24>
 8000688:	f7ff feb6 	bl	80003f8 <_stack_check>
 800068c:	6823      	ldr	r3, [r4, #0]
 800068e:	4907      	ldr	r1, [pc, #28]	@ (80006ac <_dispatch+0x30>)
 8000690:	6818      	ldr	r0, [r3, #0]
 8000692:	2200      	movs	r2, #0
 8000694:	f000 faa8 	bl	8000be8 <list_foreach>
 8000698:	e8bd 4010 	ldmia.w	sp!, {r4, lr}
 800069c:	f000 bf98 	b.w	80015d0 <krnl_schedule>
 80006a0:	4803      	ldr	r0, [pc, #12]	@ (80006b0 <_dispatch+0x34>)
 80006a2:	f000 ff73 	bl	800158c <krnl_panic>
 80006a6:	e7ef      	b.n	8000688 <_dispatch+0xc>
 80006a8:	20000068 	.word	0x20000068
 80006ac:	08000351 	.word	0x08000351
 80006b0:	ffffc001 	.word	0xffffc001

080006b4 <_hardware_init>:
 80006b4:	e92d 47f0 	stmdb	sp!, {r4, r5, r6, r7, r8, r9, sl, lr}
 80006b8:	4d51      	ldr	r5, [pc, #324]	@ (8000800 <_hardware_init+0x14c>)
 80006ba:	f8df 9148 	ldr.w	r9, [pc, #328]	@ 8000804 <_hardware_init+0x150>
 80006be:	f8df 8148 	ldr.w	r8, [pc, #328]	@ 8000808 <_hardware_init+0x154>
 80006c2:	b086      	sub	sp, #24
 80006c4:	f000 feb0 	bl	8001428 <SystemInit>
 80006c8:	f000 ff24 	bl	8001514 <SystemCoreClockUpdate>
 80006cc:	682b      	ldr	r3, [r5, #0]
 80006ce:	494f      	ldr	r1, [pc, #316]	@ (800080c <_hardware_init+0x158>)
 80006d0:	484f      	ldr	r0, [pc, #316]	@ (8000810 <_hardware_init+0x15c>)
 80006d2:	fba1 1303 	umull	r1, r3, r1, r3
 80006d6:	f04f 22e0 	mov.w	r2, #3758153728	@ 0xe000e000
 80006da:	f3c3 1357 	ubfx	r3, r3, #5, #24
 80006de:	3b01      	subs	r3, #1
 80006e0:	6153      	str	r3, [r2, #20]
 80006e2:	2400      	movs	r4, #0
 80006e4:	2306      	movs	r3, #6
 80006e6:	26f0      	movs	r6, #240	@ 0xf0
 80006e8:	f880 6023 	strb.w	r6, [r0, #35]	@ 0x23
 80006ec:	2101      	movs	r1, #1
 80006ee:	6194      	str	r4, [r2, #24]
 80006f0:	6113      	str	r3, [r2, #16]
 80006f2:	f880 6022 	strb.w	r6, [r0, #34]	@ 0x22
 80006f6:	f44f 2080 	mov.w	r0, #262144	@ 0x40000
 80006fa:	f000 fe31 	bl	8001360 <RCC_APB2PeriphClockCmd>
 80006fe:	a803      	add	r0, sp, #12
 8000700:	f000 fe7e 	bl	8001400 <TIM_TimeBaseStructInit>
 8000704:	682b      	ldr	r3, [r5, #0]
 8000706:	4a43      	ldr	r2, [pc, #268]	@ (8000814 <_hardware_init+0x160>)
 8000708:	4d43      	ldr	r5, [pc, #268]	@ (8000818 <_hardware_init+0x164>)
 800070a:	f8ad 4014 	strh.w	r4, [sp, #20]
 800070e:	fba2 2303 	umull	r2, r3, r2, r3
 8000712:	0c9b      	lsrs	r3, r3, #18
 8000714:	f64f 72ff 	movw	r2, #65535	@ 0xffff
 8000718:	4628      	mov	r0, r5
 800071a:	a903      	add	r1, sp, #12
 800071c:	f8ad 300c 	strh.w	r3, [sp, #12]
 8000720:	9204      	str	r2, [sp, #16]
 8000722:	f8ad 400e 	strh.w	r4, [sp, #14]
 8000726:	f000 fe33 	bl	8001390 <TIM_TimeBaseInit>
 800072a:	4621      	mov	r1, r4
 800072c:	4628      	mov	r0, r5
 800072e:	f000 fe6f 	bl	8001410 <TIM_Cmd>
 8000732:	4628      	mov	r0, r5
 8000734:	626c      	str	r4, [r5, #36]	@ 0x24
 8000736:	2101      	movs	r1, #1
 8000738:	f000 fe6a 	bl	8001410 <TIM_Cmd>
 800073c:	4622      	mov	r2, r4
 800073e:	f44f 31e1 	mov.w	r1, #115200	@ 0x1c200
 8000742:	4620      	mov	r0, r4
 8000744:	f001 f892 	bl	800186c <usart_init>
 8000748:	4834      	ldr	r0, [pc, #208]	@ (800081c <_hardware_init+0x168>)
 800074a:	4e33      	ldr	r6, [pc, #204]	@ (8000818 <_hardware_init+0x164>)
 800074c:	f002 fae4 	bl	8002d18 <_stdout_install>
 8000750:	4833      	ldr	r0, [pc, #204]	@ (8000820 <_hardware_init+0x16c>)
 8000752:	f002 fae7 	bl	8002d24 <_stdin_install>
 8000756:	4833      	ldr	r0, [pc, #204]	@ (8000824 <_hardware_init+0x170>)
 8000758:	f002 faea 	bl	8002d30 <_stdpoll_install>
 800075c:	6a6b      	ldr	r3, [r5, #36]	@ 0x24
 800075e:	f8b9 2000 	ldrh.w	r2, [r9]
 8000762:	f8d8 4000 	ldr.w	r4, [r8]
 8000766:	4d30      	ldr	r5, [pc, #192]	@ (8000828 <_hardware_init+0x174>)
 8000768:	b29b      	uxth	r3, r3
 800076a:	f8ad 3008 	strh.w	r3, [sp, #8]
 800076e:	f8bd 3008 	ldrh.w	r3, [sp, #8]
 8000772:	b29b      	uxth	r3, r3
 8000774:	429a      	cmp	r2, r3
 8000776:	f8bd 3008 	ldrh.w	r3, [sp, #8]
 800077a:	f8bd a008 	ldrh.w	sl, [sp, #8]
 800077e:	bf88      	it	hi
 8000780:	3401      	addhi	r4, #1
 8000782:	fa1f fa8a 	uxth.w	sl, sl
 8000786:	ea4f 4204 	mov.w	r2, r4, lsl #16
 800078a:	bf88      	it	hi
 800078c:	f8c8 4000 	strhi.w	r4, [r8]
 8000790:	ea4f 4c14 	mov.w	ip, r4, lsr #16
 8000794:	eb12 000a 	adds.w	r0, r2, sl
 8000798:	f14c 0100 	adc.w	r1, ip, #0
 800079c:	9003      	str	r0, [sp, #12]
 800079e:	9104      	str	r1, [sp, #16]
 80007a0:	2700      	movs	r7, #0
 80007a2:	b29b      	uxth	r3, r3
 80007a4:	46be      	mov	lr, r7
 80007a6:	6a71      	ldr	r1, [r6, #36]	@ 0x24
 80007a8:	b289      	uxth	r1, r1
 80007aa:	f8ad 100a 	strh.w	r1, [sp, #10]
 80007ae:	f8bd 100a 	ldrh.w	r1, [sp, #10]
 80007b2:	b289      	uxth	r1, r1
 80007b4:	428b      	cmp	r3, r1
 80007b6:	d904      	bls.n	80007c2 <_hardware_init+0x10e>
 80007b8:	3401      	adds	r4, #1
 80007ba:	ea4f 4c14 	mov.w	ip, r4, lsr #16
 80007be:	0422      	lsls	r2, r4, #16
 80007c0:	2701      	movs	r7, #1
 80007c2:	f8bd 300a 	ldrh.w	r3, [sp, #10]
 80007c6:	f8bd a00a 	ldrh.w	sl, [sp, #10]
 80007ca:	a903      	add	r1, sp, #12
 80007cc:	c903      	ldmia	r1, {r0, r1}
 80007ce:	e88d 0003 	stmia.w	sp, {r0, r1}
 80007d2:	9901      	ldr	r1, [sp, #4]
 80007d4:	fa1f fa8a 	uxth.w	sl, sl
 80007d8:	ebba 0000 	subs.w	r0, sl, r0
 80007dc:	eb61 0141 	sbc.w	r1, r1, r1, lsl #1
 80007e0:	1880      	adds	r0, r0, r2
 80007e2:	eb41 010c 	adc.w	r1, r1, ip
 80007e6:	4285      	cmp	r5, r0
 80007e8:	eb7e 0101 	sbcs.w	r1, lr, r1
 80007ec:	b29b      	uxth	r3, r3
 80007ee:	d2da      	bcs.n	80007a6 <_hardware_init+0xf2>
 80007f0:	f8a9 3000 	strh.w	r3, [r9]
 80007f4:	b10f      	cbz	r7, 80007fa <_hardware_init+0x146>
 80007f6:	f8c8 4000 	str.w	r4, [r8]
 80007fa:	b006      	add	sp, #24
 80007fc:	e8bd 87f0 	ldmia.w	sp!, {r4, r5, r6, r7, r8, r9, sl, pc}
 8000800:	20000064 	.word	0x20000064
 8000804:	2000028c 	.word	0x2000028c
 8000808:	20000288 	.word	0x20000288
 800080c:	51eb851f 	.word	0x51eb851f
 8000810:	e000ed00 	.word	0xe000ed00
 8000814:	431bde83 	.word	0x431bde83
 8000818:	40014800 	.word	0x40014800
 800081c:	08000459 	.word	0x08000459
 8000820:	0800044d 	.word	0x0800044d
 8000824:	08000439 	.word	0x08000439
 8000828:	001e847f 	.word	0x001e847f

0800082c <_di>:
 800082c:	b672      	cpsid	i
 800082e:	4770      	bx	lr

08000830 <_ei>:
 8000830:	b662      	cpsie	i
 8000832:	f3bf 8f6f 	isb	sy
 8000836:	4770      	bx	lr

08000838 <_timer_enable>:
 8000838:	4801      	ldr	r0, [pc, #4]	@ (8000840 <_timer_enable+0x8>)
 800083a:	2100      	movs	r1, #0
 800083c:	f7ff bf1c 	b.w	8000678 <syscall>
 8000840:	0800037d 	.word	0x0800037d

08000844 <_timer_disable>:
 8000844:	4801      	ldr	r0, [pc, #4]	@ (800084c <_timer_disable+0x8>)
 8000846:	2100      	movs	r1, #0
 8000848:	f7ff bf16 	b.w	8000678 <syscall>
 800084c:	0800038d 	.word	0x0800038d

08000850 <_dispatch_init>:
 8000850:	4b0c      	ldr	r3, [pc, #48]	@ (8000884 <_dispatch_init+0x34>)
 8000852:	681b      	ldr	r3, [r3, #0]
 8000854:	685a      	ldr	r2, [r3, #4]
 8000856:	f893 3066 	ldrb.w	r3, [r3, #102]	@ 0x66
 800085a:	6852      	ldr	r2, [r2, #4]
 800085c:	2b79      	cmp	r3, #121	@ 0x79
 800085e:	d105      	bne.n	800086c <_dispatch_init+0x1c>
 8000860:	f04f 21e0 	mov.w	r1, #3758153728	@ 0xe000e000
 8000864:	690b      	ldr	r3, [r1, #16]
 8000866:	f043 0301 	orr.w	r3, r3, #1
 800086a:	610b      	str	r3, [r1, #16]
 800086c:	6a83      	ldr	r3, [r0, #40]	@ 0x28
 800086e:	3340      	adds	r3, #64	@ 0x40
 8000870:	f383 8809 	msr	PSP, r3
 8000874:	2303      	movs	r3, #3
 8000876:	f383 8814 	msr	CONTROL, r3
 800087a:	f3bf 8f6f 	isb	sy
 800087e:	6813      	ldr	r3, [r2, #0]
 8000880:	4718      	bx	r3
 8000882:	bf00      	nop
 8000884:	20000068 	.word	0x20000068

08000888 <_context_init>:
 8000888:	4411      	add	r1, r2
 800088a:	b410      	push	{r4}
 800088c:	f1a1 0240 	sub.w	r2, r1, #64	@ 0x40
 8000890:	f04f 7480 	mov.w	r4, #16777216	@ 0x1000000
 8000894:	6241      	str	r1, [r0, #36]	@ 0x24
 8000896:	6003      	str	r3, [r0, #0]
 8000898:	6282      	str	r2, [r0, #40]	@ 0x28
 800089a:	e901 0018 	stmdb	r1, {r3, r4}
 800089e:	bc10      	pop	{r4}
 80008a0:	4770      	bx	lr
 80008a2:	bf00      	nop

080008a4 <ucx_vsprintf>:
 80008a4:	e92d 4ff0 	stmdb	sp!, {r4, r5, r6, r7, r8, r9, sl, fp, lr}
 80008a8:	780b      	ldrb	r3, [r1, #0]
 80008aa:	b084      	sub	sp, #16
 80008ac:	4689      	mov	r9, r1
 80008ae:	4604      	mov	r4, r0
 80008b0:	4617      	mov	r7, r2
 80008b2:	b3ab      	cbz	r3, 8000920 <ucx_vsprintf+0x7c>
 80008b4:	2b25      	cmp	r3, #37	@ 0x25
 80008b6:	d125      	bne.n	8000904 <ucx_vsprintf+0x60>
 80008b8:	f899 3001 	ldrb.w	r3, [r9, #1]
 80008bc:	2b30      	cmp	r3, #48	@ 0x30
 80008be:	f000 80d7 	beq.w	8000a70 <ucx_vsprintf+0x1cc>
 80008c2:	f1a3 0230 	sub.w	r2, r3, #48	@ 0x30
 80008c6:	2a09      	cmp	r2, #9
 80008c8:	f109 0901 	add.w	r9, r9, #1
 80008cc:	f04f 0b20 	mov.w	fp, #32
 80008d0:	f240 80d8 	bls.w	8000a84 <ucx_vsprintf+0x1e0>
 80008d4:	f04f 35ff 	mov.w	r5, #4294967295	@ 0xffffffff
 80008d8:	3b58      	subs	r3, #88	@ 0x58
 80008da:	2b20      	cmp	r3, #32
 80008dc:	d81a      	bhi.n	8000914 <ucx_vsprintf+0x70>
 80008de:	e8df f003 	tbb	[pc, r3]
 80008e2:	192a      	.short	0x192a
 80008e4:	19191919 	.word	0x19191919
 80008e8:	19191919 	.word	0x19191919
 80008ec:	1960b219 	.word	0x1960b219
 80008f0:	19191919 	.word	0x19191919
 80008f4:	196c1919 	.word	0x196c1919
 80008f8:	19ad1919 	.word	0x19ad1919
 80008fc:	72197619 	.word	0x72197619
 8000900:	1919      	.short	0x1919
 8000902:	2a          	.byte	0x2a
 8000903:	00          	.byte	0x00
 8000904:	2c00      	cmp	r4, #0
 8000906:	f000 80cb 	beq.w	8000aa0 <ucx_vsprintf+0x1fc>
 800090a:	6822      	ldr	r2, [r4, #0]
 800090c:	7013      	strb	r3, [r2, #0]
 800090e:	6823      	ldr	r3, [r4, #0]
 8000910:	3301      	adds	r3, #1
 8000912:	6023      	str	r3, [r4, #0]
 8000914:	f899 3001 	ldrb.w	r3, [r9, #1]
 8000918:	f109 0901 	add.w	r9, r9, #1
 800091c:	2b00      	cmp	r3, #0
 800091e:	d1c9      	bne.n	80008b4 <ucx_vsprintf+0x10>
 8000920:	b12c      	cbz	r4, 800092e <ucx_vsprintf+0x8a>
 8000922:	6823      	ldr	r3, [r4, #0]
 8000924:	2200      	movs	r2, #0
 8000926:	701a      	strb	r2, [r3, #0]
 8000928:	6823      	ldr	r3, [r4, #0]
 800092a:	3301      	adds	r3, #1
 800092c:	6023      	str	r3, [r4, #0]
 800092e:	2000      	movs	r0, #0
 8000930:	b004      	add	sp, #16
 8000932:	e8bd 8ff0 	ldmia.w	sp!, {r4, r5, r6, r7, r8, r9, sl, fp, pc}
 8000936:	f857 8b04 	ldr.w	r8, [r7], #4
 800093a:	2110      	movs	r1, #16
 800093c:	f1b8 0f00 	cmp.w	r8, #0
 8000940:	d139      	bne.n	80009b6 <ucx_vsprintf+0x112>
 8000942:	f04f 0330 	mov.w	r3, #48	@ 0x30
 8000946:	f88d 3000 	strb.w	r3, [sp]
 800094a:	46ea      	mov	sl, sp
 800094c:	2301      	movs	r3, #1
 800094e:	1aeb      	subs	r3, r5, r3
 8000950:	2b00      	cmp	r3, #0
 8000952:	f103 36ff 	add.w	r6, r3, #4294967295	@ 0xffffffff
 8000956:	dd0a      	ble.n	800096e <ucx_vsprintf+0xca>
 8000958:	2c00      	cmp	r4, #0
 800095a:	f000 8085 	beq.w	8000a68 <ucx_vsprintf+0x1c4>
 800095e:	6823      	ldr	r3, [r4, #0]
 8000960:	f883 b000 	strb.w	fp, [r3]
 8000964:	6823      	ldr	r3, [r4, #0]
 8000966:	3301      	adds	r3, #1
 8000968:	6023      	str	r3, [r4, #0]
 800096a:	3e01      	subs	r6, #1
 800096c:	d2f4      	bcs.n	8000958 <ucx_vsprintf+0xb4>
 800096e:	f108 0501 	add.w	r5, r8, #1
 8000972:	4455      	add	r5, sl
 8000974:	e006      	b.n	8000984 <ucx_vsprintf+0xe0>
 8000976:	6823      	ldr	r3, [r4, #0]
 8000978:	7018      	strb	r0, [r3, #0]
 800097a:	6823      	ldr	r3, [r4, #0]
 800097c:	3301      	adds	r3, #1
 800097e:	6023      	str	r3, [r4, #0]
 8000980:	4555      	cmp	r5, sl
 8000982:	d0c7      	beq.n	8000914 <ucx_vsprintf+0x70>
 8000984:	f815 0d01 	ldrb.w	r0, [r5, #-1]!
 8000988:	2c00      	cmp	r4, #0
 800098a:	d1f4      	bne.n	8000976 <ucx_vsprintf+0xd2>
 800098c:	2800      	cmp	r0, #0
 800098e:	d0f7      	beq.n	8000980 <ucx_vsprintf+0xdc>
 8000990:	f002 f9d4 	bl	8002d3c <_putchar>
 8000994:	4555      	cmp	r5, sl
 8000996:	d0bd      	beq.n	8000914 <ucx_vsprintf+0x70>
 8000998:	f815 0d01 	ldrb.w	r0, [r5, #-1]!
 800099c:	2800      	cmp	r0, #0
 800099e:	d0ef      	beq.n	8000980 <ucx_vsprintf+0xdc>
 80009a0:	e7f6      	b.n	8000990 <ucx_vsprintf+0xec>
 80009a2:	f857 8b04 	ldr.w	r8, [r7], #4
 80009a6:	f1b8 0f00 	cmp.w	r8, #0
 80009aa:	f2c0 8090 	blt.w	8000ace <ucx_vsprintf+0x22a>
 80009ae:	210a      	movs	r1, #10
 80009b0:	f1b8 0f00 	cmp.w	r8, #0
 80009b4:	d0c5      	beq.n	8000942 <ucx_vsprintf+0x9e>
 80009b6:	4646      	mov	r6, r8
 80009b8:	e094      	b.n	8000ae4 <ucx_vsprintf+0x240>
 80009ba:	f857 8b04 	ldr.w	r8, [r7], #4
 80009be:	f109 0901 	add.w	r9, r9, #1
 80009c2:	210a      	movs	r1, #10
 80009c4:	e7ba      	b.n	800093c <ucx_vsprintf+0x98>
 80009c6:	f857 8b04 	ldr.w	r8, [r7], #4
 80009ca:	210a      	movs	r1, #10
 80009cc:	e7b6      	b.n	800093c <ucx_vsprintf+0x98>
 80009ce:	f857 6b04 	ldr.w	r6, [r7], #4
 80009d2:	2e00      	cmp	r6, #0
 80009d4:	d06f      	beq.n	8000ab6 <ucx_vsprintf+0x212>
 80009d6:	7830      	ldrb	r0, [r6, #0]
 80009d8:	2800      	cmp	r0, #0
 80009da:	f000 809b 	beq.w	8000b14 <ucx_vsprintf+0x270>
 80009de:	2d00      	cmp	r5, #0
 80009e0:	d098      	beq.n	8000914 <ucx_vsprintf+0x70>
 80009e2:	b16c      	cbz	r4, 8000a00 <ucx_vsprintf+0x15c>
 80009e4:	6823      	ldr	r3, [r4, #0]
 80009e6:	7018      	strb	r0, [r3, #0]
 80009e8:	6823      	ldr	r3, [r4, #0]
 80009ea:	3301      	adds	r3, #1
 80009ec:	6023      	str	r3, [r4, #0]
 80009ee:	f816 0f01 	ldrb.w	r0, [r6, #1]!
 80009f2:	1e6b      	subs	r3, r5, #1
 80009f4:	b158      	cbz	r0, 8000a0e <ucx_vsprintf+0x16a>
 80009f6:	2b00      	cmp	r3, #0
 80009f8:	d08c      	beq.n	8000914 <ucx_vsprintf+0x70>
 80009fa:	461d      	mov	r5, r3
 80009fc:	2c00      	cmp	r4, #0
 80009fe:	d1f1      	bne.n	80009e4 <ucx_vsprintf+0x140>
 8000a00:	f002 f99c 	bl	8002d3c <_putchar>
 8000a04:	f816 0f01 	ldrb.w	r0, [r6, #1]!
 8000a08:	1e6b      	subs	r3, r5, #1
 8000a0a:	2800      	cmp	r0, #0
 8000a0c:	d1f3      	bne.n	80009f6 <ucx_vsprintf+0x152>
 8000a0e:	1eae      	subs	r6, r5, #2
 8000a10:	2b00      	cmp	r3, #0
 8000a12:	f77f af7f 	ble.w	8000914 <ucx_vsprintf+0x70>
 8000a16:	b16c      	cbz	r4, 8000a34 <ucx_vsprintf+0x190>
 8000a18:	6823      	ldr	r3, [r4, #0]
 8000a1a:	f883 b000 	strb.w	fp, [r3]
 8000a1e:	6823      	ldr	r3, [r4, #0]
 8000a20:	3301      	adds	r3, #1
 8000a22:	6023      	str	r3, [r4, #0]
 8000a24:	2e00      	cmp	r6, #0
 8000a26:	f106 33ff 	add.w	r3, r6, #4294967295	@ 0xffffffff
 8000a2a:	f77f af73 	ble.w	8000914 <ucx_vsprintf+0x70>
 8000a2e:	461e      	mov	r6, r3
 8000a30:	2c00      	cmp	r4, #0
 8000a32:	d1f1      	bne.n	8000a18 <ucx_vsprintf+0x174>
 8000a34:	4658      	mov	r0, fp
 8000a36:	f002 f981 	bl	8002d3c <_putchar>
 8000a3a:	e7f3      	b.n	8000a24 <ucx_vsprintf+0x180>
 8000a3c:	f857 8b04 	ldr.w	r8, [r7], #4
 8000a40:	2110      	movs	r1, #16
 8000a42:	2504      	movs	r5, #4
 8000a44:	e77a      	b.n	800093c <ucx_vsprintf+0x98>
 8000a46:	f857 0b04 	ldr.w	r0, [r7], #4
 8000a4a:	2c00      	cmp	r4, #0
 8000a4c:	d038      	beq.n	8000ac0 <ucx_vsprintf+0x21c>
 8000a4e:	6822      	ldr	r2, [r4, #0]
 8000a50:	7010      	strb	r0, [r2, #0]
 8000a52:	6823      	ldr	r3, [r4, #0]
 8000a54:	3301      	adds	r3, #1
 8000a56:	6023      	str	r3, [r4, #0]
 8000a58:	f899 3001 	ldrb.w	r3, [r9, #1]
 8000a5c:	f109 0901 	add.w	r9, r9, #1
 8000a60:	2b00      	cmp	r3, #0
 8000a62:	f47f af27 	bne.w	80008b4 <ucx_vsprintf+0x10>
 8000a66:	e75b      	b.n	8000920 <ucx_vsprintf+0x7c>
 8000a68:	4658      	mov	r0, fp
 8000a6a:	f002 f967 	bl	8002d3c <_putchar>
 8000a6e:	e77c      	b.n	800096a <ucx_vsprintf+0xc6>
 8000a70:	469b      	mov	fp, r3
 8000a72:	f899 3002 	ldrb.w	r3, [r9, #2]
 8000a76:	f1a3 0230 	sub.w	r2, r3, #48	@ 0x30
 8000a7a:	2a09      	cmp	r2, #9
 8000a7c:	f109 0902 	add.w	r9, r9, #2
 8000a80:	f63f af28 	bhi.w	80008d4 <ucx_vsprintf+0x30>
 8000a84:	2500      	movs	r5, #0
 8000a86:	eb05 0585 	add.w	r5, r5, r5, lsl #2
 8000a8a:	eb03 0545 	add.w	r5, r3, r5, lsl #1
 8000a8e:	f819 3f01 	ldrb.w	r3, [r9, #1]!
 8000a92:	f1a3 0230 	sub.w	r2, r3, #48	@ 0x30
 8000a96:	2a09      	cmp	r2, #9
 8000a98:	f1a5 0530 	sub.w	r5, r5, #48	@ 0x30
 8000a9c:	d9f3      	bls.n	8000a86 <ucx_vsprintf+0x1e2>
 8000a9e:	e71b      	b.n	80008d8 <ucx_vsprintf+0x34>
 8000aa0:	4618      	mov	r0, r3
 8000aa2:	f002 f94b 	bl	8002d3c <_putchar>
 8000aa6:	f899 3001 	ldrb.w	r3, [r9, #1]
 8000aaa:	f109 0901 	add.w	r9, r9, #1
 8000aae:	2b00      	cmp	r3, #0
 8000ab0:	f47f af00 	bne.w	80008b4 <ucx_vsprintf+0x10>
 8000ab4:	e734      	b.n	8000920 <ucx_vsprintf+0x7c>
 8000ab6:	4e19      	ldr	r6, [pc, #100]	@ (8000b1c <ucx_vsprintf+0x278>)
 8000ab8:	203c      	movs	r0, #60	@ 0x3c
 8000aba:	2d00      	cmp	r5, #0
 8000abc:	d191      	bne.n	80009e2 <ucx_vsprintf+0x13e>
 8000abe:	e729      	b.n	8000914 <ucx_vsprintf+0x70>
 8000ac0:	f010 00ff 	ands.w	r0, r0, #255	@ 0xff
 8000ac4:	f43f af26 	beq.w	8000914 <ucx_vsprintf+0x70>
 8000ac8:	f002 f938 	bl	8002d3c <_putchar>
 8000acc:	e722      	b.n	8000914 <ucx_vsprintf+0x70>
 8000ace:	f1c8 0600 	rsb	r6, r8, #0
 8000ad2:	b1dc      	cbz	r4, 8000b0c <ucx_vsprintf+0x268>
 8000ad4:	6823      	ldr	r3, [r4, #0]
 8000ad6:	222d      	movs	r2, #45	@ 0x2d
 8000ad8:	701a      	strb	r2, [r3, #0]
 8000ada:	6823      	ldr	r3, [r4, #0]
 8000adc:	3301      	adds	r3, #1
 8000ade:	6023      	str	r3, [r4, #0]
 8000ae0:	3d01      	subs	r5, #1
 8000ae2:	210a      	movs	r1, #10
 8000ae4:	46ea      	mov	sl, sp
 8000ae6:	f8df e038 	ldr.w	lr, [pc, #56]	@ 8000b20 <ucx_vsprintf+0x27c>
 8000aea:	46d4      	mov	ip, sl
 8000aec:	2300      	movs	r3, #0
 8000aee:	4630      	mov	r0, r6
 8000af0:	fbb6 f6f1 	udiv	r6, r6, r1
 8000af4:	fb01 0216 	mls	r2, r1, r6, r0
 8000af8:	4288      	cmp	r0, r1
 8000afa:	f81e 2002 	ldrb.w	r2, [lr, r2]
 8000afe:	f80c 2b01 	strb.w	r2, [ip], #1
 8000b02:	4698      	mov	r8, r3
 8000b04:	f103 0301 	add.w	r3, r3, #1
 8000b08:	d2f1      	bcs.n	8000aee <ucx_vsprintf+0x24a>
 8000b0a:	e720      	b.n	800094e <ucx_vsprintf+0xaa>
 8000b0c:	202d      	movs	r0, #45	@ 0x2d
 8000b0e:	f002 f915 	bl	8002d3c <_putchar>
 8000b12:	e7e5      	b.n	8000ae0 <ucx_vsprintf+0x23c>
 8000b14:	1e6e      	subs	r6, r5, #1
 8000b16:	462b      	mov	r3, r5
 8000b18:	e77a      	b.n	8000a10 <ucx_vsprintf+0x16c>
 8000b1a:	bf00      	nop
 8000b1c:	08004a2c 	.word	0x08004a2c
 8000b20:	08004a34 	.word	0x08004a34

08000b24 <ucx_memset>:
 8000b24:	b132      	cbz	r2, 8000b34 <ucx_memset+0x10>
 8000b26:	b2c9      	uxtb	r1, r1
 8000b28:	4402      	add	r2, r0
 8000b2a:	4603      	mov	r3, r0
 8000b2c:	f803 1b01 	strb.w	r1, [r3], #1
 8000b30:	4293      	cmp	r3, r2
 8000b32:	d1fb      	bne.n	8000b2c <ucx_memset+0x8>
 8000b34:	4770      	bx	lr
 8000b36:	bf00      	nop

08000b38 <ucx_printf>:
 8000b38:	b40f      	push	{r0, r1, r2, r3}
 8000b3a:	b500      	push	{lr}
 8000b3c:	b082      	sub	sp, #8
 8000b3e:	aa03      	add	r2, sp, #12
 8000b40:	2000      	movs	r0, #0
 8000b42:	f852 1b04 	ldr.w	r1, [r2], #4
 8000b46:	9201      	str	r2, [sp, #4]
 8000b48:	f7ff feac 	bl	80008a4 <ucx_vsprintf>
 8000b4c:	b002      	add	sp, #8
 8000b4e:	f85d eb04 	ldr.w	lr, [sp], #4
 8000b52:	b004      	add	sp, #16
 8000b54:	4770      	bx	lr
 8000b56:	bf00      	nop

08000b58 <list_create>:
 8000b58:	b530      	push	{r4, r5, lr}
 8000b5a:	200c      	movs	r0, #12
 8000b5c:	f000 f8da 	bl	8000d14 <ucx_malloc>
 8000b60:	4604      	mov	r4, r0
 8000b62:	b1c8      	cbz	r0, 8000b98 <list_create+0x40>
 8000b64:	2008      	movs	r0, #8
 8000b66:	f000 f8d5 	bl	8000d14 <ucx_malloc>
 8000b6a:	4605      	mov	r5, r0
 8000b6c:	b188      	cbz	r0, 8000b92 <list_create+0x3a>
 8000b6e:	2008      	movs	r0, #8
 8000b70:	f000 f8d0 	bl	8000d14 <ucx_malloc>
 8000b74:	b190      	cbz	r0, 8000b9c <list_create+0x44>
 8000b76:	f64d 63ad 	movw	r3, #57005	@ 0xdead
 8000b7a:	e885 0009 	stmia.w	r5, {r0, r3}
 8000b7e:	2200      	movs	r2, #0
 8000b80:	2300      	movs	r3, #0
 8000b82:	e880 000c 	stmia.w	r0, {r2, r3}
 8000b86:	2300      	movs	r3, #0
 8000b88:	6025      	str	r5, [r4, #0]
 8000b8a:	6060      	str	r0, [r4, #4]
 8000b8c:	60a3      	str	r3, [r4, #8]
 8000b8e:	4620      	mov	r0, r4
 8000b90:	bd30      	pop	{r4, r5, pc}
 8000b92:	4620      	mov	r0, r4
 8000b94:	f000 f890 	bl	8000cb8 <ucx_free>
 8000b98:	2400      	movs	r4, #0
 8000b9a:	e7f8      	b.n	8000b8e <list_create+0x36>
 8000b9c:	4620      	mov	r0, r4
 8000b9e:	f000 f88b 	bl	8000cb8 <ucx_free>
 8000ba2:	4628      	mov	r0, r5
 8000ba4:	f000 f888 	bl	8000cb8 <ucx_free>
 8000ba8:	e7f6      	b.n	8000b98 <list_create+0x40>
 8000baa:	bf00      	nop

08000bac <list_pushback>:
 8000bac:	b530      	push	{r4, r5, lr}
 8000bae:	4604      	mov	r4, r0
 8000bb0:	2008      	movs	r0, #8
 8000bb2:	460d      	mov	r5, r1
 8000bb4:	f000 f8ae 	bl	8000d14 <ucx_malloc>
 8000bb8:	4603      	mov	r3, r0
 8000bba:	b150      	cbz	r0, 8000bd2 <list_pushback+0x26>
 8000bbc:	2000      	movs	r0, #0
 8000bbe:	2100      	movs	r1, #0
 8000bc0:	e883 0003 	stmia.w	r3, {r0, r1}
 8000bc4:	68a2      	ldr	r2, [r4, #8]
 8000bc6:	6860      	ldr	r0, [r4, #4]
 8000bc8:	3201      	adds	r2, #1
 8000bca:	e880 0028 	stmia.w	r0, {r3, r5}
 8000bce:	6063      	str	r3, [r4, #4]
 8000bd0:	60a2      	str	r2, [r4, #8]
 8000bd2:	bd30      	pop	{r4, r5, pc}

08000bd4 <list_cnext>:
 8000bd4:	680b      	ldr	r3, [r1, #0]
 8000bd6:	681a      	ldr	r2, [r3, #0]
 8000bd8:	b10a      	cbz	r2, 8000bde <list_cnext+0xa>
 8000bda:	4618      	mov	r0, r3
 8000bdc:	4770      	bx	lr
 8000bde:	6803      	ldr	r3, [r0, #0]
 8000be0:	681b      	ldr	r3, [r3, #0]
 8000be2:	4618      	mov	r0, r3
 8000be4:	4770      	bx	lr
 8000be6:	bf00      	nop

08000be8 <list_foreach>:
 8000be8:	6803      	ldr	r3, [r0, #0]
 8000bea:	b570      	push	{r4, r5, r6, lr}
 8000bec:	681c      	ldr	r4, [r3, #0]
 8000bee:	6823      	ldr	r3, [r4, #0]
 8000bf0:	460e      	mov	r6, r1
 8000bf2:	4615      	mov	r5, r2
 8000bf4:	b91b      	cbnz	r3, 8000bfe <list_foreach+0x16>
 8000bf6:	e008      	b.n	8000c0a <list_foreach+0x22>
 8000bf8:	6824      	ldr	r4, [r4, #0]
 8000bfa:	6823      	ldr	r3, [r4, #0]
 8000bfc:	b12b      	cbz	r3, 8000c0a <list_foreach+0x22>
 8000bfe:	4620      	mov	r0, r4
 8000c00:	4629      	mov	r1, r5
 8000c02:	47b0      	blx	r6
 8000c04:	2800      	cmp	r0, #0
 8000c06:	d0f7      	beq.n	8000bf8 <list_foreach+0x10>
 8000c08:	bd70      	pop	{r4, r5, r6, pc}
 8000c0a:	2000      	movs	r0, #0
 8000c0c:	bd70      	pop	{r4, r5, r6, pc}
 8000c0e:	bf00      	nop

08000c10 <main>:
 8000c10:	b530      	push	{r4, r5, lr}
 8000c12:	4d20      	ldr	r5, [pc, #128]	@ (8000c94 <main+0x84>)
 8000c14:	4c20      	ldr	r4, [pc, #128]	@ (8000c98 <main+0x88>)
 8000c16:	b081      	sub	sp, #4
 8000c18:	f7ff fd4c 	bl	80006b4 <_hardware_init>
 8000c1c:	4a1f      	ldr	r2, [pc, #124]	@ (8000c9c <main+0x8c>)
 8000c1e:	4920      	ldr	r1, [pc, #128]	@ (8000ca0 <main+0x90>)
 8000c20:	4820      	ldr	r0, [pc, #128]	@ (8000ca4 <main+0x94>)
 8000c22:	f7ff ff89 	bl	8000b38 <ucx_printf>
 8000c26:	4629      	mov	r1, r5
 8000c28:	481f      	ldr	r0, [pc, #124]	@ (8000ca8 <main+0x98>)
 8000c2a:	f000 f8cb 	bl	8000dc4 <ucx_heap_init>
 8000c2e:	4629      	mov	r1, r5
 8000c30:	481e      	ldr	r0, [pc, #120]	@ (8000cac <main+0x9c>)
 8000c32:	f7ff ff81 	bl	8000b38 <ucx_printf>
 8000c36:	6825      	ldr	r5, [r4, #0]
 8000c38:	f7ff ff8e 	bl	8000b58 <list_create>
 8000c3c:	6823      	ldr	r3, [r4, #0]
 8000c3e:	6028      	str	r0, [r5, #0]
 8000c40:	681b      	ldr	r3, [r3, #0]
 8000c42:	b31b      	cbz	r3, 8000c8c <main+0x7c>
 8000c44:	f7ff fb3c 	bl	80002c0 <app_main>
 8000c48:	4b13      	ldr	r3, [pc, #76]	@ (8000c98 <main+0x88>)
 8000c4a:	9000      	str	r0, [sp, #0]
 8000c4c:	6818      	ldr	r0, [r3, #0]
 8000c4e:	3008      	adds	r0, #8
 8000c50:	f7ff fa9a 	bl	8000188 <setjmp>
 8000c54:	4c10      	ldr	r4, [pc, #64]	@ (8000c98 <main+0x88>)
 8000c56:	6823      	ldr	r3, [r4, #0]
 8000c58:	681a      	ldr	r2, [r3, #0]
 8000c5a:	6891      	ldr	r1, [r2, #8]
 8000c5c:	b181      	cbz	r1, 8000c80 <main+0x70>
 8000c5e:	9900      	ldr	r1, [sp, #0]
 8000c60:	2900      	cmp	r1, #0
 8000c62:	bf0c      	ite	eq
 8000c64:	216e      	moveq	r1, #110	@ 0x6e
 8000c66:	2179      	movne	r1, #121	@ 0x79
 8000c68:	f883 1066 	strb.w	r1, [r3, #102]	@ 0x66
 8000c6c:	6812      	ldr	r2, [r2, #0]
 8000c6e:	6812      	ldr	r2, [r2, #0]
 8000c70:	605a      	str	r2, [r3, #4]
 8000c72:	6850      	ldr	r0, [r2, #4]
 8000c74:	3004      	adds	r0, #4
 8000c76:	f7ff fdeb 	bl	8000850 <_dispatch_init>
 8000c7a:	2000      	movs	r0, #0
 8000c7c:	b001      	add	sp, #4
 8000c7e:	bd30      	pop	{r4, r5, pc}
 8000c80:	480b      	ldr	r0, [pc, #44]	@ (8000cb0 <main+0xa0>)
 8000c82:	f000 fc83 	bl	800158c <krnl_panic>
 8000c86:	6823      	ldr	r3, [r4, #0]
 8000c88:	681a      	ldr	r2, [r3, #0]
 8000c8a:	e7e8      	b.n	8000c5e <main+0x4e>
 8000c8c:	4809      	ldr	r0, [pc, #36]	@ (8000cb4 <main+0xa4>)
 8000c8e:	f000 fc7d 	bl	800158c <krnl_panic>
 8000c92:	e7d7      	b.n	8000c44 <main+0x34>
 8000c94:	0001cc48 	.word	0x0001cc48
 8000c98:	20000068 	.word	0x20000068
 8000c9c:	08004a48 	.word	0x08004a48
 8000ca0:	08004a64 	.word	0x08004a64
 8000ca4:	08004a6c 	.word	0x08004a6c
 8000ca8:	200013b8 	.word	0x200013b8
 8000cac:	08004a84 	.word	0x08004a84
 8000cb0:	ffffc001 	.word	0xffffc001
 8000cb4:	ffffc002 	.word	0xffffc002

08000cb8 <ucx_free>:
 8000cb8:	b530      	push	{r4, r5, lr}
 8000cba:	4d13      	ldr	r5, [pc, #76]	@ (8000d08 <ucx_free+0x50>)
 8000cbc:	682b      	ldr	r3, [r5, #0]
 8000cbe:	f893 3066 	ldrb.w	r3, [r3, #102]	@ 0x66
 8000cc2:	2b79      	cmp	r3, #121	@ 0x79
 8000cc4:	4604      	mov	r4, r0
 8000cc6:	d00a      	beq.n	8000cde <ucx_free+0x26>
 8000cc8:	f850 3c04 	ldr.w	r3, [r0, #-4]
 8000ccc:	490f      	ldr	r1, [pc, #60]	@ (8000d0c <ucx_free+0x54>)
 8000cce:	4a10      	ldr	r2, [pc, #64]	@ (8000d10 <ucx_free+0x58>)
 8000cd0:	6809      	ldr	r1, [r1, #0]
 8000cd2:	f023 0301 	bic.w	r3, r3, #1
 8000cd6:	f840 3c04 	str.w	r3, [r0, #-4]
 8000cda:	6011      	str	r1, [r2, #0]
 8000cdc:	bd30      	pop	{r4, r5, pc}
 8000cde:	f7ff fda5 	bl	800082c <_di>
 8000ce2:	682a      	ldr	r2, [r5, #0]
 8000ce4:	f854 3c04 	ldr.w	r3, [r4, #-4]
 8000ce8:	f892 2066 	ldrb.w	r2, [r2, #102]	@ 0x66
 8000cec:	4807      	ldr	r0, [pc, #28]	@ (8000d0c <ucx_free+0x54>)
 8000cee:	4908      	ldr	r1, [pc, #32]	@ (8000d10 <ucx_free+0x58>)
 8000cf0:	6800      	ldr	r0, [r0, #0]
 8000cf2:	f023 0301 	bic.w	r3, r3, #1
 8000cf6:	2a79      	cmp	r2, #121	@ 0x79
 8000cf8:	f844 3c04 	str.w	r3, [r4, #-4]
 8000cfc:	6008      	str	r0, [r1, #0]
 8000cfe:	d1ed      	bne.n	8000cdc <ucx_free+0x24>
 8000d00:	e8bd 4030 	ldmia.w	sp!, {r4, r5, lr}
 8000d04:	f7ff bd94 	b.w	8000830 <_ei>
 8000d08:	20000068 	.word	0x20000068
 8000d0c:	2000029c 	.word	0x2000029c
 8000d10:	20000298 	.word	0x20000298

08000d14 <ucx_malloc>:
 8000d14:	b5f0      	push	{r4, r5, r6, r7, lr}
 8000d16:	4c29      	ldr	r4, [pc, #164]	@ (8000dbc <ucx_malloc+0xa8>)
 8000d18:	6823      	ldr	r3, [r4, #0]
 8000d1a:	f893 e066 	ldrb.w	lr, [r3, #102]	@ 0x66
 8000d1e:	1cc6      	adds	r6, r0, #3
 8000d20:	f1be 0f79 	cmp.w	lr, #121	@ 0x79
 8000d24:	b081      	sub	sp, #4
 8000d26:	f026 0603 	bic.w	r6, r6, #3
 8000d2a:	d035      	beq.n	8000d98 <ucx_malloc+0x84>
 8000d2c:	4f24      	ldr	r7, [pc, #144]	@ (8000dc0 <ucx_malloc+0xac>)
 8000d2e:	6839      	ldr	r1, [r7, #0]
 8000d30:	f06f 0507 	mvn.w	r5, #7
 8000d34:	460c      	mov	r4, r1
 8000d36:	f106 0c08 	add.w	ip, r6, #8
 8000d3a:	6808      	ldr	r0, [r1, #0]
 8000d3c:	2800      	cmp	r0, #0
 8000d3e:	d034      	beq.n	8000daa <ucx_malloc+0x96>
 8000d40:	684b      	ldr	r3, [r1, #4]
 8000d42:	f013 0301 	ands.w	r3, r3, #1
 8000d46:	d101      	bne.n	8000d4c <ucx_malloc+0x38>
 8000d48:	e006      	b.n	8000d58 <ucx_malloc+0x44>
 8000d4a:	6800      	ldr	r0, [r0, #0]
 8000d4c:	6843      	ldr	r3, [r0, #4]
 8000d4e:	f013 0301 	ands.w	r3, r3, #1
 8000d52:	d1fa      	bne.n	8000d4a <ucx_malloc+0x36>
 8000d54:	4604      	mov	r4, r0
 8000d56:	4601      	mov	r1, r0
 8000d58:	b93b      	cbnz	r3, 8000d6a <ucx_malloc+0x56>
 8000d5a:	680a      	ldr	r2, [r1, #0]
 8000d5c:	b12a      	cbz	r2, 8000d6a <ucx_malloc+0x56>
 8000d5e:	6853      	ldr	r3, [r2, #4]
 8000d60:	f003 0301 	and.w	r3, r3, #1
 8000d64:	4611      	mov	r1, r2
 8000d66:	2b00      	cmp	r3, #0
 8000d68:	d0f7      	beq.n	8000d5a <ucx_malloc+0x46>
 8000d6a:	1b2b      	subs	r3, r5, r4
 8000d6c:	440b      	add	r3, r1
 8000d6e:	4563      	cmp	r3, ip
 8000d70:	e884 000a 	stmia.w	r4, {r1, r3}
 8000d74:	d3e1      	bcc.n	8000d3a <ucx_malloc+0x26>
 8000d76:	eb04 030c 	add.w	r3, r4, ip
 8000d7a:	f046 0601 	orr.w	r6, r6, #1
 8000d7e:	f1be 0f79 	cmp.w	lr, #121	@ 0x79
 8000d82:	603c      	str	r4, [r7, #0]
 8000d84:	6066      	str	r6, [r4, #4]
 8000d86:	6023      	str	r3, [r4, #0]
 8000d88:	f844 100c 	str.w	r1, [r4, ip]
 8000d8c:	605d      	str	r5, [r3, #4]
 8000d8e:	d009      	beq.n	8000da4 <ucx_malloc+0x90>
 8000d90:	f104 0008 	add.w	r0, r4, #8
 8000d94:	b001      	add	sp, #4
 8000d96:	bdf0      	pop	{r4, r5, r6, r7, pc}
 8000d98:	f7ff fd48 	bl	800082c <_di>
 8000d9c:	6823      	ldr	r3, [r4, #0]
 8000d9e:	f893 e066 	ldrb.w	lr, [r3, #102]	@ 0x66
 8000da2:	e7c3      	b.n	8000d2c <ucx_malloc+0x18>
 8000da4:	f7ff fd44 	bl	8000830 <_ei>
 8000da8:	e7f2      	b.n	8000d90 <ucx_malloc+0x7c>
 8000daa:	f1be 0f79 	cmp.w	lr, #121	@ 0x79
 8000dae:	d1f1      	bne.n	8000d94 <ucx_malloc+0x80>
 8000db0:	9000      	str	r0, [sp, #0]
 8000db2:	f7ff fd3d 	bl	8000830 <_ei>
 8000db6:	9800      	ldr	r0, [sp, #0]
 8000db8:	e7ec      	b.n	8000d94 <ucx_malloc+0x80>
 8000dba:	bf00      	nop
 8000dbc:	20000068 	.word	0x20000068
 8000dc0:	20000298 	.word	0x20000298

08000dc4 <ucx_heap_init>:
 8000dc4:	f1a1 0c08 	sub.w	ip, r1, #8
 8000dc8:	3103      	adds	r1, #3
 8000dca:	f021 0103 	bic.w	r1, r1, #3
 8000dce:	3910      	subs	r1, #16
 8000dd0:	b410      	push	{r4}
 8000dd2:	6041      	str	r1, [r0, #4]
 8000dd4:	4c06      	ldr	r4, [pc, #24]	@ (8000df0 <ucx_heap_init+0x2c>)
 8000dd6:	4907      	ldr	r1, [pc, #28]	@ (8000df4 <ucx_heap_init+0x30>)
 8000dd8:	eb00 030c 	add.w	r3, r0, ip
 8000ddc:	2200      	movs	r2, #0
 8000dde:	6003      	str	r3, [r0, #0]
 8000de0:	f840 200c 	str.w	r2, [r0, ip]
 8000de4:	6020      	str	r0, [r4, #0]
 8000de6:	605a      	str	r2, [r3, #4]
 8000de8:	bc10      	pop	{r4}
 8000dea:	6008      	str	r0, [r1, #0]
 8000dec:	4770      	bx	lr
 8000dee:	bf00      	nop
 8000df0:	2000029c 	.word	0x2000029c
 8000df4:	20000298 	.word	0x20000298

08000df8 <slb_driver_init>:
 8000df8:	b530      	push	{r4, r5, lr}
 8000dfa:	6885      	ldr	r5, [r0, #8]
 8000dfc:	6844      	ldr	r4, [r0, #4]
 8000dfe:	2300      	movs	r3, #0
 8000e00:	802b      	strh	r3, [r5, #0]
 8000e02:	68e3      	ldr	r3, [r4, #12]
 8000e04:	4798      	blx	r3
 8000e06:	2800      	cmp	r0, #0
 8000e08:	db0a      	blt.n	8000e20 <slb_driver_init+0x28>
 8000e0a:	7923      	ldrb	r3, [r4, #4]
 8000e0c:	b14b      	cbz	r3, 8000e22 <slb_driver_init+0x2a>
 8000e0e:	2b01      	cmp	r3, #1
 8000e10:	d10b      	bne.n	8000e2a <slb_driver_init+0x32>
 8000e12:	6923      	ldr	r3, [r4, #16]
 8000e14:	f04f 30ff 	mov.w	r0, #4294967295	@ 0xffffffff
 8000e18:	4798      	blx	r3
 8000e1a:	2301      	movs	r3, #1
 8000e1c:	702b      	strb	r3, [r5, #0]
 8000e1e:	2000      	movs	r0, #0
 8000e20:	bd30      	pop	{r4, r5, pc}
 8000e22:	6923      	ldr	r3, [r4, #16]
 8000e24:	2001      	movs	r0, #1
 8000e26:	4798      	blx	r3
 8000e28:	e7f7      	b.n	8000e1a <slb_driver_init+0x22>
 8000e2a:	f04f 30ff 	mov.w	r0, #4294967295	@ 0xffffffff
 8000e2e:	bd30      	pop	{r4, r5, pc}

08000e30 <slb_driver_close>:
 8000e30:	b530      	push	{r4, r5, lr}
 8000e32:	6884      	ldr	r4, [r0, #8]
 8000e34:	7823      	ldrb	r3, [r4, #0]
 8000e36:	b1ab      	cbz	r3, 8000e64 <slb_driver_close+0x34>
 8000e38:	4d0c      	ldr	r5, [pc, #48]	@ (8000e6c <slb_driver_close+0x3c>)
 8000e3a:	682b      	ldr	r3, [r5, #0]
 8000e3c:	f893 3066 	ldrb.w	r3, [r3, #102]	@ 0x66
 8000e40:	2b79      	cmp	r3, #121	@ 0x79
 8000e42:	d003      	beq.n	8000e4c <slb_driver_close+0x1c>
 8000e44:	2300      	movs	r3, #0
 8000e46:	7063      	strb	r3, [r4, #1]
 8000e48:	2000      	movs	r0, #0
 8000e4a:	bd30      	pop	{r4, r5, pc}
 8000e4c:	f7ff fcee 	bl	800082c <_di>
 8000e50:	682b      	ldr	r3, [r5, #0]
 8000e52:	f893 3066 	ldrb.w	r3, [r3, #102]	@ 0x66
 8000e56:	2200      	movs	r2, #0
 8000e58:	2b79      	cmp	r3, #121	@ 0x79
 8000e5a:	7062      	strb	r2, [r4, #1]
 8000e5c:	d1f4      	bne.n	8000e48 <slb_driver_close+0x18>
 8000e5e:	f7ff fce7 	bl	8000830 <_ei>
 8000e62:	e7f1      	b.n	8000e48 <slb_driver_close+0x18>
 8000e64:	f04f 30ff 	mov.w	r0, #4294967295	@ 0xffffffff
 8000e68:	bd30      	pop	{r4, r5, pc}
 8000e6a:	bf00      	nop
 8000e6c:	20000068 	.word	0x20000068

08000e70 <slb_driver_open>:
 8000e70:	b570      	push	{r4, r5, r6, lr}
 8000e72:	6886      	ldr	r6, [r0, #8]
 8000e74:	7833      	ldrb	r3, [r6, #0]
 8000e76:	b081      	sub	sp, #4
 8000e78:	460d      	mov	r5, r1
 8000e7a:	b323      	cbz	r3, 8000ec6 <slb_driver_open+0x56>
 8000e7c:	4c13      	ldr	r4, [pc, #76]	@ (8000ecc <slb_driver_open+0x5c>)
 8000e7e:	6823      	ldr	r3, [r4, #0]
 8000e80:	f893 3066 	ldrb.w	r3, [r3, #102]	@ 0x66
 8000e84:	2b79      	cmp	r3, #121	@ 0x79
 8000e86:	d009      	beq.n	8000e9c <slb_driver_open+0x2c>
 8000e88:	7870      	ldrb	r0, [r6, #1]
 8000e8a:	b920      	cbnz	r0, 8000e96 <slb_driver_open+0x26>
 8000e8c:	2301      	movs	r3, #1
 8000e8e:	7073      	strb	r3, [r6, #1]
 8000e90:	b9cd      	cbnz	r5, 8000ec6 <slb_driver_open+0x56>
 8000e92:	b001      	add	sp, #4
 8000e94:	bd70      	pop	{r4, r5, r6, pc}
 8000e96:	f04f 30ff 	mov.w	r0, #4294967295	@ 0xffffffff
 8000e9a:	e7f9      	b.n	8000e90 <slb_driver_open+0x20>
 8000e9c:	f7ff fcc6 	bl	800082c <_di>
 8000ea0:	7870      	ldrb	r0, [r6, #1]
 8000ea2:	6823      	ldr	r3, [r4, #0]
 8000ea4:	b150      	cbz	r0, 8000ebc <slb_driver_open+0x4c>
 8000ea6:	f893 3066 	ldrb.w	r3, [r3, #102]	@ 0x66
 8000eaa:	f04f 30ff 	mov.w	r0, #4294967295	@ 0xffffffff
 8000eae:	2b79      	cmp	r3, #121	@ 0x79
 8000eb0:	d1ee      	bne.n	8000e90 <slb_driver_open+0x20>
 8000eb2:	9000      	str	r0, [sp, #0]
 8000eb4:	f7ff fcbc 	bl	8000830 <_ei>
 8000eb8:	9800      	ldr	r0, [sp, #0]
 8000eba:	e7e9      	b.n	8000e90 <slb_driver_open+0x20>
 8000ebc:	2201      	movs	r2, #1
 8000ebe:	f893 3066 	ldrb.w	r3, [r3, #102]	@ 0x66
 8000ec2:	7072      	strb	r2, [r6, #1]
 8000ec4:	e7f3      	b.n	8000eae <slb_driver_open+0x3e>
 8000ec6:	f04f 30ff 	mov.w	r0, #4294967295	@ 0xffffffff
 8000eca:	e7e2      	b.n	8000e92 <slb_driver_open+0x22>
 8000ecc:	20000068 	.word	0x20000068

08000ed0 <slb_driver_read>:
 8000ed0:	e92d 4ff0 	stmdb	sp!, {r4, r5, r6, r7, r8, r9, sl, fp, lr}
 8000ed4:	6883      	ldr	r3, [r0, #8]
 8000ed6:	4682      	mov	sl, r0
 8000ed8:	7818      	ldrb	r0, [r3, #0]
 8000eda:	f8da 6004 	ldr.w	r6, [sl, #4]
 8000ede:	b086      	sub	sp, #24
 8000ee0:	468e      	mov	lr, r1
 8000ee2:	4613      	mov	r3, r2
 8000ee4:	2800      	cmp	r0, #0
 8000ee6:	f000 80d9 	beq.w	800109c <slb_driver_read+0x1cc>
 8000eea:	f102 0b01 	add.w	fp, r2, #1
 8000eee:	1e4a      	subs	r2, r1, #1
 8000ef0:	9205      	str	r2, [sp, #20]
 8000ef2:	9603      	str	r6, [sp, #12]
 8000ef4:	465d      	mov	r5, fp
 8000ef6:	4689      	mov	r9, r1
 8000ef8:	9304      	str	r3, [sp, #16]
 8000efa:	4b7f      	ldr	r3, [pc, #508]	@ (80010f8 <slb_driver_read+0x228>)
 8000efc:	681b      	ldr	r3, [r3, #0]
 8000efe:	f893 3066 	ldrb.w	r3, [r3, #102]	@ 0x66
 8000f02:	2b79      	cmp	r3, #121	@ 0x79
 8000f04:	f000 80db 	beq.w	80010be <slb_driver_read+0x1ee>
 8000f08:	9c03      	ldr	r4, [sp, #12]
 8000f0a:	2700      	movs	r7, #0
 8000f0c:	e002      	b.n	8000f14 <slb_driver_read+0x44>
 8000f0e:	2f00      	cmp	r7, #0
 8000f10:	f000 80b5 	beq.w	800107e <slb_driver_read+0x1ae>
 8000f14:	6923      	ldr	r3, [r4, #16]
 8000f16:	f04f 30ff 	mov.w	r0, #4294967295	@ 0xffffffff
 8000f1a:	4798      	blx	r3
 8000f1c:	2800      	cmp	r0, #0
 8000f1e:	d1f6      	bne.n	8000f0e <slb_driver_read+0x3e>
 8000f20:	4604      	mov	r4, r0
 8000f22:	f7ff fb61 	bl	80005e8 <_read_us>
 8000f26:	4627      	mov	r7, r4
 8000f28:	9e03      	ldr	r6, [sp, #12]
 8000f2a:	4680      	mov	r8, r0
 8000f2c:	468b      	mov	fp, r1
 8000f2e:	e002      	b.n	8000f36 <slb_driver_read+0x66>
 8000f30:	2f00      	cmp	r7, #0
 8000f32:	f000 80a9 	beq.w	8001088 <slb_driver_read+0x1b8>
 8000f36:	6933      	ldr	r3, [r6, #16]
 8000f38:	f04f 30ff 	mov.w	r0, #4294967295	@ 0xffffffff
 8000f3c:	4798      	blx	r3
 8000f3e:	2800      	cmp	r0, #0
 8000f40:	d0f6      	beq.n	8000f30 <slb_driver_read+0x60>
 8000f42:	f7ff fb51 	bl	80005e8 <_read_us>
 8000f46:	ebb0 0008 	subs.w	r0, r0, r8
 8000f4a:	eb61 020b 	sbc.w	r2, r1, fp
 8000f4e:	f5b0 7f16 	cmp.w	r0, #600	@ 0x258
 8000f52:	f172 0300 	sbcs.w	r3, r2, #0
 8000f56:	f0c0 80b5 	bcc.w	80010c4 <slb_driver_read+0x1f4>
 8000f5a:	f7ff fb45 	bl	80005e8 <_read_us>
 8000f5e:	9f03      	ldr	r7, [sp, #12]
 8000f60:	4606      	mov	r6, r0
 8000f62:	4688      	mov	r8, r1
 8000f64:	e002      	b.n	8000f6c <slb_driver_read+0x9c>
 8000f66:	2c00      	cmp	r4, #0
 8000f68:	f000 8093 	beq.w	8001092 <slb_driver_read+0x1c2>
 8000f6c:	693b      	ldr	r3, [r7, #16]
 8000f6e:	f04f 30ff 	mov.w	r0, #4294967295	@ 0xffffffff
 8000f72:	4798      	blx	r3
 8000f74:	2800      	cmp	r0, #0
 8000f76:	d1f6      	bne.n	8000f66 <slb_driver_read+0x96>
 8000f78:	4607      	mov	r7, r0
 8000f7a:	f7ff fb35 	bl	80005e8 <_read_us>
 8000f7e:	1b80      	subs	r0, r0, r6
 8000f80:	eb61 0108 	sbc.w	r1, r1, r8
 8000f84:	285a      	cmp	r0, #90	@ 0x5a
 8000f86:	f171 0100 	sbcs.w	r1, r1, #0
 8000f8a:	f0c0 80a0 	bcc.w	80010ce <slb_driver_read+0x1fe>
 8000f8e:	485b      	ldr	r0, [pc, #364]	@ (80010fc <slb_driver_read+0x22c>)
 8000f90:	f7ff fdd2 	bl	8000b38 <ucx_printf>
 8000f94:	9b04      	ldr	r3, [sp, #16]
 8000f96:	3301      	adds	r3, #1
 8000f98:	f000 80a6 	beq.w	80010e8 <slb_driver_read+0x218>
 8000f9c:	f8dd b014 	ldr.w	fp, [sp, #20]
 8000fa0:	9501      	str	r5, [sp, #4]
 8000fa2:	465e      	mov	r6, fp
 8000fa4:	46cb      	mov	fp, r9
 8000fa6:	f04f 0908 	mov.w	r9, #8
 8000faa:	2400      	movs	r4, #0
 8000fac:	9602      	str	r6, [sp, #8]
 8000fae:	9700      	str	r7, [sp, #0]
 8000fb0:	f8da 7004 	ldr.w	r7, [sl, #4]
 8000fb4:	693b      	ldr	r3, [r7, #16]
 8000fb6:	f04f 30ff 	mov.w	r0, #4294967295	@ 0xffffffff
 8000fba:	4798      	blx	r3
 8000fbc:	2800      	cmp	r0, #0
 8000fbe:	d0f9      	beq.n	8000fb4 <slb_driver_read+0xe4>
 8000fc0:	f7ff fb12 	bl	80005e8 <_read_us>
 8000fc4:	4606      	mov	r6, r0
 8000fc6:	4688      	mov	r8, r1
 8000fc8:	e002      	b.n	8000fd0 <slb_driver_read+0x100>
 8000fca:	693b      	ldr	r3, [r7, #16]
 8000fcc:	4798      	blx	r3
 8000fce:	b150      	cbz	r0, 8000fe6 <slb_driver_read+0x116>
 8000fd0:	f7ff fb0a 	bl	80005e8 <_read_us>
 8000fd4:	1b85      	subs	r5, r0, r6
 8000fd6:	eb61 0108 	sbc.w	r1, r1, r8
 8000fda:	2d65      	cmp	r5, #101	@ 0x65
 8000fdc:	f171 0100 	sbcs.w	r1, r1, #0
 8000fe0:	f04f 30ff 	mov.w	r0, #4294967295	@ 0xffffffff
 8000fe4:	d3f1      	bcc.n	8000fca <slb_driver_read+0xfa>
 8000fe6:	2d50      	cmp	r5, #80	@ 0x50
 8000fe8:	dc41      	bgt.n	800106e <slb_driver_read+0x19e>
 8000fea:	2d28      	cmp	r5, #40	@ 0x28
 8000fec:	bfd4      	ite	le
 8000fee:	2000      	movle	r0, #0
 8000ff0:	2001      	movgt	r0, #1
 8000ff2:	ea40 0044 	orr.w	r0, r0, r4, lsl #1
 8000ff6:	f1b9 0901 	subs.w	r9, r9, #1
 8000ffa:	b2c4      	uxtb	r4, r0
 8000ffc:	d1d8      	bne.n	8000fb0 <slb_driver_read+0xe0>
 8000ffe:	9f00      	ldr	r7, [sp, #0]
 8001000:	483f      	ldr	r0, [pc, #252]	@ (8001100 <slb_driver_read+0x230>)
 8001002:	9e02      	ldr	r6, [sp, #8]
 8001004:	f7ff fd98 	bl	8000b38 <ucx_printf>
 8001008:	9b01      	ldr	r3, [sp, #4]
 800100a:	f806 4f01 	strb.w	r4, [r6, #1]!
 800100e:	3701      	adds	r7, #1
 8001010:	42bb      	cmp	r3, r7
 8001012:	d1c8      	bne.n	8000fa6 <slb_driver_read+0xd6>
 8001014:	9d01      	ldr	r5, [sp, #4]
 8001016:	46d9      	mov	r9, fp
 8001018:	462c      	mov	r4, r5
 800101a:	2f01      	cmp	r7, #1
 800101c:	f899 3000 	ldrb.w	r3, [r9]
 8001020:	dd06      	ble.n	8001030 <slb_driver_read+0x160>
 8001022:	9a03      	ldr	r2, [sp, #12]
 8001024:	7951      	ldrb	r1, [r2, #5]
 8001026:	ebb1 0f53 	cmp.w	r1, r3, lsr #1
 800102a:	ea4f 0253 	mov.w	r2, r3, lsr #1
 800102e:	d13b      	bne.n	80010a8 <slb_driver_read+0x1d8>
 8001030:	463d      	mov	r5, r7
 8001032:	461f      	mov	r7, r3
 8001034:	9b04      	ldr	r3, [sp, #16]
 8001036:	46ce      	mov	lr, r9
 8001038:	b143      	cbz	r3, 800104c <slb_driver_read+0x17c>
 800103a:	1e58      	subs	r0, r3, #1
 800103c:	9a05      	ldr	r2, [sp, #20]
 800103e:	4470      	add	r0, lr
 8001040:	2300      	movs	r3, #0
 8001042:	f812 1f01 	ldrb.w	r1, [r2, #1]!
 8001046:	4290      	cmp	r0, r2
 8001048:	440b      	add	r3, r1
 800104a:	d1fa      	bne.n	8001042 <slb_driver_read+0x172>
 800104c:	07fa      	lsls	r2, r7, #31
 800104e:	d542      	bpl.n	80010d6 <slb_driver_read+0x206>
 8001050:	f81e 2005 	ldrb.w	r2, [lr, r5]
 8001054:	b2db      	uxtb	r3, r3
 8001056:	429a      	cmp	r2, r3
 8001058:	d120      	bne.n	800109c <slb_driver_read+0x1cc>
 800105a:	4b27      	ldr	r3, [pc, #156]	@ (80010f8 <slb_driver_read+0x228>)
 800105c:	681b      	ldr	r3, [r3, #0]
 800105e:	f893 3066 	ldrb.w	r3, [r3, #102]	@ 0x66
 8001062:	2b79      	cmp	r3, #121	@ 0x79
 8001064:	d03d      	beq.n	80010e2 <slb_driver_read+0x212>
 8001066:	4620      	mov	r0, r4
 8001068:	b006      	add	sp, #24
 800106a:	e8bd 8ff0 	ldmia.w	sp!, {r4, r5, r6, r7, r8, r9, sl, fp, pc}
 800106e:	9f00      	ldr	r7, [sp, #0]
 8001070:	4823      	ldr	r0, [pc, #140]	@ (8001100 <slb_driver_read+0x230>)
 8001072:	9d01      	ldr	r5, [sp, #4]
 8001074:	46d9      	mov	r9, fp
 8001076:	463c      	mov	r4, r7
 8001078:	f7ff fd5e 	bl	8000b38 <ucx_printf>
 800107c:	e7cd      	b.n	800101a <slb_driver_read+0x14a>
 800107e:	4821      	ldr	r0, [pc, #132]	@ (8001104 <slb_driver_read+0x234>)
 8001080:	f7ff fd5a 	bl	8000b38 <ucx_printf>
 8001084:	2701      	movs	r7, #1
 8001086:	e745      	b.n	8000f14 <slb_driver_read+0x44>
 8001088:	481f      	ldr	r0, [pc, #124]	@ (8001108 <slb_driver_read+0x238>)
 800108a:	f7ff fd55 	bl	8000b38 <ucx_printf>
 800108e:	2701      	movs	r7, #1
 8001090:	e751      	b.n	8000f36 <slb_driver_read+0x66>
 8001092:	481e      	ldr	r0, [pc, #120]	@ (800110c <slb_driver_read+0x23c>)
 8001094:	f7ff fd50 	bl	8000b38 <ucx_printf>
 8001098:	2401      	movs	r4, #1
 800109a:	e767      	b.n	8000f6c <slb_driver_read+0x9c>
 800109c:	f04f 34ff 	mov.w	r4, #4294967295	@ 0xffffffff
 80010a0:	4620      	mov	r0, r4
 80010a2:	b006      	add	sp, #24
 80010a4:	e8bd 8ff0 	ldmia.w	sp!, {r4, r5, r6, r7, r8, r9, sl, fp, pc}
 80010a8:	4819      	ldr	r0, [pc, #100]	@ (8001110 <slb_driver_read+0x240>)
 80010aa:	4639      	mov	r1, r7
 80010ac:	f7ff fd44 	bl	8000b38 <ucx_printf>
 80010b0:	4b11      	ldr	r3, [pc, #68]	@ (80010f8 <slb_driver_read+0x228>)
 80010b2:	681b      	ldr	r3, [r3, #0]
 80010b4:	f893 3066 	ldrb.w	r3, [r3, #102]	@ 0x66
 80010b8:	2b79      	cmp	r3, #121	@ 0x79
 80010ba:	f47f af25 	bne.w	8000f08 <slb_driver_read+0x38>
 80010be:	f7ff fbc1 	bl	8000844 <_timer_disable>
 80010c2:	e721      	b.n	8000f08 <slb_driver_read+0x38>
 80010c4:	4601      	mov	r1, r0
 80010c6:	4813      	ldr	r0, [pc, #76]	@ (8001114 <slb_driver_read+0x244>)
 80010c8:	f7ff fd36 	bl	8000b38 <ucx_printf>
 80010cc:	e715      	b.n	8000efa <slb_driver_read+0x2a>
 80010ce:	4812      	ldr	r0, [pc, #72]	@ (8001118 <slb_driver_read+0x248>)
 80010d0:	f7ff fd32 	bl	8000b38 <ucx_printf>
 80010d4:	e711      	b.n	8000efa <slb_driver_read+0x2a>
 80010d6:	f06f 0401 	mvn.w	r4, #1
 80010da:	4620      	mov	r0, r4
 80010dc:	b006      	add	sp, #24
 80010de:	e8bd 8ff0 	ldmia.w	sp!, {r4, r5, r6, r7, r8, r9, sl, fp, pc}
 80010e2:	f7ff fba9 	bl	8000838 <_timer_enable>
 80010e6:	e7be      	b.n	8001066 <slb_driver_read+0x196>
 80010e8:	463d      	mov	r5, r7
 80010ea:	9b04      	ldr	r3, [sp, #16]
 80010ec:	f899 7000 	ldrb.w	r7, [r9]
 80010f0:	46ce      	mov	lr, r9
 80010f2:	462c      	mov	r4, r5
 80010f4:	e7a1      	b.n	800103a <slb_driver_read+0x16a>
 80010f6:	bf00      	nop
 80010f8:	20000068 	.word	0x20000068
 80010fc:	08004ac0 	.word	0x08004ac0
 8001100:	08004ac8 	.word	0x08004ac8
 8001104:	08004aa0 	.word	0x08004aa0
 8001108:	08004aa4 	.word	0x08004aa4
 800110c:	08004ab4 	.word	0x08004ab4
 8001110:	08004acc 	.word	0x08004acc
 8001114:	08004aa8 	.word	0x08004aa8
 8001118:	08004ab8 	.word	0x08004ab8

0800111c <slb_master_transfer.isra.0>:
 800111c:	b570      	push	{r4, r5, r6, lr}
 800111e:	4605      	mov	r5, r0
 8001120:	460c      	mov	r4, r1
 8001122:	2608      	movs	r6, #8
 8001124:	692b      	ldr	r3, [r5, #16]
 8001126:	2000      	movs	r0, #0
 8001128:	4798      	blx	r3
 800112a:	6828      	ldr	r0, [r5, #0]
 800112c:	f7ff fa00 	bl	8000530 <_delay_us>
 8001130:	692b      	ldr	r3, [r5, #16]
 8001132:	2001      	movs	r0, #1
 8001134:	4798      	blx	r3
 8001136:	6828      	ldr	r0, [r5, #0]
 8001138:	0623      	lsls	r3, r4, #24
 800113a:	bf48      	it	mi
 800113c:	0040      	lslmi	r0, r0, #1
 800113e:	f7ff f9f7 	bl	8000530 <_delay_us>
 8001142:	0064      	lsls	r4, r4, #1
 8001144:	3e01      	subs	r6, #1
 8001146:	b2e4      	uxtb	r4, r4
 8001148:	d1ec      	bne.n	8001124 <slb_master_transfer.isra.0+0x8>
 800114a:	bd70      	pop	{r4, r5, r6, pc}

0800114c <slb_driver_write>:
 800114c:	e92d 4ff0 	stmdb	sp!, {r4, r5, r6, r7, r8, r9, sl, fp, lr}
 8001150:	6883      	ldr	r3, [r0, #8]
 8001152:	781b      	ldrb	r3, [r3, #0]
 8001154:	4605      	mov	r5, r0
 8001156:	468a      	mov	sl, r1
 8001158:	4616      	mov	r6, r2
 800115a:	2b00      	cmp	r3, #0
 800115c:	d055      	beq.n	800120a <slb_driver_write+0xbe>
 800115e:	f8df 8120 	ldr.w	r8, [pc, #288]	@ 8001280 <slb_driver_write+0x134>
 8001162:	6847      	ldr	r7, [r0, #4]
 8001164:	f8d8 3000 	ldr.w	r3, [r8]
 8001168:	f893 0066 	ldrb.w	r0, [r3, #102]	@ 0x66
 800116c:	2a00      	cmp	r2, #0
 800116e:	d070      	beq.n	8001252 <slb_driver_write+0x106>
 8001170:	1e4c      	subs	r4, r1, #1
 8001172:	f102 3bff 	add.w	fp, r2, #4294967295	@ 0xffffffff
 8001176:	4623      	mov	r3, r4
 8001178:	4459      	add	r1, fp
 800117a:	f04f 0c00 	mov.w	ip, #0
 800117e:	f813 2f01 	ldrb.w	r2, [r3, #1]!
 8001182:	4299      	cmp	r1, r3
 8001184:	4494      	add	ip, r2
 8001186:	d1fa      	bne.n	800117e <slb_driver_write+0x32>
 8001188:	2879      	cmp	r0, #121	@ 0x79
 800118a:	fa5f f98c 	uxtb.w	r9, ip
 800118e:	d044      	beq.n	800121a <slb_driver_write+0xce>
 8001190:	483c      	ldr	r0, [pc, #240]	@ (8001284 <slb_driver_write+0x138>)
 8001192:	f7ff fcd1 	bl	8000b38 <ucx_printf>
 8001196:	693b      	ldr	r3, [r7, #16]
 8001198:	2000      	movs	r0, #0
 800119a:	4798      	blx	r3
 800119c:	f44f 7061 	mov.w	r0, #900	@ 0x384
 80011a0:	f7ff f9c6 	bl	8000530 <_delay_us>
 80011a4:	4838      	ldr	r0, [pc, #224]	@ (8001288 <slb_driver_write+0x13c>)
 80011a6:	f7ff fcc7 	bl	8000b38 <ucx_printf>
 80011aa:	693b      	ldr	r3, [r7, #16]
 80011ac:	2001      	movs	r0, #1
 80011ae:	4798      	blx	r3
 80011b0:	2064      	movs	r0, #100	@ 0x64
 80011b2:	f7ff f9bd 	bl	8000530 <_delay_us>
 80011b6:	44da      	add	sl, fp
 80011b8:	f814 1f01 	ldrb.w	r1, [r4, #1]!
 80011bc:	6868      	ldr	r0, [r5, #4]
 80011be:	f7ff ffad 	bl	800111c <slb_master_transfer.isra.0>
 80011c2:	45a2      	cmp	sl, r4
 80011c4:	d1f8      	bne.n	80011b8 <slb_driver_write+0x6c>
 80011c6:	4649      	mov	r1, r9
 80011c8:	6868      	ldr	r0, [r5, #4]
 80011ca:	f7ff ffa7 	bl	800111c <slb_master_transfer.isra.0>
 80011ce:	693b      	ldr	r3, [r7, #16]
 80011d0:	2000      	movs	r0, #0
 80011d2:	4798      	blx	r3
 80011d4:	6838      	ldr	r0, [r7, #0]
 80011d6:	f7ff f9ab 	bl	8000530 <_delay_us>
 80011da:	693b      	ldr	r3, [r7, #16]
 80011dc:	2001      	movs	r0, #1
 80011de:	4798      	blx	r3
 80011e0:	2064      	movs	r0, #100	@ 0x64
 80011e2:	f7ff f9a5 	bl	8000530 <_delay_us>
 80011e6:	693b      	ldr	r3, [r7, #16]
 80011e8:	2000      	movs	r0, #0
 80011ea:	4798      	blx	r3
 80011ec:	6838      	ldr	r0, [r7, #0]
 80011ee:	f7ff f99f 	bl	8000530 <_delay_us>
 80011f2:	693b      	ldr	r3, [r7, #16]
 80011f4:	2001      	movs	r0, #1
 80011f6:	4798      	blx	r3
 80011f8:	f8d8 3000 	ldr.w	r3, [r8]
 80011fc:	f893 3066 	ldrb.w	r3, [r3, #102]	@ 0x66
 8001200:	2b79      	cmp	r3, #121	@ 0x79
 8001202:	d006      	beq.n	8001212 <slb_driver_write+0xc6>
 8001204:	4630      	mov	r0, r6
 8001206:	e8bd 8ff0 	ldmia.w	sp!, {r4, r5, r6, r7, r8, r9, sl, fp, pc}
 800120a:	f04f 30ff 	mov.w	r0, #4294967295	@ 0xffffffff
 800120e:	e8bd 8ff0 	ldmia.w	sp!, {r4, r5, r6, r7, r8, r9, sl, fp, pc}
 8001212:	f7ff fb11 	bl	8000838 <_timer_enable>
 8001216:	e7f5      	b.n	8001204 <slb_driver_write+0xb8>
 8001218:	46b1      	mov	r9, r6
 800121a:	f7ff fb13 	bl	8000844 <_timer_disable>
 800121e:	4819      	ldr	r0, [pc, #100]	@ (8001284 <slb_driver_write+0x138>)
 8001220:	f7ff fc8a 	bl	8000b38 <ucx_printf>
 8001224:	693b      	ldr	r3, [r7, #16]
 8001226:	2000      	movs	r0, #0
 8001228:	4798      	blx	r3
 800122a:	f44f 7061 	mov.w	r0, #900	@ 0x384
 800122e:	f7ff f97f 	bl	8000530 <_delay_us>
 8001232:	4815      	ldr	r0, [pc, #84]	@ (8001288 <slb_driver_write+0x13c>)
 8001234:	f7ff fc80 	bl	8000b38 <ucx_printf>
 8001238:	693b      	ldr	r3, [r7, #16]
 800123a:	2001      	movs	r0, #1
 800123c:	4798      	blx	r3
 800123e:	2064      	movs	r0, #100	@ 0x64
 8001240:	f7ff f976 	bl	8000530 <_delay_us>
 8001244:	2e00      	cmp	r6, #0
 8001246:	d0be      	beq.n	80011c6 <slb_driver_write+0x7a>
 8001248:	f10a 34ff 	add.w	r4, sl, #4294967295	@ 0xffffffff
 800124c:	f106 3bff 	add.w	fp, r6, #4294967295	@ 0xffffffff
 8001250:	e7b1      	b.n	80011b6 <slb_driver_write+0x6a>
 8001252:	2879      	cmp	r0, #121	@ 0x79
 8001254:	d0e0      	beq.n	8001218 <slb_driver_write+0xcc>
 8001256:	480b      	ldr	r0, [pc, #44]	@ (8001284 <slb_driver_write+0x138>)
 8001258:	f7ff fc6e 	bl	8000b38 <ucx_printf>
 800125c:	693b      	ldr	r3, [r7, #16]
 800125e:	4630      	mov	r0, r6
 8001260:	4798      	blx	r3
 8001262:	f44f 7061 	mov.w	r0, #900	@ 0x384
 8001266:	f7ff f963 	bl	8000530 <_delay_us>
 800126a:	4807      	ldr	r0, [pc, #28]	@ (8001288 <slb_driver_write+0x13c>)
 800126c:	f7ff fc64 	bl	8000b38 <ucx_printf>
 8001270:	693b      	ldr	r3, [r7, #16]
 8001272:	2001      	movs	r0, #1
 8001274:	4798      	blx	r3
 8001276:	2064      	movs	r0, #100	@ 0x64
 8001278:	f7ff f95a 	bl	8000530 <_delay_us>
 800127c:	46b1      	mov	r9, r6
 800127e:	e7a2      	b.n	80011c6 <slb_driver_write+0x7a>
 8001280:	20000068 	.word	0x20000068
 8001284:	08004ad8 	.word	0x08004ad8
 8001288:	08004adc 	.word	0x08004adc

0800128c <RCC_GetClocksFreq>:
 800128c:	4a1e      	ldr	r2, [pc, #120]	@ (8001308 <RCC_GetClocksFreq+0x7c>)
 800128e:	6893      	ldr	r3, [r2, #8]
 8001290:	f003 030c 	and.w	r3, r3, #12
 8001294:	2b04      	cmp	r3, #4
 8001296:	b410      	push	{r4}
 8001298:	d01a      	beq.n	80012d0 <RCC_GetClocksFreq+0x44>
 800129a:	2b08      	cmp	r3, #8
 800129c:	d01a      	beq.n	80012d4 <RCC_GetClocksFreq+0x48>
 800129e:	4b1b      	ldr	r3, [pc, #108]	@ (800130c <RCC_GetClocksFreq+0x80>)
 80012a0:	4a19      	ldr	r2, [pc, #100]	@ (8001308 <RCC_GetClocksFreq+0x7c>)
 80012a2:	6003      	str	r3, [r0, #0]
 80012a4:	6894      	ldr	r4, [r2, #8]
 80012a6:	491a      	ldr	r1, [pc, #104]	@ (8001310 <RCC_GetClocksFreq+0x84>)
 80012a8:	f3c4 1403 	ubfx	r4, r4, #4, #4
 80012ac:	5d0c      	ldrb	r4, [r1, r4]
 80012ae:	40e3      	lsrs	r3, r4
 80012b0:	6043      	str	r3, [r0, #4]
 80012b2:	6894      	ldr	r4, [r2, #8]
 80012b4:	f3c4 2482 	ubfx	r4, r4, #10, #3
 80012b8:	5d0c      	ldrb	r4, [r1, r4]
 80012ba:	fa23 f404 	lsr.w	r4, r3, r4
 80012be:	6084      	str	r4, [r0, #8]
 80012c0:	6892      	ldr	r2, [r2, #8]
 80012c2:	bc10      	pop	{r4}
 80012c4:	f3c2 3242 	ubfx	r2, r2, #13, #3
 80012c8:	5c8a      	ldrb	r2, [r1, r2]
 80012ca:	40d3      	lsrs	r3, r2
 80012cc:	60c3      	str	r3, [r0, #12]
 80012ce:	4770      	bx	lr
 80012d0:	4b10      	ldr	r3, [pc, #64]	@ (8001314 <RCC_GetClocksFreq+0x88>)
 80012d2:	e7e5      	b.n	80012a0 <RCC_GetClocksFreq+0x14>
 80012d4:	6853      	ldr	r3, [r2, #4]
 80012d6:	6851      	ldr	r1, [r2, #4]
 80012d8:	f413 0f80 	tst.w	r3, #4194304	@ 0x400000
 80012dc:	6853      	ldr	r3, [r2, #4]
 80012de:	bf14      	ite	ne
 80012e0:	4a0c      	ldrne	r2, [pc, #48]	@ (8001314 <RCC_GetClocksFreq+0x88>)
 80012e2:	4a0a      	ldreq	r2, [pc, #40]	@ (800130c <RCC_GetClocksFreq+0x80>)
 80012e4:	f3c3 1388 	ubfx	r3, r3, #6, #9
 80012e8:	f001 013f 	and.w	r1, r1, #63	@ 0x3f
 80012ec:	fbb2 f2f1 	udiv	r2, r2, r1
 80012f0:	fb02 f303 	mul.w	r3, r2, r3
 80012f4:	4a04      	ldr	r2, [pc, #16]	@ (8001308 <RCC_GetClocksFreq+0x7c>)
 80012f6:	6852      	ldr	r2, [r2, #4]
 80012f8:	f3c2 4201 	ubfx	r2, r2, #16, #2
 80012fc:	3201      	adds	r2, #1
 80012fe:	0052      	lsls	r2, r2, #1
 8001300:	fbb3 f3f2 	udiv	r3, r3, r2
 8001304:	e7cc      	b.n	80012a0 <RCC_GetClocksFreq+0x14>
 8001306:	bf00      	nop
 8001308:	40023800 	.word	0x40023800
 800130c:	00f42400 	.word	0x00f42400
 8001310:	20000044 	.word	0x20000044
 8001314:	017d7840 	.word	0x017d7840

08001318 <RCC_AHB1PeriphClockCmd>:
 8001318:	4a04      	ldr	r2, [pc, #16]	@ (800132c <RCC_AHB1PeriphClockCmd+0x14>)
 800131a:	6b13      	ldr	r3, [r2, #48]	@ 0x30
 800131c:	b111      	cbz	r1, 8001324 <RCC_AHB1PeriphClockCmd+0xc>
 800131e:	4303      	orrs	r3, r0
 8001320:	6313      	str	r3, [r2, #48]	@ 0x30
 8001322:	4770      	bx	lr
 8001324:	ea23 0300 	bic.w	r3, r3, r0
 8001328:	6313      	str	r3, [r2, #48]	@ 0x30
 800132a:	4770      	bx	lr
 800132c:	40023800 	.word	0x40023800

08001330 <RCC_AHB2PeriphClockCmd>:
 8001330:	4a04      	ldr	r2, [pc, #16]	@ (8001344 <RCC_AHB2PeriphClockCmd+0x14>)
 8001332:	6b53      	ldr	r3, [r2, #52]	@ 0x34
 8001334:	b111      	cbz	r1, 800133c <RCC_AHB2PeriphClockCmd+0xc>
 8001336:	4303      	orrs	r3, r0
 8001338:	6353      	str	r3, [r2, #52]	@ 0x34
 800133a:	4770      	bx	lr
 800133c:	ea23 0300 	bic.w	r3, r3, r0
 8001340:	6353      	str	r3, [r2, #52]	@ 0x34
 8001342:	4770      	bx	lr
 8001344:	40023800 	.word	0x40023800

08001348 <RCC_APB1PeriphClockCmd>:
 8001348:	4a04      	ldr	r2, [pc, #16]	@ (800135c <RCC_APB1PeriphClockCmd+0x14>)
 800134a:	6c13      	ldr	r3, [r2, #64]	@ 0x40
 800134c:	b111      	cbz	r1, 8001354 <RCC_APB1PeriphClockCmd+0xc>
 800134e:	4303      	orrs	r3, r0
 8001350:	6413      	str	r3, [r2, #64]	@ 0x40
 8001352:	4770      	bx	lr
 8001354:	ea23 0300 	bic.w	r3, r3, r0
 8001358:	6413      	str	r3, [r2, #64]	@ 0x40
 800135a:	4770      	bx	lr
 800135c:	40023800 	.word	0x40023800

08001360 <RCC_APB2PeriphClockCmd>:
 8001360:	4a04      	ldr	r2, [pc, #16]	@ (8001374 <RCC_APB2PeriphClockCmd+0x14>)
 8001362:	6c53      	ldr	r3, [r2, #68]	@ 0x44
 8001364:	b111      	cbz	r1, 800136c <RCC_APB2PeriphClockCmd+0xc>
 8001366:	4303      	orrs	r3, r0
 8001368:	6453      	str	r3, [r2, #68]	@ 0x44
 800136a:	4770      	bx	lr
 800136c:	ea23 0300 	bic.w	r3, r3, r0
 8001370:	6453      	str	r3, [r2, #68]	@ 0x44
 8001372:	4770      	bx	lr
 8001374:	40023800 	.word	0x40023800

08001378 <RCC_APB1PeriphResetCmd>:
 8001378:	4a04      	ldr	r2, [pc, #16]	@ (800138c <RCC_APB1PeriphResetCmd+0x14>)
 800137a:	6a13      	ldr	r3, [r2, #32]
 800137c:	b111      	cbz	r1, 8001384 <RCC_APB1PeriphResetCmd+0xc>
 800137e:	4303      	orrs	r3, r0
 8001380:	6213      	str	r3, [r2, #32]
 8001382:	4770      	bx	lr
 8001384:	ea23 0300 	bic.w	r3, r3, r0
 8001388:	6213      	str	r3, [r2, #32]
 800138a:	4770      	bx	lr
 800138c:	40023800 	.word	0x40023800

08001390 <TIM_TimeBaseInit>:
 8001390:	b470      	push	{r4, r5, r6}
 8001392:	4c1a      	ldr	r4, [pc, #104]	@ (80013fc <TIM_TimeBaseInit+0x6c>)
 8001394:	6802      	ldr	r2, [r0, #0]
 8001396:	684e      	ldr	r6, [r1, #4]
 8001398:	880d      	ldrh	r5, [r1, #0]
 800139a:	42a0      	cmp	r0, r4
 800139c:	b293      	uxth	r3, r2
 800139e:	d020      	beq.n	80013e2 <TIM_TimeBaseInit+0x52>
 80013a0:	f1b0 4f80 	cmp.w	r0, #1073741824	@ 0x40000000
 80013a4:	d012      	beq.n	80013cc <TIM_TimeBaseInit+0x3c>
 80013a6:	f5a4 447c 	sub.w	r4, r4, #64512	@ 0xfc00
 80013aa:	42a0      	cmp	r0, r4
 80013ac:	d00e      	beq.n	80013cc <TIM_TimeBaseInit+0x3c>
 80013ae:	f504 6480 	add.w	r4, r4, #1024	@ 0x400
 80013b2:	42a0      	cmp	r0, r4
 80013b4:	d00a      	beq.n	80013cc <TIM_TimeBaseInit+0x3c>
 80013b6:	f504 6480 	add.w	r4, r4, #1024	@ 0x400
 80013ba:	42a0      	cmp	r0, r4
 80013bc:	d006      	beq.n	80013cc <TIM_TimeBaseInit+0x3c>
 80013be:	6003      	str	r3, [r0, #0]
 80013c0:	2301      	movs	r3, #1
 80013c2:	62c6      	str	r6, [r0, #44]	@ 0x2c
 80013c4:	6285      	str	r5, [r0, #40]	@ 0x28
 80013c6:	bc70      	pop	{r4, r5, r6}
 80013c8:	6143      	str	r3, [r0, #20]
 80013ca:	4770      	bx	lr
 80013cc:	884a      	ldrh	r2, [r1, #2]
 80013ce:	f023 0370 	bic.w	r3, r3, #112	@ 0x70
 80013d2:	4313      	orrs	r3, r2
 80013d4:	6003      	str	r3, [r0, #0]
 80013d6:	2301      	movs	r3, #1
 80013d8:	62c6      	str	r6, [r0, #44]	@ 0x2c
 80013da:	6285      	str	r5, [r0, #40]	@ 0x28
 80013dc:	bc70      	pop	{r4, r5, r6}
 80013de:	6143      	str	r3, [r0, #20]
 80013e0:	4770      	bx	lr
 80013e2:	884a      	ldrh	r2, [r1, #2]
 80013e4:	f023 0370 	bic.w	r3, r3, #112	@ 0x70
 80013e8:	4313      	orrs	r3, r2
 80013ea:	6003      	str	r3, [r0, #0]
 80013ec:	62c6      	str	r6, [r0, #44]	@ 0x2c
 80013ee:	6285      	str	r5, [r0, #40]	@ 0x28
 80013f0:	7a8b      	ldrb	r3, [r1, #10]
 80013f2:	6303      	str	r3, [r0, #48]	@ 0x30
 80013f4:	2301      	movs	r3, #1
 80013f6:	bc70      	pop	{r4, r5, r6}
 80013f8:	6143      	str	r3, [r0, #20]
 80013fa:	4770      	bx	lr
 80013fc:	40010000 	.word	0x40010000

08001400 <TIM_TimeBaseStructInit>:
 8001400:	2300      	movs	r3, #0
 8001402:	f04f 32ff 	mov.w	r2, #4294967295	@ 0xffffffff
 8001406:	6042      	str	r2, [r0, #4]
 8001408:	8103      	strh	r3, [r0, #8]
 800140a:	6003      	str	r3, [r0, #0]
 800140c:	7283      	strb	r3, [r0, #10]
 800140e:	4770      	bx	lr

08001410 <TIM_Cmd>:
 8001410:	6803      	ldr	r3, [r0, #0]
 8001412:	b119      	cbz	r1, 800141c <TIM_Cmd+0xc>
 8001414:	f043 0301 	orr.w	r3, r3, #1
 8001418:	6003      	str	r3, [r0, #0]
 800141a:	4770      	bx	lr
 800141c:	f64f 72fe 	movw	r2, #65534	@ 0xfffe
 8001420:	4013      	ands	r3, r2
 8001422:	6003      	str	r3, [r0, #0]
 8001424:	4770      	bx	lr
 8001426:	bf00      	nop

08001428 <SystemInit>:
 8001428:	4a34      	ldr	r2, [pc, #208]	@ (80014fc <SystemInit+0xd4>)
 800142a:	4835      	ldr	r0, [pc, #212]	@ (8001500 <SystemInit+0xd8>)
 800142c:	6813      	ldr	r3, [r2, #0]
 800142e:	2100      	movs	r1, #0
 8001430:	f043 0301 	orr.w	r3, r3, #1
 8001434:	6013      	str	r3, [r2, #0]
 8001436:	6091      	str	r1, [r2, #8]
 8001438:	6813      	ldr	r3, [r2, #0]
 800143a:	f023 7384 	bic.w	r3, r3, #17301504	@ 0x1080000
 800143e:	f423 3380 	bic.w	r3, r3, #65536	@ 0x10000
 8001442:	6013      	str	r3, [r2, #0]
 8001444:	6050      	str	r0, [r2, #4]
 8001446:	6813      	ldr	r3, [r2, #0]
 8001448:	b082      	sub	sp, #8
 800144a:	f423 2380 	bic.w	r3, r3, #262144	@ 0x40000
 800144e:	6013      	str	r3, [r2, #0]
 8001450:	60d1      	str	r1, [r2, #12]
 8001452:	9100      	str	r1, [sp, #0]
 8001454:	9101      	str	r1, [sp, #4]
 8001456:	6813      	ldr	r3, [r2, #0]
 8001458:	f443 3380 	orr.w	r3, r3, #65536	@ 0x10000
 800145c:	6013      	str	r3, [r2, #0]
 800145e:	e003      	b.n	8001468 <SystemInit+0x40>
 8001460:	9b00      	ldr	r3, [sp, #0]
 8001462:	f5b3 4fa0 	cmp.w	r3, #20480	@ 0x5000
 8001466:	d009      	beq.n	800147c <SystemInit+0x54>
 8001468:	6813      	ldr	r3, [r2, #0]
 800146a:	f403 3300 	and.w	r3, r3, #131072	@ 0x20000
 800146e:	9301      	str	r3, [sp, #4]
 8001470:	9b00      	ldr	r3, [sp, #0]
 8001472:	3301      	adds	r3, #1
 8001474:	9300      	str	r3, [sp, #0]
 8001476:	9b01      	ldr	r3, [sp, #4]
 8001478:	2b00      	cmp	r3, #0
 800147a:	d0f1      	beq.n	8001460 <SystemInit+0x38>
 800147c:	4b1f      	ldr	r3, [pc, #124]	@ (80014fc <SystemInit+0xd4>)
 800147e:	681b      	ldr	r3, [r3, #0]
 8001480:	f413 3300 	ands.w	r3, r3, #131072	@ 0x20000
 8001484:	bf18      	it	ne
 8001486:	2301      	movne	r3, #1
 8001488:	9301      	str	r3, [sp, #4]
 800148a:	9b01      	ldr	r3, [sp, #4]
 800148c:	2b01      	cmp	r3, #1
 800148e:	d005      	beq.n	800149c <SystemInit+0x74>
 8001490:	4b1c      	ldr	r3, [pc, #112]	@ (8001504 <SystemInit+0xdc>)
 8001492:	f04f 6200 	mov.w	r2, #134217728	@ 0x8000000
 8001496:	609a      	str	r2, [r3, #8]
 8001498:	b002      	add	sp, #8
 800149a:	4770      	bx	lr
 800149c:	4b17      	ldr	r3, [pc, #92]	@ (80014fc <SystemInit+0xd4>)
 800149e:	491a      	ldr	r1, [pc, #104]	@ (8001508 <SystemInit+0xe0>)
 80014a0:	6c1a      	ldr	r2, [r3, #64]	@ 0x40
 80014a2:	481a      	ldr	r0, [pc, #104]	@ (800150c <SystemInit+0xe4>)
 80014a4:	f042 5280 	orr.w	r2, r2, #268435456	@ 0x10000000
 80014a8:	641a      	str	r2, [r3, #64]	@ 0x40
 80014aa:	680a      	ldr	r2, [r1, #0]
 80014ac:	f442 4240 	orr.w	r2, r2, #49152	@ 0xc000
 80014b0:	600a      	str	r2, [r1, #0]
 80014b2:	689a      	ldr	r2, [r3, #8]
 80014b4:	609a      	str	r2, [r3, #8]
 80014b6:	689a      	ldr	r2, [r3, #8]
 80014b8:	609a      	str	r2, [r3, #8]
 80014ba:	689a      	ldr	r2, [r3, #8]
 80014bc:	f442 5280 	orr.w	r2, r2, #4096	@ 0x1000
 80014c0:	609a      	str	r2, [r3, #8]
 80014c2:	6058      	str	r0, [r3, #4]
 80014c4:	681a      	ldr	r2, [r3, #0]
 80014c6:	f042 7280 	orr.w	r2, r2, #16777216	@ 0x1000000
 80014ca:	601a      	str	r2, [r3, #0]
 80014cc:	681a      	ldr	r2, [r3, #0]
 80014ce:	0192      	lsls	r2, r2, #6
 80014d0:	d5fc      	bpl.n	80014cc <SystemInit+0xa4>
 80014d2:	4a0f      	ldr	r2, [pc, #60]	@ (8001510 <SystemInit+0xe8>)
 80014d4:	f240 6103 	movw	r1, #1539	@ 0x603
 80014d8:	6011      	str	r1, [r2, #0]
 80014da:	6899      	ldr	r1, [r3, #8]
 80014dc:	f021 0103 	bic.w	r1, r1, #3
 80014e0:	6099      	str	r1, [r3, #8]
 80014e2:	6899      	ldr	r1, [r3, #8]
 80014e4:	f041 0102 	orr.w	r1, r1, #2
 80014e8:	f5a2 6280 	sub.w	r2, r2, #1024	@ 0x400
 80014ec:	6099      	str	r1, [r3, #8]
 80014ee:	6893      	ldr	r3, [r2, #8]
 80014f0:	f003 030c 	and.w	r3, r3, #12
 80014f4:	2b08      	cmp	r3, #8
 80014f6:	d1fa      	bne.n	80014ee <SystemInit+0xc6>
 80014f8:	e7ca      	b.n	8001490 <SystemInit+0x68>
 80014fa:	bf00      	nop
 80014fc:	40023800 	.word	0x40023800
 8001500:	24003010 	.word	0x24003010
 8001504:	e000ed00 	.word	0xe000ed00
 8001508:	40007000 	.word	0x40007000
 800150c:	08416019 	.word	0x08416019
 8001510:	40023c00 	.word	0x40023c00

08001514 <SystemCoreClockUpdate>:
 8001514:	4a16      	ldr	r2, [pc, #88]	@ (8001570 <SystemCoreClockUpdate+0x5c>)
 8001516:	6893      	ldr	r3, [r2, #8]
 8001518:	f003 030c 	and.w	r3, r3, #12
 800151c:	2b04      	cmp	r3, #4
 800151e:	d00c      	beq.n	800153a <SystemCoreClockUpdate+0x26>
 8001520:	2b08      	cmp	r3, #8
 8001522:	d00c      	beq.n	800153e <SystemCoreClockUpdate+0x2a>
 8001524:	4b13      	ldr	r3, [pc, #76]	@ (8001574 <SystemCoreClockUpdate+0x60>)
 8001526:	4a12      	ldr	r2, [pc, #72]	@ (8001570 <SystemCoreClockUpdate+0x5c>)
 8001528:	4813      	ldr	r0, [pc, #76]	@ (8001578 <SystemCoreClockUpdate+0x64>)
 800152a:	6892      	ldr	r2, [r2, #8]
 800152c:	4913      	ldr	r1, [pc, #76]	@ (800157c <SystemCoreClockUpdate+0x68>)
 800152e:	f3c2 1203 	ubfx	r2, r2, #4, #4
 8001532:	5c82      	ldrb	r2, [r0, r2]
 8001534:	40d3      	lsrs	r3, r2
 8001536:	600b      	str	r3, [r1, #0]
 8001538:	4770      	bx	lr
 800153a:	4b11      	ldr	r3, [pc, #68]	@ (8001580 <SystemCoreClockUpdate+0x6c>)
 800153c:	e7f3      	b.n	8001526 <SystemCoreClockUpdate+0x12>
 800153e:	6853      	ldr	r3, [r2, #4]
 8001540:	6851      	ldr	r1, [r2, #4]
 8001542:	f413 0f80 	tst.w	r3, #4194304	@ 0x400000
 8001546:	6853      	ldr	r3, [r2, #4]
 8001548:	bf14      	ite	ne
 800154a:	4a0d      	ldrne	r2, [pc, #52]	@ (8001580 <SystemCoreClockUpdate+0x6c>)
 800154c:	4a09      	ldreq	r2, [pc, #36]	@ (8001574 <SystemCoreClockUpdate+0x60>)
 800154e:	f3c3 1388 	ubfx	r3, r3, #6, #9
 8001552:	f001 013f 	and.w	r1, r1, #63	@ 0x3f
 8001556:	fbb2 f2f1 	udiv	r2, r2, r1
 800155a:	fb02 f303 	mul.w	r3, r2, r3
 800155e:	4a04      	ldr	r2, [pc, #16]	@ (8001570 <SystemCoreClockUpdate+0x5c>)
 8001560:	6852      	ldr	r2, [r2, #4]
 8001562:	f3c2 4201 	ubfx	r2, r2, #16, #2
 8001566:	3201      	adds	r2, #1
 8001568:	0052      	lsls	r2, r2, #1
 800156a:	fbb3 f3f2 	udiv	r3, r3, r2
 800156e:	e7da      	b.n	8001526 <SystemCoreClockUpdate+0x12>
 8001570:	40023800 	.word	0x40023800
 8001574:	00f42400 	.word	0x00f42400
 8001578:	20000054 	.word	0x20000054
 800157c:	20000064 	.word	0x20000064
 8001580:	017d7840 	.word	0x017d7840

08001584 <krnl_noop_rtsched>:
 8001584:	f04f 30ff 	mov.w	r0, #4294967295	@ 0xffffffff
 8001588:	4770      	bx	lr
 800158a:	bf00      	nop

0800158c <krnl_panic>:
 800158c:	b510      	push	{r4, lr}
 800158e:	4604      	mov	r4, r0
 8001590:	f7ff f94c 	bl	800082c <_di>
 8001594:	4621      	mov	r1, r4
 8001596:	480a      	ldr	r0, [pc, #40]	@ (80015c0 <krnl_panic+0x34>)
 8001598:	f7ff face 	bl	8000b38 <ucx_printf>
 800159c:	4b09      	ldr	r3, [pc, #36]	@ (80015c4 <krnl_panic+0x38>)
 800159e:	490a      	ldr	r1, [pc, #40]	@ (80015c8 <krnl_panic+0x3c>)
 80015a0:	681a      	ldr	r2, [r3, #0]
 80015a2:	6813      	ldr	r3, [r2, #0]
 80015a4:	428b      	cmp	r3, r1
 80015a6:	d104      	bne.n	80015b2 <krnl_panic+0x26>
 80015a8:	e005      	b.n	80015b6 <krnl_panic+0x2a>
 80015aa:	f852 3f08 	ldr.w	r3, [r2, #8]!
 80015ae:	428b      	cmp	r3, r1
 80015b0:	d001      	beq.n	80015b6 <krnl_panic+0x2a>
 80015b2:	429c      	cmp	r4, r3
 80015b4:	d1f9      	bne.n	80015aa <krnl_panic+0x1e>
 80015b6:	6851      	ldr	r1, [r2, #4]
 80015b8:	4804      	ldr	r0, [pc, #16]	@ (80015cc <krnl_panic+0x40>)
 80015ba:	f7ff fabd 	bl	8000b38 <ucx_printf>
 80015be:	e7fe      	b.n	80015be <krnl_panic+0x32>
 80015c0:	08004ae0 	.word	0x08004ae0
 80015c4:	200001f0 	.word	0x200001f0
 80015c8:	ffffc011 	.word	0xffffc011
 80015cc:	08004af0 	.word	0x08004af0

080015d0 <krnl_schedule>:
 80015d0:	b530      	push	{r4, r5, lr}
 80015d2:	4d1a      	ldr	r5, [pc, #104]	@ (800163c <krnl_schedule+0x6c>)
 80015d4:	682b      	ldr	r3, [r5, #0]
 80015d6:	6859      	ldr	r1, [r3, #4]
 80015d8:	684a      	ldr	r2, [r1, #4]
 80015da:	f892 0066 	ldrb.w	r0, [r2, #102]	@ 0x66
 80015de:	2802      	cmp	r0, #2
 80015e0:	bf04      	itt	eq
 80015e2:	2001      	moveq	r0, #1
 80015e4:	f882 0066 	strbeq.w	r0, [r2, #102]	@ 0x66
 80015e8:	f242 7412 	movw	r4, #10002	@ 0x2712
 80015ec:	e000      	b.n	80015f0 <krnl_schedule+0x20>
 80015ee:	682b      	ldr	r3, [r5, #0]
 80015f0:	6818      	ldr	r0, [r3, #0]
 80015f2:	f7ff faef 	bl	8000bd4 <list_cnext>
 80015f6:	3c01      	subs	r4, #1
 80015f8:	6843      	ldr	r3, [r0, #4]
 80015fa:	4601      	mov	r1, r0
 80015fc:	d01b      	beq.n	8001636 <krnl_schedule+0x66>
 80015fe:	f893 2066 	ldrb.w	r2, [r3, #102]	@ 0x66
 8001602:	2a01      	cmp	r2, #1
 8001604:	d1f3      	bne.n	80015ee <krnl_schedule+0x1e>
 8001606:	6dda      	ldr	r2, [r3, #92]	@ 0x5c
 8001608:	2a00      	cmp	r2, #0
 800160a:	d1f0      	bne.n	80015ee <krnl_schedule+0x1e>
 800160c:	f8b3 2064 	ldrh.w	r2, [r3, #100]	@ 0x64
 8001610:	3a01      	subs	r2, #1
 8001612:	b292      	uxth	r2, r2
 8001614:	b2d0      	uxtb	r0, r2
 8001616:	f8a3 2064 	strh.w	r2, [r3, #100]	@ 0x64
 800161a:	2800      	cmp	r0, #0
 800161c:	d1e7      	bne.n	80015ee <krnl_schedule+0x1e>
 800161e:	6828      	ldr	r0, [r5, #0]
 8001620:	2402      	movs	r4, #2
 8001622:	6041      	str	r1, [r0, #4]
 8001624:	ea42 2212 	orr.w	r2, r2, r2, lsr #8
 8001628:	f883 4066 	strb.w	r4, [r3, #102]	@ 0x66
 800162c:	f8b3 0060 	ldrh.w	r0, [r3, #96]	@ 0x60
 8001630:	f8a3 2064 	strh.w	r2, [r3, #100]	@ 0x64
 8001634:	bd30      	pop	{r4, r5, pc}
 8001636:	4802      	ldr	r0, [pc, #8]	@ (8001640 <krnl_schedule+0x70>)
 8001638:	f7ff ffa8 	bl	800158c <krnl_panic>
 800163c:	20000068 	.word	0x20000068
 8001640:	ffffc001 	.word	0xffffc001

08001644 <krnl_dispatcher>:
 8001644:	4b03      	ldr	r3, [pc, #12]	@ (8001654 <krnl_dispatcher+0x10>)
 8001646:	681a      	ldr	r2, [r3, #0]
 8001648:	6e13      	ldr	r3, [r2, #96]	@ 0x60
 800164a:	3301      	adds	r3, #1
 800164c:	6613      	str	r3, [r2, #96]	@ 0x60
 800164e:	f7ff b815 	b.w	800067c <_dispatch>
 8001652:	bf00      	nop
 8001654:	20000068 	.word	0x20000068

08001658 <ucx_task_spawn>:
 8001658:	b5f0      	push	{r4, r5, r6, r7, lr}
 800165a:	4606      	mov	r6, r0
 800165c:	b081      	sub	sp, #4
 800165e:	2068      	movs	r0, #104	@ 0x68
 8001660:	b28d      	uxth	r5, r1
 8001662:	f7ff fb57 	bl	8000d14 <ucx_malloc>
 8001666:	4604      	mov	r4, r0
 8001668:	2800      	cmp	r0, #0
 800166a:	d05c      	beq.n	8001726 <ucx_task_spawn+0xce>
 800166c:	4f31      	ldr	r7, [pc, #196]	@ (8001734 <ucx_task_spawn+0xdc>)
 800166e:	683b      	ldr	r3, [r7, #0]
 8001670:	f893 2066 	ldrb.w	r2, [r3, #102]	@ 0x66
 8001674:	2a79      	cmp	r2, #121	@ 0x79
 8001676:	d04e      	beq.n	8001716 <ucx_task_spawn+0xbe>
 8001678:	6818      	ldr	r0, [r3, #0]
 800167a:	4621      	mov	r1, r4
 800167c:	f7ff fa96 	bl	8000bac <list_pushback>
 8001680:	2800      	cmp	r0, #0
 8001682:	d050      	beq.n	8001726 <ucx_task_spawn+0xce>
 8001684:	6839      	ldr	r1, [r7, #0]
 8001686:	6044      	str	r4, [r0, #4]
 8001688:	f8b1 2064 	ldrh.w	r2, [r1, #100]	@ 0x64
 800168c:	6026      	str	r6, [r4, #0]
 800168e:	2300      	movs	r3, #0
 8001690:	f641 7c1f 	movw	ip, #7967	@ 0x1f1f
 8001694:	f102 0e01 	add.w	lr, r2, #1
 8001698:	65e3      	str	r3, [r4, #92]	@ 0x5c
 800169a:	f8a4 3062 	strh.w	r3, [r4, #98]	@ 0x62
 800169e:	65a5      	str	r5, [r4, #88]	@ 0x58
 80016a0:	4628      	mov	r0, r5
 80016a2:	f8a1 e064 	strh.w	lr, [r1, #100]	@ 0x64
 80016a6:	f8a4 2060 	strh.w	r2, [r4, #96]	@ 0x60
 80016aa:	f884 3066 	strb.w	r3, [r4, #102]	@ 0x66
 80016ae:	f8a4 c064 	strh.w	ip, [r4, #100]	@ 0x64
 80016b2:	f7ff fb2f 	bl	8000d14 <ucx_malloc>
 80016b6:	6560      	str	r0, [r4, #84]	@ 0x54
 80016b8:	2800      	cmp	r0, #0
 80016ba:	d037      	beq.n	800172c <ucx_task_spawn+0xd4>
 80016bc:	683b      	ldr	r3, [r7, #0]
 80016be:	f893 3066 	ldrb.w	r3, [r3, #102]	@ 0x66
 80016c2:	2b79      	cmp	r3, #121	@ 0x79
 80016c4:	d02b      	beq.n	800171e <ucx_task_spawn+0xc6>
 80016c6:	462a      	mov	r2, r5
 80016c8:	2169      	movs	r1, #105	@ 0x69
 80016ca:	f7ff fa2b 	bl	8000b24 <ucx_memset>
 80016ce:	6d60      	ldr	r0, [r4, #84]	@ 0x54
 80016d0:	2204      	movs	r2, #4
 80016d2:	2133      	movs	r1, #51	@ 0x33
 80016d4:	f7ff fa26 	bl	8000b24 <ucx_memset>
 80016d8:	6d60      	ldr	r0, [r4, #84]	@ 0x54
 80016da:	f105 4380 	add.w	r3, r5, #1073741824	@ 0x40000000
 80016de:	3b04      	subs	r3, #4
 80016e0:	eb00 0083 	add.w	r0, r0, r3, lsl #2
 80016e4:	2133      	movs	r1, #51	@ 0x33
 80016e6:	2204      	movs	r2, #4
 80016e8:	f7ff fa1c 	bl	8000b24 <ucx_memset>
 80016ec:	6d61      	ldr	r1, [r4, #84]	@ 0x54
 80016ee:	4633      	mov	r3, r6
 80016f0:	462a      	mov	r2, r5
 80016f2:	1d20      	adds	r0, r4, #4
 80016f4:	f7ff f8c8 	bl	8000888 <_context_init>
 80016f8:	6da0      	ldr	r0, [r4, #88]	@ 0x58
 80016fa:	6d63      	ldr	r3, [r4, #84]	@ 0x54
 80016fc:	6822      	ldr	r2, [r4, #0]
 80016fe:	f8b4 1060 	ldrh.w	r1, [r4, #96]	@ 0x60
 8001702:	9000      	str	r0, [sp, #0]
 8001704:	480c      	ldr	r0, [pc, #48]	@ (8001738 <ucx_task_spawn+0xe0>)
 8001706:	f7ff fa17 	bl	8000b38 <ucx_printf>
 800170a:	2301      	movs	r3, #1
 800170c:	2000      	movs	r0, #0
 800170e:	f884 3066 	strb.w	r3, [r4, #102]	@ 0x66
 8001712:	b001      	add	sp, #4
 8001714:	bdf0      	pop	{r4, r5, r6, r7, pc}
 8001716:	f7ff f889 	bl	800082c <_di>
 800171a:	683b      	ldr	r3, [r7, #0]
 800171c:	e7ac      	b.n	8001678 <ucx_task_spawn+0x20>
 800171e:	f7ff f887 	bl	8000830 <_ei>
 8001722:	6d60      	ldr	r0, [r4, #84]	@ 0x54
 8001724:	e7cf      	b.n	80016c6 <ucx_task_spawn+0x6e>
 8001726:	4805      	ldr	r0, [pc, #20]	@ (800173c <ucx_task_spawn+0xe4>)
 8001728:	f7ff ff30 	bl	800158c <krnl_panic>
 800172c:	4804      	ldr	r0, [pc, #16]	@ (8001740 <ucx_task_spawn+0xe8>)
 800172e:	f7ff ff2d 	bl	800158c <krnl_panic>
 8001732:	bf00      	nop
 8001734:	20000068 	.word	0x20000068
 8001738:	08004af8 	.word	0x08004af8
 800173c:	ffffc003 	.word	0xffffc003
 8001740:	ffffc004 	.word	0xffffc004

08001744 <USART1_IRQHandler>:
 8001744:	b530      	push	{r4, r5, lr}
 8001746:	4d15      	ldr	r5, [pc, #84]	@ (800179c <USART1_IRQHandler+0x58>)
 8001748:	4c15      	ldr	r4, [pc, #84]	@ (80017a0 <USART1_IRQHandler+0x5c>)
 800174a:	4814      	ldr	r0, [pc, #80]	@ (800179c <USART1_IRQHandler+0x58>)
 800174c:	f240 5125 	movw	r1, #1317	@ 0x525
 8001750:	f002 f994 	bl	8003a7c <USART_GetITStatus>
 8001754:	4603      	mov	r3, r0
 8001756:	4628      	mov	r0, r5
 8001758:	b1fb      	cbz	r3, 800179a <USART1_IRQHandler+0x56>
 800175a:	f002 f969 	bl	8003a30 <USART_ReceiveData>
 800175e:	f8b4 3082 	ldrh.w	r3, [r4, #130]	@ 0x82
 8001762:	f8b4 2080 	ldrh.w	r2, [r4, #128]	@ 0x80
 8001766:	3301      	adds	r3, #1
 8001768:	f003 037f 	and.w	r3, r3, #127	@ 0x7f
 800176c:	b292      	uxth	r2, r2
 800176e:	4293      	cmp	r3, r2
 8001770:	b2c0      	uxtb	r0, r0
 8001772:	d00c      	beq.n	800178e <USART1_IRQHandler+0x4a>
 8001774:	f8b4 2082 	ldrh.w	r2, [r4, #130]	@ 0x82
 8001778:	b292      	uxth	r2, r2
 800177a:	54a0      	strb	r0, [r4, r2]
 800177c:	f8a4 3082 	strh.w	r3, [r4, #130]	@ 0x82
 8001780:	f8b4 3084 	ldrh.w	r3, [r4, #132]	@ 0x84
 8001784:	3301      	adds	r3, #1
 8001786:	b29b      	uxth	r3, r3
 8001788:	f8a4 3084 	strh.w	r3, [r4, #132]	@ 0x84
 800178c:	e7dd      	b.n	800174a <USART1_IRQHandler+0x6>
 800178e:	f8d4 3088 	ldr.w	r3, [r4, #136]	@ 0x88
 8001792:	3301      	adds	r3, #1
 8001794:	f8c4 3088 	str.w	r3, [r4, #136]	@ 0x88
 8001798:	e7d7      	b.n	800174a <USART1_IRQHandler+0x6>
 800179a:	bd30      	pop	{r4, r5, pc}
 800179c:	40011000 	.word	0x40011000
 80017a0:	200002a4 	.word	0x200002a4

080017a4 <USART2_IRQHandler>:
 80017a4:	b530      	push	{r4, r5, lr}
 80017a6:	4d16      	ldr	r5, [pc, #88]	@ (8001800 <USART2_IRQHandler+0x5c>)
 80017a8:	4c16      	ldr	r4, [pc, #88]	@ (8001804 <USART2_IRQHandler+0x60>)
 80017aa:	4815      	ldr	r0, [pc, #84]	@ (8001800 <USART2_IRQHandler+0x5c>)
 80017ac:	f240 5125 	movw	r1, #1317	@ 0x525
 80017b0:	f002 f964 	bl	8003a7c <USART_GetITStatus>
 80017b4:	4603      	mov	r3, r0
 80017b6:	4628      	mov	r0, r5
 80017b8:	b30b      	cbz	r3, 80017fe <USART2_IRQHandler+0x5a>
 80017ba:	f002 f939 	bl	8003a30 <USART_ReceiveData>
 80017be:	f8b4 3112 	ldrh.w	r3, [r4, #274]	@ 0x112
 80017c2:	f8b4 2110 	ldrh.w	r2, [r4, #272]	@ 0x110
 80017c6:	3301      	adds	r3, #1
 80017c8:	f003 037f 	and.w	r3, r3, #127	@ 0x7f
 80017cc:	b292      	uxth	r2, r2
 80017ce:	4293      	cmp	r3, r2
 80017d0:	b2c0      	uxtb	r0, r0
 80017d2:	d00e      	beq.n	80017f2 <USART2_IRQHandler+0x4e>
 80017d4:	f8b4 2112 	ldrh.w	r2, [r4, #274]	@ 0x112
 80017d8:	fa14 f282 	uxtah	r2, r4, r2
 80017dc:	f882 0090 	strb.w	r0, [r2, #144]	@ 0x90
 80017e0:	f8a4 3112 	strh.w	r3, [r4, #274]	@ 0x112
 80017e4:	f8b4 3114 	ldrh.w	r3, [r4, #276]	@ 0x114
 80017e8:	3301      	adds	r3, #1
 80017ea:	b29b      	uxth	r3, r3
 80017ec:	f8a4 3114 	strh.w	r3, [r4, #276]	@ 0x114
 80017f0:	e7db      	b.n	80017aa <USART2_IRQHandler+0x6>
 80017f2:	f8d4 3118 	ldr.w	r3, [r4, #280]	@ 0x118
 80017f6:	3301      	adds	r3, #1
 80017f8:	f8c4 3118 	str.w	r3, [r4, #280]	@ 0x118
 80017fc:	e7d5      	b.n	80017aa <USART2_IRQHandler+0x6>
 80017fe:	bd30      	pop	{r4, r5, pc}
 8001800:	40004400 	.word	0x40004400
 8001804:	200002a4 	.word	0x200002a4

08001808 <USART6_IRQHandler>:
 8001808:	b530      	push	{r4, r5, lr}
 800180a:	4d16      	ldr	r5, [pc, #88]	@ (8001864 <USART6_IRQHandler+0x5c>)
 800180c:	4c16      	ldr	r4, [pc, #88]	@ (8001868 <USART6_IRQHandler+0x60>)
 800180e:	4815      	ldr	r0, [pc, #84]	@ (8001864 <USART6_IRQHandler+0x5c>)
 8001810:	f240 5125 	movw	r1, #1317	@ 0x525
 8001814:	f002 f932 	bl	8003a7c <USART_GetITStatus>
 8001818:	4603      	mov	r3, r0
 800181a:	4628      	mov	r0, r5
 800181c:	b30b      	cbz	r3, 8001862 <USART6_IRQHandler+0x5a>
 800181e:	f002 f907 	bl	8003a30 <USART_ReceiveData>
 8001822:	f8b4 31a2 	ldrh.w	r3, [r4, #418]	@ 0x1a2
 8001826:	f8b4 21a0 	ldrh.w	r2, [r4, #416]	@ 0x1a0
 800182a:	3301      	adds	r3, #1
 800182c:	f003 037f 	and.w	r3, r3, #127	@ 0x7f
 8001830:	b292      	uxth	r2, r2
 8001832:	4293      	cmp	r3, r2
 8001834:	b2c0      	uxtb	r0, r0
 8001836:	d00e      	beq.n	8001856 <USART6_IRQHandler+0x4e>
 8001838:	f8b4 21a2 	ldrh.w	r2, [r4, #418]	@ 0x1a2
 800183c:	fa14 f282 	uxtah	r2, r4, r2
 8001840:	f882 0120 	strb.w	r0, [r2, #288]	@ 0x120
 8001844:	f8a4 31a2 	strh.w	r3, [r4, #418]	@ 0x1a2
 8001848:	f8b4 31a4 	ldrh.w	r3, [r4, #420]	@ 0x1a4
 800184c:	3301      	adds	r3, #1
 800184e:	b29b      	uxth	r3, r3
 8001850:	f8a4 31a4 	strh.w	r3, [r4, #420]	@ 0x1a4
 8001854:	e7db      	b.n	800180e <USART6_IRQHandler+0x6>
 8001856:	f8d4 31a8 	ldr.w	r3, [r4, #424]	@ 0x1a8
 800185a:	3301      	adds	r3, #1
 800185c:	f8c4 31a8 	str.w	r3, [r4, #424]	@ 0x1a8
 8001860:	e7d5      	b.n	800180e <USART6_IRQHandler+0x6>
 8001862:	bd30      	pop	{r4, r5, pc}
 8001864:	40011400 	.word	0x40011400
 8001868:	200002a4 	.word	0x200002a4

0800186c <usart_init>:
 800186c:	b5f0      	push	{r4, r5, r6, r7, lr}
 800186e:	b2c0      	uxtb	r0, r0
 8001870:	b08d      	sub	sp, #52	@ 0x34
 8001872:	460d      	mov	r5, r1
 8001874:	b2d4      	uxtb	r4, r2
 8001876:	2806      	cmp	r0, #6
 8001878:	d805      	bhi.n	8001886 <usart_init+0x1a>
 800187a:	e8df f000 	tbb	[pc, r0]
 800187e:	71a3      	.short	0x71a3
 8001880:	0404043e 	.word	0x0404043e
 8001884:	08          	.byte	0x08
 8001885:	00          	.byte	0x00
 8001886:	f04f 30ff 	mov.w	r0, #4294967295	@ 0xffffffff
 800188a:	b00d      	add	sp, #52	@ 0x34
 800188c:	bdf0      	pop	{r4, r5, r6, r7, pc}
 800188e:	2101      	movs	r1, #1
 8001890:	4608      	mov	r0, r1
 8001892:	f7ff fd41 	bl	8001318 <RCC_AHB1PeriphClockCmd>
 8001896:	2101      	movs	r1, #1
 8001898:	2020      	movs	r0, #32
 800189a:	f7ff fd61 	bl	8001360 <RCC_APB2PeriphClockCmd>
 800189e:	4881      	ldr	r0, [pc, #516]	@ (8001aa4 <usart_init+0x238>)
 80018a0:	2208      	movs	r2, #8
 80018a2:	210b      	movs	r1, #11
 80018a4:	f002 f826 	bl	80038f4 <GPIO_PinAFConfig>
 80018a8:	487e      	ldr	r0, [pc, #504]	@ (8001aa4 <usart_init+0x238>)
 80018aa:	2208      	movs	r2, #8
 80018ac:	210c      	movs	r1, #12
 80018ae:	f002 f821 	bl	80038f4 <GPIO_PinAFConfig>
 80018b2:	2600      	movs	r6, #0
 80018b4:	2302      	movs	r3, #2
 80018b6:	487c      	ldr	r0, [pc, #496]	@ (8001aa8 <usart_init+0x23c>)
 80018b8:	9309      	str	r3, [sp, #36]	@ 0x24
 80018ba:	f44f 52c0 	mov.w	r2, #6144	@ 0x1800
 80018be:	a908      	add	r1, sp, #32
 80018c0:	2701      	movs	r7, #1
 80018c2:	930a      	str	r3, [sp, #40]	@ 0x28
 80018c4:	9208      	str	r2, [sp, #32]
 80018c6:	960b      	str	r6, [sp, #44]	@ 0x2c
 80018c8:	970c      	str	r7, [sp, #48]	@ 0x30
 80018ca:	f001 ffab 	bl	8003824 <GPIO_Init>
 80018ce:	f44f 2340 	mov.w	r3, #786432	@ 0xc0000
 80018d2:	4876      	ldr	r0, [pc, #472]	@ (8001aac <usart_init+0x240>)
 80018d4:	9504      	str	r5, [sp, #16]
 80018d6:	a904      	add	r1, sp, #16
 80018d8:	f8ad 601c 	strh.w	r6, [sp, #28]
 80018dc:	9605      	str	r6, [sp, #20]
 80018de:	9306      	str	r3, [sp, #24]
 80018e0:	f002 f836 	bl	8003950 <USART_Init>
 80018e4:	2c00      	cmp	r4, #0
 80018e6:	f000 80c6 	beq.w	8001a76 <usart_init+0x20a>
 80018ea:	4870      	ldr	r0, [pc, #448]	@ (8001aac <usart_init+0x240>)
 80018ec:	2101      	movs	r1, #1
 80018ee:	f002 f88f 	bl	8003a10 <USART_Cmd>
 80018f2:	4b6f      	ldr	r3, [pc, #444]	@ (8001ab0 <usart_init+0x244>)
 80018f4:	f883 408c 	strb.w	r4, [r3, #140]	@ 0x8c
 80018f8:	e08c      	b.n	8001a14 <usart_init+0x1a8>
 80018fa:	2101      	movs	r1, #1
 80018fc:	4608      	mov	r0, r1
 80018fe:	f7ff fd0b 	bl	8001318 <RCC_AHB1PeriphClockCmd>
 8001902:	2101      	movs	r1, #1
 8001904:	f44f 3000 	mov.w	r0, #131072	@ 0x20000
 8001908:	f7ff fd1e 	bl	8001348 <RCC_APB1PeriphClockCmd>
 800190c:	4865      	ldr	r0, [pc, #404]	@ (8001aa4 <usart_init+0x238>)
 800190e:	2207      	movs	r2, #7
 8001910:	2102      	movs	r1, #2
 8001912:	f001 ffef 	bl	80038f4 <GPIO_PinAFConfig>
 8001916:	4863      	ldr	r0, [pc, #396]	@ (8001aa4 <usart_init+0x238>)
 8001918:	2207      	movs	r2, #7
 800191a:	2103      	movs	r1, #3
 800191c:	f001 ffea 	bl	80038f4 <GPIO_PinAFConfig>
 8001920:	2600      	movs	r6, #0
 8001922:	2302      	movs	r3, #2
 8001924:	485f      	ldr	r0, [pc, #380]	@ (8001aa4 <usart_init+0x238>)
 8001926:	9309      	str	r3, [sp, #36]	@ 0x24
 8001928:	220c      	movs	r2, #12
 800192a:	a908      	add	r1, sp, #32
 800192c:	2701      	movs	r7, #1
 800192e:	930a      	str	r3, [sp, #40]	@ 0x28
 8001930:	9208      	str	r2, [sp, #32]
 8001932:	960b      	str	r6, [sp, #44]	@ 0x2c
 8001934:	970c      	str	r7, [sp, #48]	@ 0x30
 8001936:	f001 ff75 	bl	8003824 <GPIO_Init>
 800193a:	f44f 2340 	mov.w	r3, #786432	@ 0xc0000
 800193e:	485d      	ldr	r0, [pc, #372]	@ (8001ab4 <usart_init+0x248>)
 8001940:	9504      	str	r5, [sp, #16]
 8001942:	a904      	add	r1, sp, #16
 8001944:	f8ad 601c 	strh.w	r6, [sp, #28]
 8001948:	9605      	str	r6, [sp, #20]
 800194a:	9306      	str	r3, [sp, #24]
 800194c:	f002 f800 	bl	8003950 <USART_Init>
 8001950:	2c00      	cmp	r4, #0
 8001952:	d079      	beq.n	8001a48 <usart_init+0x1dc>
 8001954:	4857      	ldr	r0, [pc, #348]	@ (8001ab4 <usart_init+0x248>)
 8001956:	2101      	movs	r1, #1
 8001958:	f002 f85a 	bl	8003a10 <USART_Cmd>
 800195c:	4b56      	ldr	r3, [pc, #344]	@ (8001ab8 <usart_init+0x24c>)
 800195e:	e7c9      	b.n	80018f4 <usart_init+0x88>
 8001960:	2101      	movs	r1, #1
 8001962:	2002      	movs	r0, #2
 8001964:	f7ff fcd8 	bl	8001318 <RCC_AHB1PeriphClockCmd>
 8001968:	2101      	movs	r1, #1
 800196a:	2010      	movs	r0, #16
 800196c:	f7ff fcf8 	bl	8001360 <RCC_APB2PeriphClockCmd>
 8001970:	4852      	ldr	r0, [pc, #328]	@ (8001abc <usart_init+0x250>)
 8001972:	2207      	movs	r2, #7
 8001974:	2106      	movs	r1, #6
 8001976:	f001 ffbd 	bl	80038f4 <GPIO_PinAFConfig>
 800197a:	2207      	movs	r2, #7
 800197c:	4611      	mov	r1, r2
 800197e:	484f      	ldr	r0, [pc, #316]	@ (8001abc <usart_init+0x250>)
 8001980:	f001 ffb8 	bl	80038f4 <GPIO_PinAFConfig>
 8001984:	2600      	movs	r6, #0
 8001986:	2302      	movs	r3, #2
 8001988:	484c      	ldr	r0, [pc, #304]	@ (8001abc <usart_init+0x250>)
 800198a:	9309      	str	r3, [sp, #36]	@ 0x24
 800198c:	22c0      	movs	r2, #192	@ 0xc0
 800198e:	a908      	add	r1, sp, #32
 8001990:	2701      	movs	r7, #1
 8001992:	930a      	str	r3, [sp, #40]	@ 0x28
 8001994:	9208      	str	r2, [sp, #32]
 8001996:	960b      	str	r6, [sp, #44]	@ 0x2c
 8001998:	970c      	str	r7, [sp, #48]	@ 0x30
 800199a:	f001 ff43 	bl	8003824 <GPIO_Init>
 800199e:	f44f 2340 	mov.w	r3, #786432	@ 0xc0000
 80019a2:	4847      	ldr	r0, [pc, #284]	@ (8001ac0 <usart_init+0x254>)
 80019a4:	9504      	str	r5, [sp, #16]
 80019a6:	a904      	add	r1, sp, #16
 80019a8:	f8ad 601c 	strh.w	r6, [sp, #28]
 80019ac:	9605      	str	r6, [sp, #20]
 80019ae:	9306      	str	r3, [sp, #24]
 80019b0:	f001 ffce 	bl	8003950 <USART_Init>
 80019b4:	2c00      	cmp	r4, #0
 80019b6:	d030      	beq.n	8001a1a <usart_init+0x1ae>
 80019b8:	4841      	ldr	r0, [pc, #260]	@ (8001ac0 <usart_init+0x254>)
 80019ba:	2101      	movs	r1, #1
 80019bc:	f002 f828 	bl	8003a10 <USART_Cmd>
 80019c0:	4b40      	ldr	r3, [pc, #256]	@ (8001ac4 <usart_init+0x258>)
 80019c2:	e797      	b.n	80018f4 <usart_init+0x88>
 80019c4:	2101      	movs	r1, #1
 80019c6:	4608      	mov	r0, r1
 80019c8:	f7ff fca6 	bl	8001318 <RCC_AHB1PeriphClockCmd>
 80019cc:	f44f 4400 	mov.w	r4, #32768	@ 0x8000
 80019d0:	2300      	movs	r3, #0
 80019d2:	4834      	ldr	r0, [pc, #208]	@ (8001aa4 <usart_init+0x238>)
 80019d4:	930b      	str	r3, [sp, #44]	@ 0x2c
 80019d6:	2501      	movs	r5, #1
 80019d8:	a908      	add	r1, sp, #32
 80019da:	930a      	str	r3, [sp, #40]	@ 0x28
 80019dc:	930c      	str	r3, [sp, #48]	@ 0x30
 80019de:	9408      	str	r4, [sp, #32]
 80019e0:	9509      	str	r5, [sp, #36]	@ 0x24
 80019e2:	f001 ff1f 	bl	8003824 <GPIO_Init>
 80019e6:	4621      	mov	r1, r4
 80019e8:	482e      	ldr	r0, [pc, #184]	@ (8001aa4 <usart_init+0x238>)
 80019ea:	f001 ff79 	bl	80038e0 <GPIO_ResetBits>
 80019ee:	2064      	movs	r0, #100	@ 0x64
 80019f0:	f7fe fd3a 	bl	8000468 <_delay_ms>
 80019f4:	4621      	mov	r1, r4
 80019f6:	482b      	ldr	r0, [pc, #172]	@ (8001aa4 <usart_init+0x238>)
 80019f8:	f001 ff6e 	bl	80038d8 <GPIO_SetBits>
 80019fc:	f44f 70fa 	mov.w	r0, #500	@ 0x1f4
 8001a00:	f7fe fd32 	bl	8000468 <_delay_ms>
 8001a04:	4930      	ldr	r1, [pc, #192]	@ (8001ac8 <usart_init+0x25c>)
 8001a06:	9100      	str	r1, [sp, #0]
 8001a08:	4b30      	ldr	r3, [pc, #192]	@ (8001acc <usart_init+0x260>)
 8001a0a:	4a31      	ldr	r2, [pc, #196]	@ (8001ad0 <usart_init+0x264>)
 8001a0c:	4831      	ldr	r0, [pc, #196]	@ (8001ad4 <usart_init+0x268>)
 8001a0e:	4629      	mov	r1, r5
 8001a10:	f000 fe0a 	bl	8002628 <USBD_Init>
 8001a14:	2000      	movs	r0, #0
 8001a16:	b00d      	add	sp, #52	@ 0x34
 8001a18:	bdf0      	pop	{r4, r5, r6, r7, pc}
 8001a1a:	4829      	ldr	r0, [pc, #164]	@ (8001ac0 <usart_init+0x254>)
 8001a1c:	463a      	mov	r2, r7
 8001a1e:	f240 5125 	movw	r1, #1317	@ 0x525
 8001a22:	f002 f809 	bl	8003a38 <USART_ITConfig>
 8001a26:	2325      	movs	r3, #37	@ 0x25
 8001a28:	a802      	add	r0, sp, #8
 8001a2a:	f8ad 3008 	strh.w	r3, [sp, #8]
 8001a2e:	f88d 400a 	strb.w	r4, [sp, #10]
 8001a32:	9703      	str	r7, [sp, #12]
 8001a34:	f001 fe7a 	bl	800372c <NVIC_Init>
 8001a38:	4b22      	ldr	r3, [pc, #136]	@ (8001ac4 <usart_init+0x258>)
 8001a3a:	f8a3 4080 	strh.w	r4, [r3, #128]	@ 0x80
 8001a3e:	f8a3 4082 	strh.w	r4, [r3, #130]	@ 0x82
 8001a42:	f8a3 4084 	strh.w	r4, [r3, #132]	@ 0x84
 8001a46:	e7b7      	b.n	80019b8 <usart_init+0x14c>
 8001a48:	481a      	ldr	r0, [pc, #104]	@ (8001ab4 <usart_init+0x248>)
 8001a4a:	463a      	mov	r2, r7
 8001a4c:	f240 5125 	movw	r1, #1317	@ 0x525
 8001a50:	f001 fff2 	bl	8003a38 <USART_ITConfig>
 8001a54:	2326      	movs	r3, #38	@ 0x26
 8001a56:	a802      	add	r0, sp, #8
 8001a58:	f8ad 3008 	strh.w	r3, [sp, #8]
 8001a5c:	f88d 400a 	strb.w	r4, [sp, #10]
 8001a60:	9703      	str	r7, [sp, #12]
 8001a62:	f001 fe63 	bl	800372c <NVIC_Init>
 8001a66:	4b17      	ldr	r3, [pc, #92]	@ (8001ac4 <usart_init+0x258>)
 8001a68:	f8a3 4110 	strh.w	r4, [r3, #272]	@ 0x110
 8001a6c:	f8a3 4112 	strh.w	r4, [r3, #274]	@ 0x112
 8001a70:	f8a3 4114 	strh.w	r4, [r3, #276]	@ 0x114
 8001a74:	e76e      	b.n	8001954 <usart_init+0xe8>
 8001a76:	480d      	ldr	r0, [pc, #52]	@ (8001aac <usart_init+0x240>)
 8001a78:	463a      	mov	r2, r7
 8001a7a:	f240 5125 	movw	r1, #1317	@ 0x525
 8001a7e:	f001 ffdb 	bl	8003a38 <USART_ITConfig>
 8001a82:	2347      	movs	r3, #71	@ 0x47
 8001a84:	a802      	add	r0, sp, #8
 8001a86:	f8ad 3008 	strh.w	r3, [sp, #8]
 8001a8a:	f88d 400a 	strb.w	r4, [sp, #10]
 8001a8e:	9703      	str	r7, [sp, #12]
 8001a90:	f001 fe4c 	bl	800372c <NVIC_Init>
 8001a94:	4b0b      	ldr	r3, [pc, #44]	@ (8001ac4 <usart_init+0x258>)
 8001a96:	f8a3 41a0 	strh.w	r4, [r3, #416]	@ 0x1a0
 8001a9a:	f8a3 41a2 	strh.w	r4, [r3, #418]	@ 0x1a2
 8001a9e:	f8a3 41a4 	strh.w	r4, [r3, #420]	@ 0x1a4
 8001aa2:	e722      	b.n	80018ea <usart_init+0x7e>
 8001aa4:	40020000 	.word	0x40020000
 8001aa8:	40020800 	.word	0x40020800
 8001aac:	40011400 	.word	0x40011400
 8001ab0:	200003c4 	.word	0x200003c4
 8001ab4:	40004400 	.word	0x40004400
 8001ab8:	20000334 	.word	0x20000334
 8001abc:	40020400 	.word	0x40020400
 8001ac0:	40011000 	.word	0x40011000
 8001ac4:	200002a4 	.word	0x200002a4
 8001ac8:	200001c8 	.word	0x200001c8
 8001acc:	200000d4 	.word	0x200000d4
 8001ad0:	200001ac 	.word	0x200001ac
 8001ad4:	20000454 	.word	0x20000454

08001ad8 <usart_rxsize>:
 8001ad8:	b2c0      	uxtb	r0, r0
 8001ada:	b500      	push	{lr}
 8001adc:	2806      	cmp	r0, #6
 8001ade:	d805      	bhi.n	8001aec <usart_rxsize+0x14>
 8001ae0:	e8df f000 	tbb	[pc, r0]
 8001ae4:	04142228 	.word	0x04142228
 8001ae8:	0404      	.short	0x0404
 8001aea:	07          	.byte	0x07
 8001aeb:	00          	.byte	0x00
 8001aec:	2000      	movs	r0, #0
 8001aee:	f85d fb04 	ldr.w	pc, [sp], #4
 8001af2:	4812      	ldr	r0, [pc, #72]	@ (8001b3c <usart_rxsize+0x64>)
 8001af4:	2120      	movs	r1, #32
 8001af6:	f001 ffb9 	bl	8003a6c <USART_GetFlagStatus>
 8001afa:	4b11      	ldr	r3, [pc, #68]	@ (8001b40 <usart_rxsize+0x68>)
 8001afc:	f893 208c 	ldrb.w	r2, [r3, #140]	@ 0x8c
 8001b00:	b16a      	cbz	r2, 8001b1e <usart_rxsize+0x46>
 8001b02:	3800      	subs	r0, #0
 8001b04:	bf18      	it	ne
 8001b06:	2001      	movne	r0, #1
 8001b08:	f85d fb04 	ldr.w	pc, [sp], #4
 8001b0c:	480d      	ldr	r0, [pc, #52]	@ (8001b44 <usart_rxsize+0x6c>)
 8001b0e:	2120      	movs	r1, #32
 8001b10:	f001 ffac 	bl	8003a6c <USART_GetFlagStatus>
 8001b14:	4b0c      	ldr	r3, [pc, #48]	@ (8001b48 <usart_rxsize+0x70>)
 8001b16:	f893 208c 	ldrb.w	r2, [r3, #140]	@ 0x8c
 8001b1a:	2a00      	cmp	r2, #0
 8001b1c:	d1f1      	bne.n	8001b02 <usart_rxsize+0x2a>
 8001b1e:	f8b3 0084 	ldrh.w	r0, [r3, #132]	@ 0x84
 8001b22:	b280      	uxth	r0, r0
 8001b24:	f85d fb04 	ldr.w	pc, [sp], #4
 8001b28:	4808      	ldr	r0, [pc, #32]	@ (8001b4c <usart_rxsize+0x74>)
 8001b2a:	2120      	movs	r1, #32
 8001b2c:	f001 ff9e 	bl	8003a6c <USART_GetFlagStatus>
 8001b30:	4b07      	ldr	r3, [pc, #28]	@ (8001b50 <usart_rxsize+0x78>)
 8001b32:	e7e3      	b.n	8001afc <usart_rxsize+0x24>
 8001b34:	f000 fafc 	bl	8002130 <VCP_kbhit>
 8001b38:	f85d fb04 	ldr.w	pc, [sp], #4
 8001b3c:	40011400 	.word	0x40011400
 8001b40:	200003c4 	.word	0x200003c4
 8001b44:	40004400 	.word	0x40004400
 8001b48:	20000334 	.word	0x20000334
 8001b4c:	40011000 	.word	0x40011000
 8001b50:	200002a4 	.word	0x200002a4

08001b54 <usart_tx>:
 8001b54:	b2c0      	uxtb	r0, r0
 8001b56:	b510      	push	{r4, lr}
 8001b58:	b2cc      	uxtb	r4, r1
 8001b5a:	2806      	cmp	r0, #6
 8001b5c:	d833      	bhi.n	8001bc6 <usart_tx+0x72>
 8001b5e:	e8df f000 	tbb	[pc, r0]
 8001b62:	0428      	.short	0x0428
 8001b64:	3232321c 	.word	0x3232321c
 8001b68:	10          	.byte	0x10
 8001b69:	00          	.byte	0x00
 8001b6a:	481b      	ldr	r0, [pc, #108]	@ (8001bd8 <usart_tx+0x84>)
 8001b6c:	2180      	movs	r1, #128	@ 0x80
 8001b6e:	f001 ff7d 	bl	8003a6c <USART_GetFlagStatus>
 8001b72:	2800      	cmp	r0, #0
 8001b74:	d0f9      	beq.n	8001b6a <usart_tx+0x16>
 8001b76:	4621      	mov	r1, r4
 8001b78:	4817      	ldr	r0, [pc, #92]	@ (8001bd8 <usart_tx+0x84>)
 8001b7a:	e8bd 4010 	ldmia.w	sp!, {r4, lr}
 8001b7e:	f001 bf53 	b.w	8003a28 <USART_SendData>
 8001b82:	4816      	ldr	r0, [pc, #88]	@ (8001bdc <usart_tx+0x88>)
 8001b84:	2180      	movs	r1, #128	@ 0x80
 8001b86:	f001 ff71 	bl	8003a6c <USART_GetFlagStatus>
 8001b8a:	2800      	cmp	r0, #0
 8001b8c:	d0f9      	beq.n	8001b82 <usart_tx+0x2e>
 8001b8e:	4621      	mov	r1, r4
 8001b90:	4812      	ldr	r0, [pc, #72]	@ (8001bdc <usart_tx+0x88>)
 8001b92:	e8bd 4010 	ldmia.w	sp!, {r4, lr}
 8001b96:	f001 bf47 	b.w	8003a28 <USART_SendData>
 8001b9a:	4811      	ldr	r0, [pc, #68]	@ (8001be0 <usart_tx+0x8c>)
 8001b9c:	2180      	movs	r1, #128	@ 0x80
 8001b9e:	f001 ff65 	bl	8003a6c <USART_GetFlagStatus>
 8001ba2:	2800      	cmp	r0, #0
 8001ba4:	d0f9      	beq.n	8001b9a <usart_tx+0x46>
 8001ba6:	4621      	mov	r1, r4
 8001ba8:	480d      	ldr	r0, [pc, #52]	@ (8001be0 <usart_tx+0x8c>)
 8001baa:	e8bd 4010 	ldmia.w	sp!, {r4, lr}
 8001bae:	f001 bf3b 	b.w	8003a28 <USART_SendData>
 8001bb2:	4620      	mov	r0, r4
 8001bb4:	f000 faaa 	bl	800210c <VCP_putchar>
 8001bb8:	4a0a      	ldr	r2, [pc, #40]	@ (8001be4 <usart_tx+0x90>)
 8001bba:	6813      	ldr	r3, [r2, #0]
 8001bbc:	2b64      	cmp	r3, #100	@ 0x64
 8001bbe:	f103 0101 	add.w	r1, r3, #1
 8001bc2:	d001      	beq.n	8001bc8 <usart_tx+0x74>
 8001bc4:	6011      	str	r1, [r2, #0]
 8001bc6:	bd10      	pop	{r4, pc}
 8001bc8:	2300      	movs	r3, #0
 8001bca:	e8bd 4010 	ldmia.w	sp!, {r4, lr}
 8001bce:	2005      	movs	r0, #5
 8001bd0:	6013      	str	r3, [r2, #0]
 8001bd2:	f7fe bc49 	b.w	8000468 <_delay_ms>
 8001bd6:	bf00      	nop
 8001bd8:	40011000 	.word	0x40011000
 8001bdc:	40011400 	.word	0x40011400
 8001be0:	40004400 	.word	0x40004400
 8001be4:	200002a0 	.word	0x200002a0

08001be8 <usart_rx>:
 8001be8:	b530      	push	{r4, r5, lr}
 8001bea:	b2c0      	uxtb	r0, r0
 8001bec:	b082      	sub	sp, #8
 8001bee:	2806      	cmp	r0, #6
 8001bf0:	d80f      	bhi.n	8001c12 <usart_rx+0x2a>
 8001bf2:	e8df f000 	tbb	[pc, r0]
 8001bf6:	6a04      	.short	0x6a04
 8001bf8:	0e0e0e3e 	.word	0x0e0e0e3e
 8001bfc:	11          	.byte	0x11
 8001bfd:	00          	.byte	0x00
 8001bfe:	f10d 0007 	add.w	r0, sp, #7
 8001c02:	f000 faa1 	bl	8002148 <VCP_getchar>
 8001c06:	2800      	cmp	r0, #0
 8001c08:	d0f9      	beq.n	8001bfe <usart_rx+0x16>
 8001c0a:	f89d 0007 	ldrb.w	r0, [sp, #7]
 8001c0e:	b002      	add	sp, #8
 8001c10:	bd30      	pop	{r4, r5, pc}
 8001c12:	2000      	movs	r0, #0
 8001c14:	b002      	add	sp, #8
 8001c16:	bd30      	pop	{r4, r5, pc}
 8001c18:	4c55      	ldr	r4, [pc, #340]	@ (8001d70 <usart_rx+0x188>)
 8001c1a:	f894 51ac 	ldrb.w	r5, [r4, #428]	@ 0x1ac
 8001c1e:	2d00      	cmp	r5, #0
 8001c20:	f040 8081 	bne.w	8001d26 <usart_rx+0x13e>
 8001c24:	f8b4 21a0 	ldrh.w	r2, [r4, #416]	@ 0x1a0
 8001c28:	f8b4 31a2 	ldrh.w	r3, [r4, #418]	@ 0x1a2
 8001c2c:	b292      	uxth	r2, r2
 8001c2e:	b29b      	uxth	r3, r3
 8001c30:	429a      	cmp	r2, r3
 8001c32:	d0f7      	beq.n	8001c24 <usart_rx+0x3c>
 8001c34:	f7fe fdfa 	bl	800082c <_di>
 8001c38:	f8b4 21a0 	ldrh.w	r2, [r4, #416]	@ 0x1a0
 8001c3c:	f8b4 31a2 	ldrh.w	r3, [r4, #418]	@ 0x1a2
 8001c40:	b292      	uxth	r2, r2
 8001c42:	b29b      	uxth	r3, r3
 8001c44:	429a      	cmp	r2, r3
 8001c46:	d069      	beq.n	8001d1c <usart_rx+0x134>
 8001c48:	f8b4 31a0 	ldrh.w	r3, [r4, #416]	@ 0x1a0
 8001c4c:	fa14 f383 	uxtah	r3, r4, r3
 8001c50:	f893 5120 	ldrb.w	r5, [r3, #288]	@ 0x120
 8001c54:	f8b4 31a0 	ldrh.w	r3, [r4, #416]	@ 0x1a0
 8001c58:	3301      	adds	r3, #1
 8001c5a:	f003 037f 	and.w	r3, r3, #127	@ 0x7f
 8001c5e:	f8a4 31a0 	strh.w	r3, [r4, #416]	@ 0x1a0
 8001c62:	f8b4 31a4 	ldrh.w	r3, [r4, #420]	@ 0x1a4
 8001c66:	3b01      	subs	r3, #1
 8001c68:	b29b      	uxth	r3, r3
 8001c6a:	b2ed      	uxtb	r5, r5
 8001c6c:	f8a4 31a4 	strh.w	r3, [r4, #420]	@ 0x1a4
 8001c70:	e054      	b.n	8001d1c <usart_rx+0x134>
 8001c72:	4c3f      	ldr	r4, [pc, #252]	@ (8001d70 <usart_rx+0x188>)
 8001c74:	f894 511c 	ldrb.w	r5, [r4, #284]	@ 0x11c
 8001c78:	2d00      	cmp	r5, #0
 8001c7a:	d16c      	bne.n	8001d56 <usart_rx+0x16e>
 8001c7c:	f8b4 2110 	ldrh.w	r2, [r4, #272]	@ 0x110
 8001c80:	f8b4 3112 	ldrh.w	r3, [r4, #274]	@ 0x112
 8001c84:	b292      	uxth	r2, r2
 8001c86:	b29b      	uxth	r3, r3
 8001c88:	429a      	cmp	r2, r3
 8001c8a:	d0f7      	beq.n	8001c7c <usart_rx+0x94>
 8001c8c:	f7fe fdce 	bl	800082c <_di>
 8001c90:	f8b4 2110 	ldrh.w	r2, [r4, #272]	@ 0x110
 8001c94:	f8b4 3112 	ldrh.w	r3, [r4, #274]	@ 0x112
 8001c98:	b292      	uxth	r2, r2
 8001c9a:	b29b      	uxth	r3, r3
 8001c9c:	429a      	cmp	r2, r3
 8001c9e:	d03d      	beq.n	8001d1c <usart_rx+0x134>
 8001ca0:	f8b4 3110 	ldrh.w	r3, [r4, #272]	@ 0x110
 8001ca4:	fa14 f383 	uxtah	r3, r4, r3
 8001ca8:	f893 5090 	ldrb.w	r5, [r3, #144]	@ 0x90
 8001cac:	f8b4 3110 	ldrh.w	r3, [r4, #272]	@ 0x110
 8001cb0:	3301      	adds	r3, #1
 8001cb2:	f003 037f 	and.w	r3, r3, #127	@ 0x7f
 8001cb6:	f8a4 3110 	strh.w	r3, [r4, #272]	@ 0x110
 8001cba:	f8b4 3114 	ldrh.w	r3, [r4, #276]	@ 0x114
 8001cbe:	3b01      	subs	r3, #1
 8001cc0:	b29b      	uxth	r3, r3
 8001cc2:	b2ed      	uxtb	r5, r5
 8001cc4:	f8a4 3114 	strh.w	r3, [r4, #276]	@ 0x114
 8001cc8:	e028      	b.n	8001d1c <usart_rx+0x134>
 8001cca:	4c29      	ldr	r4, [pc, #164]	@ (8001d70 <usart_rx+0x188>)
 8001ccc:	f894 508c 	ldrb.w	r5, [r4, #140]	@ 0x8c
 8001cd0:	2d00      	cmp	r5, #0
 8001cd2:	d134      	bne.n	8001d3e <usart_rx+0x156>
 8001cd4:	f8b4 2080 	ldrh.w	r2, [r4, #128]	@ 0x80
 8001cd8:	f8b4 3082 	ldrh.w	r3, [r4, #130]	@ 0x82
 8001cdc:	b292      	uxth	r2, r2
 8001cde:	b29b      	uxth	r3, r3
 8001ce0:	429a      	cmp	r2, r3
 8001ce2:	d0f7      	beq.n	8001cd4 <usart_rx+0xec>
 8001ce4:	f7fe fda2 	bl	800082c <_di>
 8001ce8:	f8b4 2080 	ldrh.w	r2, [r4, #128]	@ 0x80
 8001cec:	f8b4 3082 	ldrh.w	r3, [r4, #130]	@ 0x82
 8001cf0:	b292      	uxth	r2, r2
 8001cf2:	b29b      	uxth	r3, r3
 8001cf4:	429a      	cmp	r2, r3
 8001cf6:	d011      	beq.n	8001d1c <usart_rx+0x134>
 8001cf8:	f8b4 3080 	ldrh.w	r3, [r4, #128]	@ 0x80
 8001cfc:	b29b      	uxth	r3, r3
 8001cfe:	5ce5      	ldrb	r5, [r4, r3]
 8001d00:	f8b4 3080 	ldrh.w	r3, [r4, #128]	@ 0x80
 8001d04:	3301      	adds	r3, #1
 8001d06:	f003 037f 	and.w	r3, r3, #127	@ 0x7f
 8001d0a:	f8a4 3080 	strh.w	r3, [r4, #128]	@ 0x80
 8001d0e:	f8b4 3084 	ldrh.w	r3, [r4, #132]	@ 0x84
 8001d12:	3b01      	subs	r3, #1
 8001d14:	b29b      	uxth	r3, r3
 8001d16:	b2ed      	uxtb	r5, r5
 8001d18:	f8a4 3084 	strh.w	r3, [r4, #132]	@ 0x84
 8001d1c:	f88d 5007 	strb.w	r5, [sp, #7]
 8001d20:	f7fe fd86 	bl	8000830 <_ei>
 8001d24:	e771      	b.n	8001c0a <usart_rx+0x22>
 8001d26:	4c13      	ldr	r4, [pc, #76]	@ (8001d74 <usart_rx+0x18c>)
 8001d28:	2120      	movs	r1, #32
 8001d2a:	4620      	mov	r0, r4
 8001d2c:	f001 fe9e 	bl	8003a6c <USART_GetFlagStatus>
 8001d30:	2800      	cmp	r0, #0
 8001d32:	d0f9      	beq.n	8001d28 <usart_rx+0x140>
 8001d34:	480f      	ldr	r0, [pc, #60]	@ (8001d74 <usart_rx+0x18c>)
 8001d36:	f001 fe7b 	bl	8003a30 <USART_ReceiveData>
 8001d3a:	b2c0      	uxtb	r0, r0
 8001d3c:	e767      	b.n	8001c0e <usart_rx+0x26>
 8001d3e:	4c0e      	ldr	r4, [pc, #56]	@ (8001d78 <usart_rx+0x190>)
 8001d40:	2120      	movs	r1, #32
 8001d42:	4620      	mov	r0, r4
 8001d44:	f001 fe92 	bl	8003a6c <USART_GetFlagStatus>
 8001d48:	2800      	cmp	r0, #0
 8001d4a:	d0f9      	beq.n	8001d40 <usart_rx+0x158>
 8001d4c:	480a      	ldr	r0, [pc, #40]	@ (8001d78 <usart_rx+0x190>)
 8001d4e:	f001 fe6f 	bl	8003a30 <USART_ReceiveData>
 8001d52:	b2c0      	uxtb	r0, r0
 8001d54:	e75b      	b.n	8001c0e <usart_rx+0x26>
 8001d56:	4c09      	ldr	r4, [pc, #36]	@ (8001d7c <usart_rx+0x194>)
 8001d58:	2120      	movs	r1, #32
 8001d5a:	4620      	mov	r0, r4
 8001d5c:	f001 fe86 	bl	8003a6c <USART_GetFlagStatus>
 8001d60:	2800      	cmp	r0, #0
 8001d62:	d0f9      	beq.n	8001d58 <usart_rx+0x170>
 8001d64:	4805      	ldr	r0, [pc, #20]	@ (8001d7c <usart_rx+0x194>)
 8001d66:	f001 fe63 	bl	8003a30 <USART_ReceiveData>
 8001d6a:	b2c0      	uxtb	r0, r0
 8001d6c:	e74f      	b.n	8001c0e <usart_rx+0x26>
 8001d6e:	bf00      	nop
 8001d70:	200002a4 	.word	0x200002a4
 8001d74:	40011400 	.word	0x40011400
 8001d78:	40011000 	.word	0x40011000
 8001d7c:	40004400 	.word	0x40004400

08001d80 <usbd_cdc_EP0_RxReady>:
 8001d80:	b510      	push	{r4, lr}
 8001d82:	4c07      	ldr	r4, [pc, #28]	@ (8001da0 <usbd_cdc_EP0_RxReady+0x20>)
 8001d84:	6820      	ldr	r0, [r4, #0]
 8001d86:	28ff      	cmp	r0, #255	@ 0xff
 8001d88:	d007      	beq.n	8001d9a <usbd_cdc_EP0_RxReady+0x1a>
 8001d8a:	4a06      	ldr	r2, [pc, #24]	@ (8001da4 <usbd_cdc_EP0_RxReady+0x24>)
 8001d8c:	4b06      	ldr	r3, [pc, #24]	@ (8001da8 <usbd_cdc_EP0_RxReady+0x28>)
 8001d8e:	6812      	ldr	r2, [r2, #0]
 8001d90:	689b      	ldr	r3, [r3, #8]
 8001d92:	4906      	ldr	r1, [pc, #24]	@ (8001dac <usbd_cdc_EP0_RxReady+0x2c>)
 8001d94:	4798      	blx	r3
 8001d96:	23ff      	movs	r3, #255	@ 0xff
 8001d98:	6023      	str	r3, [r4, #0]
 8001d9a:	2000      	movs	r0, #0
 8001d9c:	bd10      	pop	{r4, pc}
 8001d9e:	bf00      	nop
 8001da0:	20000100 	.word	0x20000100
 8001da4:	20000a48 	.word	0x20000a48
 8001da8:	20000148 	.word	0x20000148
 8001dac:	20000a5c 	.word	0x20000a5c

08001db0 <USBD_cdc_GetCfgDesc>:
 8001db0:	2343      	movs	r3, #67	@ 0x43
 8001db2:	4801      	ldr	r0, [pc, #4]	@ (8001db8 <USBD_cdc_GetCfgDesc+0x8>)
 8001db4:	800b      	strh	r3, [r1, #0]
 8001db6:	4770      	bx	lr
 8001db8:	20000104 	.word	0x20000104

08001dbc <usbd_cdc_SOF>:
 8001dbc:	4a1f      	ldr	r2, [pc, #124]	@ (8001e3c <usbd_cdc_SOF+0x80>)
 8001dbe:	6813      	ldr	r3, [r2, #0]
 8001dc0:	2b05      	cmp	r3, #5
 8001dc2:	b570      	push	{r4, r5, r6, lr}
 8001dc4:	f103 0101 	add.w	r1, r3, #1
 8001dc8:	d002      	beq.n	8001dd0 <usbd_cdc_SOF+0x14>
 8001dca:	6011      	str	r1, [r2, #0]
 8001dcc:	2000      	movs	r0, #0
 8001dce:	bd70      	pop	{r4, r5, r6, pc}
 8001dd0:	4d1b      	ldr	r5, [pc, #108]	@ (8001e40 <usbd_cdc_SOF+0x84>)
 8001dd2:	7829      	ldrb	r1, [r5, #0]
 8001dd4:	2300      	movs	r3, #0
 8001dd6:	2901      	cmp	r1, #1
 8001dd8:	6013      	str	r3, [r2, #0]
 8001dda:	d0f7      	beq.n	8001dcc <usbd_cdc_SOF+0x10>
 8001ddc:	4e19      	ldr	r6, [pc, #100]	@ (8001e44 <usbd_cdc_SOF+0x88>)
 8001dde:	4a1a      	ldr	r2, [pc, #104]	@ (8001e48 <usbd_cdc_SOF+0x8c>)
 8001de0:	6831      	ldr	r1, [r6, #0]
 8001de2:	6814      	ldr	r4, [r2, #0]
 8001de4:	f5b1 6f00 	cmp.w	r1, #2048	@ 0x800
 8001de8:	d01f      	beq.n	8001e2a <usbd_cdc_SOF+0x6e>
 8001dea:	42a1      	cmp	r1, r4
 8001dec:	d022      	beq.n	8001e34 <usbd_cdc_SOF+0x78>
 8001dee:	4a17      	ldr	r2, [pc, #92]	@ (8001e4c <usbd_cdc_SOF+0x90>)
 8001df0:	bf98      	it	ls
 8001df2:	1a64      	subls	r4, r4, r1
 8001df4:	fa12 f281 	uxtah	r2, r2, r1
 8001df8:	bf88      	it	hi
 8001dfa:	f5c1 6400 	rsbhi	r4, r1, #2048	@ 0x800
 8001dfe:	f8d0 35ec 	ldr.w	r3, [r0, #1516]	@ 0x5ec
 8001e02:	f8b3 3039 	ldrh.w	r3, [r3, #57]	@ 0x39
 8001e06:	42a3      	cmp	r3, r4
 8001e08:	d20b      	bcs.n	8001e22 <usbd_cdc_SOF+0x66>
 8001e0a:	4419      	add	r1, r3
 8001e0c:	1ae4      	subs	r4, r4, r3
 8001e0e:	6031      	str	r1, [r6, #0]
 8001e10:	490f      	ldr	r1, [pc, #60]	@ (8001e50 <usbd_cdc_SOF+0x94>)
 8001e12:	600c      	str	r4, [r1, #0]
 8001e14:	2101      	movs	r1, #1
 8001e16:	7029      	strb	r1, [r5, #0]
 8001e18:	2181      	movs	r1, #129	@ 0x81
 8001e1a:	f000 fa7b 	bl	8002314 <DCD_EP_Tx>
 8001e1e:	2000      	movs	r0, #0
 8001e20:	bd70      	pop	{r4, r5, r6, pc}
 8001e22:	4421      	add	r1, r4
 8001e24:	4623      	mov	r3, r4
 8001e26:	2400      	movs	r4, #0
 8001e28:	e7f1      	b.n	8001e0e <usbd_cdc_SOF+0x52>
 8001e2a:	6033      	str	r3, [r6, #0]
 8001e2c:	b114      	cbz	r4, 8001e34 <usbd_cdc_SOF+0x78>
 8001e2e:	4a07      	ldr	r2, [pc, #28]	@ (8001e4c <usbd_cdc_SOF+0x90>)
 8001e30:	4619      	mov	r1, r3
 8001e32:	e7e4      	b.n	8001dfe <usbd_cdc_SOF+0x42>
 8001e34:	2300      	movs	r3, #0
 8001e36:	702b      	strb	r3, [r5, #0]
 8001e38:	e7c8      	b.n	8001dcc <usbd_cdc_SOF+0x10>
 8001e3a:	bf00      	nop
 8001e3c:	20000a44 	.word	0x20000a44
 8001e40:	20000a4c 	.word	0x20000a4c
 8001e44:	20000a54 	.word	0x20000a54
 8001e48:	20000a58 	.word	0x20000a58
 8001e4c:	20000a64 	.word	0x20000a64
 8001e50:	20000a50 	.word	0x20000a50

08001e54 <usbd_cdc_DataOut>:
 8001e54:	b2c9      	uxtb	r1, r1
 8001e56:	eb01 0181 	add.w	r1, r1, r1, lsl #2
 8001e5a:	b530      	push	{r4, r5, lr}
 8001e5c:	eb00 01c1 	add.w	r1, r0, r1, lsl #3
 8001e60:	4d09      	ldr	r5, [pc, #36]	@ (8001e88 <usbd_cdc_DataOut+0x34>)
 8001e62:	4b0a      	ldr	r3, [pc, #40]	@ (8001e8c <usbd_cdc_DataOut+0x38>)
 8001e64:	f8b1 1388 	ldrh.w	r1, [r1, #904]	@ 0x388
 8001e68:	691b      	ldr	r3, [r3, #16]
 8001e6a:	4604      	mov	r4, r0
 8001e6c:	4628      	mov	r0, r5
 8001e6e:	4798      	blx	r3
 8001e70:	f8d4 35ec 	ldr.w	r3, [r4, #1516]	@ 0x5ec
 8001e74:	462a      	mov	r2, r5
 8001e76:	f8b3 3040 	ldrh.w	r3, [r3, #64]	@ 0x40
 8001e7a:	2101      	movs	r1, #1
 8001e7c:	4620      	mov	r0, r4
 8001e7e:	f000 fa23 	bl	80022c8 <DCD_EP_PrepareRx>
 8001e82:	2000      	movs	r0, #0
 8001e84:	bd30      	pop	{r4, r5, pc}
 8001e86:	bf00      	nop
 8001e88:	20001264 	.word	0x20001264
 8001e8c:	20000148 	.word	0x20000148

08001e90 <usbd_cdc_Setup>:
 8001e90:	b570      	push	{r4, r5, r6, lr}
 8001e92:	780b      	ldrb	r3, [r1, #0]
 8001e94:	f013 0260 	ands.w	r2, r3, #96	@ 0x60
 8001e98:	460c      	mov	r4, r1
 8001e9a:	4605      	mov	r5, r0
 8001e9c:	d011      	beq.n	8001ec2 <usbd_cdc_Setup+0x32>
 8001e9e:	2a20      	cmp	r2, #32
 8001ea0:	d118      	bne.n	8001ed4 <usbd_cdc_Setup+0x44>
 8001ea2:	88ca      	ldrh	r2, [r1, #6]
 8001ea4:	784e      	ldrb	r6, [r1, #1]
 8001ea6:	b1ca      	cbz	r2, 8001edc <usbd_cdc_Setup+0x4c>
 8001ea8:	061b      	lsls	r3, r3, #24
 8001eaa:	d534      	bpl.n	8001f16 <usbd_cdc_Setup+0x86>
 8001eac:	4b1f      	ldr	r3, [pc, #124]	@ (8001f2c <usbd_cdc_Setup+0x9c>)
 8001eae:	4920      	ldr	r1, [pc, #128]	@ (8001f30 <usbd_cdc_Setup+0xa0>)
 8001eb0:	689b      	ldr	r3, [r3, #8]
 8001eb2:	4630      	mov	r0, r6
 8001eb4:	4798      	blx	r3
 8001eb6:	88e2      	ldrh	r2, [r4, #6]
 8001eb8:	491d      	ldr	r1, [pc, #116]	@ (8001f30 <usbd_cdc_Setup+0xa0>)
 8001eba:	4628      	mov	r0, r5
 8001ebc:	f000 fc3c 	bl	8002738 <USBD_CtlSendData>
 8001ec0:	e006      	b.n	8001ed0 <usbd_cdc_Setup+0x40>
 8001ec2:	784b      	ldrb	r3, [r1, #1]
 8001ec4:	2b0a      	cmp	r3, #10
 8001ec6:	d00f      	beq.n	8001ee8 <usbd_cdc_Setup+0x58>
 8001ec8:	2b0b      	cmp	r3, #11
 8001eca:	d01f      	beq.n	8001f0c <usbd_cdc_Setup+0x7c>
 8001ecc:	2b06      	cmp	r3, #6
 8001ece:	d010      	beq.n	8001ef2 <usbd_cdc_Setup+0x62>
 8001ed0:	2000      	movs	r0, #0
 8001ed2:	bd70      	pop	{r4, r5, r6, pc}
 8001ed4:	f000 feae 	bl	8002c34 <USBD_CtlError>
 8001ed8:	2002      	movs	r0, #2
 8001eda:	bd70      	pop	{r4, r5, r6, pc}
 8001edc:	4b13      	ldr	r3, [pc, #76]	@ (8001f2c <usbd_cdc_Setup+0x9c>)
 8001ede:	4611      	mov	r1, r2
 8001ee0:	689b      	ldr	r3, [r3, #8]
 8001ee2:	4630      	mov	r0, r6
 8001ee4:	4798      	blx	r3
 8001ee6:	e7f3      	b.n	8001ed0 <usbd_cdc_Setup+0x40>
 8001ee8:	4912      	ldr	r1, [pc, #72]	@ (8001f34 <usbd_cdc_Setup+0xa4>)
 8001eea:	2201      	movs	r2, #1
 8001eec:	f000 fc24 	bl	8002738 <USBD_CtlSendData>
 8001ef0:	e7ee      	b.n	8001ed0 <usbd_cdc_Setup+0x40>
 8001ef2:	884b      	ldrh	r3, [r1, #2]
 8001ef4:	0a1b      	lsrs	r3, r3, #8
 8001ef6:	2b21      	cmp	r3, #33	@ 0x21
 8001ef8:	d103      	bne.n	8001f02 <usbd_cdc_Setup+0x72>
 8001efa:	88ca      	ldrh	r2, [r1, #6]
 8001efc:	2a3a      	cmp	r2, #58	@ 0x3a
 8001efe:	bf28      	it	cs
 8001f00:	223a      	movcs	r2, #58	@ 0x3a
 8001f02:	490d      	ldr	r1, [pc, #52]	@ (8001f38 <usbd_cdc_Setup+0xa8>)
 8001f04:	4628      	mov	r0, r5
 8001f06:	f000 fc17 	bl	8002738 <USBD_CtlSendData>
 8001f0a:	e7e1      	b.n	8001ed0 <usbd_cdc_Setup+0x40>
 8001f0c:	788b      	ldrb	r3, [r1, #2]
 8001f0e:	b953      	cbnz	r3, 8001f26 <usbd_cdc_Setup+0x96>
 8001f10:	4a08      	ldr	r2, [pc, #32]	@ (8001f34 <usbd_cdc_Setup+0xa4>)
 8001f12:	6013      	str	r3, [r2, #0]
 8001f14:	e7dc      	b.n	8001ed0 <usbd_cdc_Setup+0x40>
 8001f16:	4909      	ldr	r1, [pc, #36]	@ (8001f3c <usbd_cdc_Setup+0xac>)
 8001f18:	4b09      	ldr	r3, [pc, #36]	@ (8001f40 <usbd_cdc_Setup+0xb0>)
 8001f1a:	600e      	str	r6, [r1, #0]
 8001f1c:	4904      	ldr	r1, [pc, #16]	@ (8001f30 <usbd_cdc_Setup+0xa0>)
 8001f1e:	601a      	str	r2, [r3, #0]
 8001f20:	f000 fc24 	bl	800276c <USBD_CtlPrepareRx>
 8001f24:	e7d4      	b.n	8001ed0 <usbd_cdc_Setup+0x40>
 8001f26:	f000 fe85 	bl	8002c34 <USBD_CtlError>
 8001f2a:	e7d1      	b.n	8001ed0 <usbd_cdc_Setup+0x40>
 8001f2c:	20000148 	.word	0x20000148
 8001f30:	20000a5c 	.word	0x20000a5c
 8001f34:	200012a4 	.word	0x200012a4
 8001f38:	20000116 	.word	0x20000116
 8001f3c:	20000100 	.word	0x20000100
 8001f40:	20000a48 	.word	0x20000a48

08001f44 <usbd_cdc_DeInit>:
 8001f44:	b510      	push	{r4, lr}
 8001f46:	2181      	movs	r1, #129	@ 0x81
 8001f48:	4604      	mov	r4, r0
 8001f4a:	f000 f99f 	bl	800228c <DCD_EP_Close>
 8001f4e:	2101      	movs	r1, #1
 8001f50:	4620      	mov	r0, r4
 8001f52:	f000 f99b 	bl	800228c <DCD_EP_Close>
 8001f56:	2182      	movs	r1, #130	@ 0x82
 8001f58:	4620      	mov	r0, r4
 8001f5a:	f000 f997 	bl	800228c <DCD_EP_Close>
 8001f5e:	4b02      	ldr	r3, [pc, #8]	@ (8001f68 <usbd_cdc_DeInit+0x24>)
 8001f60:	685b      	ldr	r3, [r3, #4]
 8001f62:	4798      	blx	r3
 8001f64:	2000      	movs	r0, #0
 8001f66:	bd10      	pop	{r4, pc}
 8001f68:	20000148 	.word	0x20000148

08001f6c <usbd_cdc_Init>:
 8001f6c:	f8d0 25ec 	ldr.w	r2, [r0, #1516]	@ 0x5ec
 8001f70:	b510      	push	{r4, lr}
 8001f72:	4604      	mov	r4, r0
 8001f74:	f8b2 2039 	ldrh.w	r2, [r2, #57]	@ 0x39
 8001f78:	2302      	movs	r3, #2
 8001f7a:	2181      	movs	r1, #129	@ 0x81
 8001f7c:	f000 f94c 	bl	8002218 <DCD_EP_Open>
 8001f80:	f8d4 25ec 	ldr.w	r2, [r4, #1516]	@ 0x5ec
 8001f84:	2302      	movs	r3, #2
 8001f86:	f8b2 2040 	ldrh.w	r2, [r2, #64]	@ 0x40
 8001f8a:	2101      	movs	r1, #1
 8001f8c:	4620      	mov	r0, r4
 8001f8e:	f000 f943 	bl	8002218 <DCD_EP_Open>
 8001f92:	2303      	movs	r3, #3
 8001f94:	2208      	movs	r2, #8
 8001f96:	2182      	movs	r1, #130	@ 0x82
 8001f98:	4620      	mov	r0, r4
 8001f9a:	f000 f93d 	bl	8002218 <DCD_EP_Open>
 8001f9e:	4a08      	ldr	r2, [pc, #32]	@ (8001fc0 <usbd_cdc_Init+0x54>)
 8001fa0:	4b08      	ldr	r3, [pc, #32]	@ (8001fc4 <usbd_cdc_Init+0x58>)
 8001fa2:	2102      	movs	r1, #2
 8001fa4:	8091      	strh	r1, [r2, #4]
 8001fa6:	681b      	ldr	r3, [r3, #0]
 8001fa8:	4798      	blx	r3
 8001faa:	f8d4 35ec 	ldr.w	r3, [r4, #1516]	@ 0x5ec
 8001fae:	4a06      	ldr	r2, [pc, #24]	@ (8001fc8 <usbd_cdc_Init+0x5c>)
 8001fb0:	f8b3 3040 	ldrh.w	r3, [r3, #64]	@ 0x40
 8001fb4:	2101      	movs	r1, #1
 8001fb6:	4620      	mov	r0, r4
 8001fb8:	f000 f986 	bl	80022c8 <DCD_EP_PrepareRx>
 8001fbc:	2000      	movs	r0, #0
 8001fbe:	bd10      	pop	{r4, pc}
 8001fc0:	20000198 	.word	0x20000198
 8001fc4:	20000148 	.word	0x20000148
 8001fc8:	20001264 	.word	0x20001264

08001fcc <usbd_cdc_DataIn>:
 8001fcc:	b570      	push	{r4, r5, r6, lr}
 8001fce:	4b12      	ldr	r3, [pc, #72]	@ (8002018 <usbd_cdc_DataIn+0x4c>)
 8001fd0:	781a      	ldrb	r2, [r3, #0]
 8001fd2:	2a01      	cmp	r2, #1
 8001fd4:	d001      	beq.n	8001fda <usbd_cdc_DataIn+0xe>
 8001fd6:	2000      	movs	r0, #0
 8001fd8:	bd70      	pop	{r4, r5, r6, pc}
 8001fda:	4c10      	ldr	r4, [pc, #64]	@ (800201c <usbd_cdc_DataIn+0x50>)
 8001fdc:	6821      	ldr	r1, [r4, #0]
 8001fde:	b199      	cbz	r1, 8002008 <usbd_cdc_DataIn+0x3c>
 8001fe0:	f8d0 35ec 	ldr.w	r3, [r0, #1516]	@ 0x5ec
 8001fe4:	4d0e      	ldr	r5, [pc, #56]	@ (8002020 <usbd_cdc_DataIn+0x54>)
 8001fe6:	f8b3 3039 	ldrh.w	r3, [r3, #57]	@ 0x39
 8001fea:	682a      	ldr	r2, [r5, #0]
 8001fec:	4299      	cmp	r1, r3
 8001fee:	d90e      	bls.n	800200e <usbd_cdc_DataIn+0x42>
 8001ff0:	1ac9      	subs	r1, r1, r3
 8001ff2:	18d6      	adds	r6, r2, r3
 8001ff4:	6021      	str	r1, [r4, #0]
 8001ff6:	4c0b      	ldr	r4, [pc, #44]	@ (8002024 <usbd_cdc_DataIn+0x58>)
 8001ff8:	602e      	str	r6, [r5, #0]
 8001ffa:	2181      	movs	r1, #129	@ 0x81
 8001ffc:	fa14 f282 	uxtah	r2, r4, r2
 8002000:	f000 f988 	bl	8002314 <DCD_EP_Tx>
 8002004:	2000      	movs	r0, #0
 8002006:	bd70      	pop	{r4, r5, r6, pc}
 8002008:	7019      	strb	r1, [r3, #0]
 800200a:	2000      	movs	r0, #0
 800200c:	bd70      	pop	{r4, r5, r6, pc}
 800200e:	1856      	adds	r6, r2, r1
 8002010:	460b      	mov	r3, r1
 8002012:	2100      	movs	r1, #0
 8002014:	e7ee      	b.n	8001ff4 <usbd_cdc_DataIn+0x28>
 8002016:	bf00      	nop
 8002018:	20000a4c 	.word	0x20000a4c
 800201c:	20000a50 	.word	0x20000a50
 8002020:	20000a54 	.word	0x20000a54
 8002024:	20000a64 	.word	0x20000a64

08002028 <VCP_Init>:
 8002028:	2000      	movs	r0, #0
 800202a:	4770      	bx	lr

0800202c <VCP_Ctrl>:
 800202c:	2820      	cmp	r0, #32
 800202e:	b410      	push	{r4}
 8002030:	d014      	beq.n	800205c <VCP_Ctrl+0x30>
 8002032:	2821      	cmp	r0, #33	@ 0x21
 8002034:	d10f      	bne.n	8002056 <VCP_Ctrl+0x2a>
 8002036:	4b10      	ldr	r3, [pc, #64]	@ (8002078 <VCP_Ctrl+0x4c>)
 8002038:	681a      	ldr	r2, [r3, #0]
 800203a:	700a      	strb	r2, [r1, #0]
 800203c:	681a      	ldr	r2, [r3, #0]
 800203e:	0a12      	lsrs	r2, r2, #8
 8002040:	704a      	strb	r2, [r1, #1]
 8002042:	885a      	ldrh	r2, [r3, #2]
 8002044:	708a      	strb	r2, [r1, #2]
 8002046:	78da      	ldrb	r2, [r3, #3]
 8002048:	70ca      	strb	r2, [r1, #3]
 800204a:	791a      	ldrb	r2, [r3, #4]
 800204c:	710a      	strb	r2, [r1, #4]
 800204e:	795a      	ldrb	r2, [r3, #5]
 8002050:	714a      	strb	r2, [r1, #5]
 8002052:	799b      	ldrb	r3, [r3, #6]
 8002054:	718b      	strb	r3, [r1, #6]
 8002056:	2000      	movs	r0, #0
 8002058:	bc10      	pop	{r4}
 800205a:	4770      	bx	lr
 800205c:	4b06      	ldr	r3, [pc, #24]	@ (8002078 <VCP_Ctrl+0x4c>)
 800205e:	f891 c004 	ldrb.w	ip, [r1, #4]
 8002062:	7948      	ldrb	r0, [r1, #5]
 8002064:	798a      	ldrb	r2, [r1, #6]
 8002066:	680c      	ldr	r4, [r1, #0]
 8002068:	7158      	strb	r0, [r3, #5]
 800206a:	f883 c004 	strb.w	ip, [r3, #4]
 800206e:	719a      	strb	r2, [r3, #6]
 8002070:	601c      	str	r4, [r3, #0]
 8002072:	2000      	movs	r0, #0
 8002074:	bc10      	pop	{r4}
 8002076:	4770      	bx	lr
 8002078:	2000015c 	.word	0x2000015c

0800207c <VCP_DataTx>:
 800207c:	b510      	push	{r4, lr}
 800207e:	b199      	cbz	r1, 80020a8 <VCP_DataTx+0x2c>
 8002080:	eb00 0e01 	add.w	lr, r0, r1
 8002084:	4c09      	ldr	r4, [pc, #36]	@ (80020ac <VCP_DataTx+0x30>)
 8002086:	490a      	ldr	r1, [pc, #40]	@ (80020b0 <VCP_DataTx+0x34>)
 8002088:	3801      	subs	r0, #1
 800208a:	f10e 3eff 	add.w	lr, lr, #4294967295	@ 0xffffffff
 800208e:	680a      	ldr	r2, [r1, #0]
 8002090:	f810 cf01 	ldrb.w	ip, [r0, #1]!
 8002094:	f804 c002 	strb.w	ip, [r4, r2]
 8002098:	1c53      	adds	r3, r2, #1
 800209a:	f5b3 6f00 	cmp.w	r3, #2048	@ 0x800
 800209e:	bf08      	it	eq
 80020a0:	2300      	moveq	r3, #0
 80020a2:	4586      	cmp	lr, r0
 80020a4:	600b      	str	r3, [r1, #0]
 80020a6:	d1f2      	bne.n	800208e <VCP_DataTx+0x12>
 80020a8:	2000      	movs	r0, #0
 80020aa:	bd10      	pop	{r4, pc}
 80020ac:	20000a64 	.word	0x20000a64
 80020b0:	20000a58 	.word	0x20000a58

080020b4 <VCP_DataRx>:
 80020b4:	b570      	push	{r4, r5, r6, lr}
 80020b6:	b1f1      	cbz	r1, 80020f6 <VCP_DataRx+0x42>
 80020b8:	4b10      	ldr	r3, [pc, #64]	@ (80020fc <VCP_DataRx+0x48>)
 80020ba:	4c11      	ldr	r4, [pc, #68]	@ (8002100 <VCP_DataRx+0x4c>)
 80020bc:	681e      	ldr	r6, [r3, #0]
 80020be:	4d11      	ldr	r5, [pc, #68]	@ (8002104 <VCP_DataRx+0x50>)
 80020c0:	6823      	ldr	r3, [r4, #0]
 80020c2:	4401      	add	r1, r0
 80020c4:	f101 3eff 	add.w	lr, r1, #4294967295	@ 0xffffffff
 80020c8:	3801      	subs	r0, #1
 80020ca:	e002      	b.n	80020d2 <VCP_DataRx+0x1e>
 80020cc:	4570      	cmp	r0, lr
 80020ce:	4613      	mov	r3, r2
 80020d0:	d011      	beq.n	80020f6 <VCP_DataRx+0x42>
 80020d2:	2b7f      	cmp	r3, #127	@ 0x7f
 80020d4:	bf08      	it	eq
 80020d6:	2100      	moveq	r1, #0
 80020d8:	f103 0201 	add.w	r2, r3, #1
 80020dc:	bf08      	it	eq
 80020de:	460a      	moveq	r2, r1
 80020e0:	f810 cf01 	ldrb.w	ip, [r0, #1]!
 80020e4:	f805 c003 	strb.w	ip, [r5, r3]
 80020e8:	bf18      	it	ne
 80020ea:	4611      	movne	r1, r2
 80020ec:	4296      	cmp	r6, r2
 80020ee:	6021      	str	r1, [r4, #0]
 80020f0:	d1ec      	bne.n	80020cc <VCP_DataRx+0x18>
 80020f2:	2002      	movs	r0, #2
 80020f4:	bd70      	pop	{r4, r5, r6, pc}
 80020f6:	2000      	movs	r0, #0
 80020f8:	bd70      	pop	{r4, r5, r6, pc}
 80020fa:	bf00      	nop
 80020fc:	200012a8 	.word	0x200012a8
 8002100:	200012ac 	.word	0x200012ac
 8002104:	200012b0 	.word	0x200012b0

08002108 <VCP_DeInit>:
 8002108:	2000      	movs	r0, #0
 800210a:	4770      	bx	lr

0800210c <VCP_putchar>:
 800210c:	4a06      	ldr	r2, [pc, #24]	@ (8002128 <VCP_putchar+0x1c>)
 800210e:	6811      	ldr	r1, [r2, #0]
 8002110:	b410      	push	{r4}
 8002112:	1c4b      	adds	r3, r1, #1
 8002114:	4c05      	ldr	r4, [pc, #20]	@ (800212c <VCP_putchar+0x20>)
 8002116:	f5b3 6f00 	cmp.w	r3, #2048	@ 0x800
 800211a:	5460      	strb	r0, [r4, r1]
 800211c:	bf08      	it	eq
 800211e:	2300      	moveq	r3, #0
 8002120:	bc10      	pop	{r4}
 8002122:	6013      	str	r3, [r2, #0]
 8002124:	4770      	bx	lr
 8002126:	bf00      	nop
 8002128:	20000a58 	.word	0x20000a58
 800212c:	20000a64 	.word	0x20000a64

08002130 <VCP_kbhit>:
 8002130:	4a03      	ldr	r2, [pc, #12]	@ (8002140 <VCP_kbhit+0x10>)
 8002132:	4b04      	ldr	r3, [pc, #16]	@ (8002144 <VCP_kbhit+0x14>)
 8002134:	6810      	ldr	r0, [r2, #0]
 8002136:	681b      	ldr	r3, [r3, #0]
 8002138:	1ac0      	subs	r0, r0, r3
 800213a:	bf18      	it	ne
 800213c:	2001      	movne	r0, #1
 800213e:	4770      	bx	lr
 8002140:	200012ac 	.word	0x200012ac
 8002144:	200012a8 	.word	0x200012a8

08002148 <VCP_getchar>:
 8002148:	4b0b      	ldr	r3, [pc, #44]	@ (8002178 <VCP_getchar+0x30>)
 800214a:	4a0c      	ldr	r2, [pc, #48]	@ (800217c <VCP_getchar+0x34>)
 800214c:	b410      	push	{r4}
 800214e:	6811      	ldr	r1, [r2, #0]
 8002150:	681c      	ldr	r4, [r3, #0]
 8002152:	428c      	cmp	r4, r1
 8002154:	4603      	mov	r3, r0
 8002156:	d00c      	beq.n	8002172 <VCP_getchar+0x2a>
 8002158:	4c09      	ldr	r4, [pc, #36]	@ (8002180 <VCP_getchar+0x38>)
 800215a:	5c61      	ldrb	r1, [r4, r1]
 800215c:	7019      	strb	r1, [r3, #0]
 800215e:	6811      	ldr	r1, [r2, #0]
 8002160:	bc10      	pop	{r4}
 8002162:	2001      	movs	r0, #1
 8002164:	297f      	cmp	r1, #127	@ 0x7f
 8002166:	eb01 0300 	add.w	r3, r1, r0
 800216a:	bf08      	it	eq
 800216c:	2300      	moveq	r3, #0
 800216e:	6013      	str	r3, [r2, #0]
 8002170:	4770      	bx	lr
 8002172:	2000      	movs	r0, #0
 8002174:	bc10      	pop	{r4}
 8002176:	4770      	bx	lr
 8002178:	200012ac 	.word	0x200012ac
 800217c:	200012a8 	.word	0x200012a8
 8002180:	200012b0 	.word	0x200012b0

08002184 <DCD_Init>:
 8002184:	b5f0      	push	{r4, r5, r6, r7, lr}
 8002186:	4606      	mov	r6, r0
 8002188:	f001 fd5c 	bl	8003c44 <USB_OTG_SelectCore>
 800218c:	7875      	ldrb	r5, [r6, #1]
 800218e:	2001      	movs	r0, #1
 8002190:	f8a6 0112 	strh.w	r0, [r6, #274]	@ 0x112
 8002194:	b36d      	cbz	r5, 80021f2 <DCD_Init+0x6e>
 8002196:	2100      	movs	r1, #0
 8002198:	4633      	mov	r3, r6
 800219a:	4632      	mov	r2, r6
 800219c:	460c      	mov	r4, r1
 800219e:	2740      	movs	r7, #64	@ 0x40
 80021a0:	f882 1118 	strb.w	r1, [r2, #280]	@ 0x118
 80021a4:	f8a2 111e 	strh.w	r1, [r2, #286]	@ 0x11e
 80021a8:	3101      	adds	r1, #1
 80021aa:	42a9      	cmp	r1, r5
 80021ac:	f882 0119 	strb.w	r0, [r2, #281]	@ 0x119
 80021b0:	f882 411b 	strb.w	r4, [r2, #283]	@ 0x11b
 80021b4:	f8c2 7120 	str.w	r7, [r2, #288]	@ 0x120
 80021b8:	f8c2 4124 	str.w	r4, [r2, #292]	@ 0x124
 80021bc:	f8c2 412c 	str.w	r4, [r2, #300]	@ 0x12c
 80021c0:	f102 0228 	add.w	r2, r2, #40	@ 0x28
 80021c4:	d1ec      	bne.n	80021a0 <DCD_Init+0x1c>
 80021c6:	2200      	movs	r2, #0
 80021c8:	4611      	mov	r1, r2
 80021ca:	2040      	movs	r0, #64	@ 0x40
 80021cc:	f883 2370 	strb.w	r2, [r3, #880]	@ 0x370
 80021d0:	f8a3 2376 	strh.w	r2, [r3, #886]	@ 0x376
 80021d4:	3201      	adds	r2, #1
 80021d6:	42aa      	cmp	r2, r5
 80021d8:	f883 1371 	strb.w	r1, [r3, #881]	@ 0x371
 80021dc:	f883 1373 	strb.w	r1, [r3, #883]	@ 0x373
 80021e0:	f8c3 0378 	str.w	r0, [r3, #888]	@ 0x378
 80021e4:	f8c3 137c 	str.w	r1, [r3, #892]	@ 0x37c
 80021e8:	f8c3 1384 	str.w	r1, [r3, #900]	@ 0x384
 80021ec:	f103 0328 	add.w	r3, r3, #40	@ 0x28
 80021f0:	d1ec      	bne.n	80021cc <DCD_Init+0x48>
 80021f2:	4630      	mov	r0, r6
 80021f4:	f001 fe32 	bl	8003e5c <USB_OTG_DisableGlobalInt>
 80021f8:	4630      	mov	r0, r6
 80021fa:	f001 fdb3 	bl	8003d64 <USB_OTG_CoreInit>
 80021fe:	2100      	movs	r1, #0
 8002200:	4630      	mov	r0, r6
 8002202:	f001 fe53 	bl	8003eac <USB_OTG_SetCurrentMode>
 8002206:	4630      	mov	r0, r6
 8002208:	f001 fe90 	bl	8003f2c <USB_OTG_CoreInitDev>
 800220c:	4630      	mov	r0, r6
 800220e:	e8bd 40f0 	ldmia.w	sp!, {r4, r5, r6, r7, lr}
 8002212:	f001 be1b 	b.w	8003e4c <USB_OTG_EnableGlobalInt>
 8002216:	bf00      	nop

08002218 <DCD_EP_Open>:
 8002218:	fa5f fc81 	uxtb.w	ip, r1
 800221c:	0609      	lsls	r1, r1, #24
 800221e:	b500      	push	{lr}
 8002220:	b292      	uxth	r2, r2
 8002222:	b2db      	uxtb	r3, r3
 8002224:	d41a      	bmi.n	800225c <DCD_EP_Open+0x44>
 8002226:	eb0c 0e8c 	add.w	lr, ip, ip, lsl #2
 800222a:	eb00 0ece 	add.w	lr, r0, lr, lsl #3
 800222e:	2128      	movs	r1, #40	@ 0x28
 8002230:	fb01 010c 	mla	r1, r1, ip, r0
 8002234:	f8ce 2378 	str.w	r2, [lr, #888]	@ 0x378
 8002238:	2200      	movs	r2, #0
 800223a:	f501 715c 	add.w	r1, r1, #880	@ 0x370
 800223e:	f88e c370 	strb.w	ip, [lr, #880]	@ 0x370
 8002242:	f88e 3373 	strb.w	r3, [lr, #883]	@ 0x373
 8002246:	f88e 2371 	strb.w	r2, [lr, #881]	@ 0x371
 800224a:	2b02      	cmp	r3, #2
 800224c:	bf04      	itt	eq
 800224e:	2300      	moveq	r3, #0
 8002250:	710b      	strbeq	r3, [r1, #4]
 8002252:	f001 ff23 	bl	800409c <USB_OTG_EPActivate>
 8002256:	2000      	movs	r0, #0
 8002258:	f85d fb04 	ldr.w	pc, [sp], #4
 800225c:	f00c 0c7f 	and.w	ip, ip, #127	@ 0x7f
 8002260:	eb0c 0e8c 	add.w	lr, ip, ip, lsl #2
 8002264:	eb00 0ece 	add.w	lr, r0, lr, lsl #3
 8002268:	2128      	movs	r1, #40	@ 0x28
 800226a:	fb01 010c 	mla	r1, r1, ip, r0
 800226e:	f8ce 2120 	str.w	r2, [lr, #288]	@ 0x120
 8002272:	2201      	movs	r2, #1
 8002274:	f501 718c 	add.w	r1, r1, #280	@ 0x118
 8002278:	f88e c118 	strb.w	ip, [lr, #280]	@ 0x118
 800227c:	f88e 311b 	strb.w	r3, [lr, #283]	@ 0x11b
 8002280:	f8ae c11e 	strh.w	ip, [lr, #286]	@ 0x11e
 8002284:	f88e 2119 	strb.w	r2, [lr, #281]	@ 0x119
 8002288:	e7df      	b.n	800224a <DCD_EP_Open+0x32>
 800228a:	bf00      	nop

0800228c <DCD_EP_Close>:
 800228c:	fa4f fc81 	sxtb.w	ip, r1
 8002290:	f1bc 0f00 	cmp.w	ip, #0
 8002294:	b2cb      	uxtb	r3, r1
 8002296:	f001 027f 	and.w	r2, r1, #127	@ 0x7f
 800229a:	b500      	push	{lr}
 800229c:	f04f 0128 	mov.w	r1, #40	@ 0x28
 80022a0:	bfb5      	itete	lt
 80022a2:	fb01 0102 	mlalt	r1, r1, r2, r0
 80022a6:	fb01 0303 	mlage	r3, r1, r3, r0
 80022aa:	f501 718c 	addlt.w	r1, r1, #280	@ 0x118
 80022ae:	f503 715c 	addge.w	r1, r3, #880	@ 0x370
 80022b2:	ea4f 7cdc 	mov.w	ip, ip, lsr #31
 80022b6:	700a      	strb	r2, [r1, #0]
 80022b8:	f881 c001 	strb.w	ip, [r1, #1]
 80022bc:	f001 ff28 	bl	8004110 <USB_OTG_EPDeactivate>
 80022c0:	2000      	movs	r0, #0
 80022c2:	f85d fb04 	ldr.w	pc, [sp], #4
 80022c6:	bf00      	nop

080022c8 <DCD_EP_PrepareRx>:
 80022c8:	b510      	push	{r4, lr}
 80022ca:	f001 047f 	and.w	r4, r1, #127	@ 0x7f
 80022ce:	eb04 0c84 	add.w	ip, r4, r4, lsl #2
 80022d2:	eb00 0ccc 	add.w	ip, r0, ip, lsl #3
 80022d6:	b29b      	uxth	r3, r3
 80022d8:	f8cc 3384 	str.w	r3, [ip, #900]	@ 0x384
 80022dc:	2300      	movs	r3, #0
 80022de:	f8cc 237c 	str.w	r2, [ip, #892]	@ 0x37c
 80022e2:	f88c 4370 	strb.w	r4, [ip, #880]	@ 0x370
 80022e6:	f8cc 3388 	str.w	r3, [ip, #904]	@ 0x388
 80022ea:	f88c 3371 	strb.w	r3, [ip, #881]	@ 0x371
 80022ee:	78c3      	ldrb	r3, [r0, #3]
 80022f0:	2128      	movs	r1, #40	@ 0x28
 80022f2:	fb01 0104 	mla	r1, r1, r4, r0
 80022f6:	2b01      	cmp	r3, #1
 80022f8:	f501 715c 	add.w	r1, r1, #880	@ 0x370
 80022fc:	bf08      	it	eq
 80022fe:	f8cc 2380 	streq.w	r2, [ip, #896]	@ 0x380
 8002302:	b91c      	cbnz	r4, 800230c <DCD_EP_PrepareRx+0x44>
 8002304:	f001 ffd2 	bl	80042ac <USB_OTG_EP0StartXfer>
 8002308:	2000      	movs	r0, #0
 800230a:	bd10      	pop	{r4, pc}
 800230c:	f001 ff1e 	bl	800414c <USB_OTG_EPStartXfer>
 8002310:	2000      	movs	r0, #0
 8002312:	bd10      	pop	{r4, pc}

08002314 <DCD_EP_Tx>:
 8002314:	b510      	push	{r4, lr}
 8002316:	f001 047f 	and.w	r4, r1, #127	@ 0x7f
 800231a:	eb04 0e84 	add.w	lr, r4, r4, lsl #2
 800231e:	eb00 0ece 	add.w	lr, r0, lr, lsl #3
 8002322:	f8ce 312c 	str.w	r3, [lr, #300]	@ 0x12c
 8002326:	2300      	movs	r3, #0
 8002328:	f8ce 3130 	str.w	r3, [lr, #304]	@ 0x130
 800232c:	2328      	movs	r3, #40	@ 0x28
 800232e:	fb03 0c04 	mla	ip, r3, r4, r0
 8002332:	2301      	movs	r3, #1
 8002334:	f88e 4118 	strb.w	r4, [lr, #280]	@ 0x118
 8002338:	f8ce 2124 	str.w	r2, [lr, #292]	@ 0x124
 800233c:	f8ce 2128 	str.w	r2, [lr, #296]	@ 0x128
 8002340:	f50c 718c 	add.w	r1, ip, #280	@ 0x118
 8002344:	f88e 3119 	strb.w	r3, [lr, #281]	@ 0x119
 8002348:	b91c      	cbnz	r4, 8002352 <DCD_EP_Tx+0x3e>
 800234a:	f001 ffaf 	bl	80042ac <USB_OTG_EP0StartXfer>
 800234e:	2000      	movs	r0, #0
 8002350:	bd10      	pop	{r4, pc}
 8002352:	f001 fefb 	bl	800414c <USB_OTG_EPStartXfer>
 8002356:	2000      	movs	r0, #0
 8002358:	bd10      	pop	{r4, pc}
 800235a:	bf00      	nop

0800235c <DCD_EP_Stall>:
 800235c:	fa4f fc81 	sxtb.w	ip, r1
 8002360:	f1bc 0f00 	cmp.w	ip, #0
 8002364:	b500      	push	{lr}
 8002366:	f001 027f 	and.w	r2, r1, #127	@ 0x7f
 800236a:	b2cb      	uxtb	r3, r1
 800236c:	f04f 0128 	mov.w	r1, #40	@ 0x28
 8002370:	bfb3      	iteet	lt
 8002372:	fb01 0102 	mlalt	r1, r1, r2, r0
 8002376:	fb01 0303 	mlage	r3, r1, r3, r0
 800237a:	f503 715c 	addge.w	r1, r3, #880	@ 0x370
 800237e:	f501 718c 	addlt.w	r1, r1, #280	@ 0x118
 8002382:	ea4f 7cdc 	mov.w	ip, ip, lsr #31
 8002386:	2301      	movs	r3, #1
 8002388:	708b      	strb	r3, [r1, #2]
 800238a:	700a      	strb	r2, [r1, #0]
 800238c:	f881 c001 	strb.w	ip, [r1, #1]
 8002390:	f001 fff0 	bl	8004374 <USB_OTG_EPSetStall>
 8002394:	2000      	movs	r0, #0
 8002396:	f85d fb04 	ldr.w	pc, [sp], #4
 800239a:	bf00      	nop

0800239c <DCD_EP_ClrStall>:
 800239c:	fa4f fc81 	sxtb.w	ip, r1
 80023a0:	f1bc 0f00 	cmp.w	ip, #0
 80023a4:	b510      	push	{r4, lr}
 80023a6:	b2cb      	uxtb	r3, r1
 80023a8:	f001 027f 	and.w	r2, r1, #127	@ 0x7f
 80023ac:	f04f 0128 	mov.w	r1, #40	@ 0x28
 80023b0:	bfb5      	itete	lt
 80023b2:	fb01 0102 	mlalt	r1, r1, r2, r0
 80023b6:	fb01 0303 	mlage	r3, r1, r3, r0
 80023ba:	f501 718c 	addlt.w	r1, r1, #280	@ 0x118
 80023be:	f503 715c 	addge.w	r1, r3, #880	@ 0x370
 80023c2:	2400      	movs	r4, #0
 80023c4:	ea4f 7cdc 	mov.w	ip, ip, lsr #31
 80023c8:	708c      	strb	r4, [r1, #2]
 80023ca:	700a      	strb	r2, [r1, #0]
 80023cc:	f881 c001 	strb.w	ip, [r1, #1]
 80023d0:	f001 fff4 	bl	80043bc <USB_OTG_EPClearStall>
 80023d4:	4620      	mov	r0, r4
 80023d6:	bd10      	pop	{r4, pc}

080023d8 <DCD_EP_SetAddress>:
 80023d8:	6902      	ldr	r2, [r0, #16]
 80023da:	b2c9      	uxtb	r1, r1
 80023dc:	6810      	ldr	r0, [r2, #0]
 80023de:	2300      	movs	r3, #0
 80023e0:	f361 130a 	bfi	r3, r1, #4, #7
 80023e4:	4303      	orrs	r3, r0
 80023e6:	6013      	str	r3, [r2, #0]
 80023e8:	4770      	bx	lr
 80023ea:	bf00      	nop

080023ec <USBD_Resume>:
 80023ec:	b510      	push	{r4, lr}
 80023ee:	f8d0 35e4 	ldr.w	r3, [r0, #1508]	@ 0x5e4
 80023f2:	4604      	mov	r4, r0
 80023f4:	691b      	ldr	r3, [r3, #16]
 80023f6:	4798      	blx	r3
 80023f8:	2303      	movs	r3, #3
 80023fa:	f884 3112 	strb.w	r3, [r4, #274]	@ 0x112
 80023fe:	2000      	movs	r0, #0
 8002400:	bd10      	pop	{r4, pc}
 8002402:	bf00      	nop

08002404 <USBD_Suspend>:
 8002404:	b500      	push	{lr}
 8002406:	f8d0 35e4 	ldr.w	r3, [r0, #1508]	@ 0x5e4
 800240a:	2204      	movs	r2, #4
 800240c:	f880 2112 	strb.w	r2, [r0, #274]	@ 0x112
 8002410:	68db      	ldr	r3, [r3, #12]
 8002412:	4798      	blx	r3
 8002414:	2000      	movs	r0, #0
 8002416:	f85d fb04 	ldr.w	pc, [sp], #4
 800241a:	bf00      	nop

0800241c <USBD_SOF>:
 800241c:	f8d0 35e0 	ldr.w	r3, [r0, #1504]	@ 0x5e0
 8002420:	69db      	ldr	r3, [r3, #28]
 8002422:	b500      	push	{lr}
 8002424:	b103      	cbz	r3, 8002428 <USBD_SOF+0xc>
 8002426:	4798      	blx	r3
 8002428:	2000      	movs	r0, #0
 800242a:	f85d fb04 	ldr.w	pc, [sp], #4
 800242e:	bf00      	nop

08002430 <USBD_IsoINIncomplete>:
 8002430:	b500      	push	{lr}
 8002432:	f8d0 35e0 	ldr.w	r3, [r0, #1504]	@ 0x5e0
 8002436:	6a1b      	ldr	r3, [r3, #32]
 8002438:	4798      	blx	r3
 800243a:	2000      	movs	r0, #0
 800243c:	f85d fb04 	ldr.w	pc, [sp], #4

08002440 <USBD_IsoOUTIncomplete>:
 8002440:	b500      	push	{lr}
 8002442:	f8d0 35e0 	ldr.w	r3, [r0, #1504]	@ 0x5e0
 8002446:	6a5b      	ldr	r3, [r3, #36]	@ 0x24
 8002448:	4798      	blx	r3
 800244a:	2000      	movs	r0, #0
 800244c:	f85d fb04 	ldr.w	pc, [sp], #4

08002450 <USBD_DevConnected>:
 8002450:	b500      	push	{lr}
 8002452:	f8d0 35e4 	ldr.w	r3, [r0, #1508]	@ 0x5e4
 8002456:	695b      	ldr	r3, [r3, #20]
 8002458:	4798      	blx	r3
 800245a:	2000      	movs	r0, #0
 800245c:	f85d fb04 	ldr.w	pc, [sp], #4

08002460 <USBD_DevDisconnected>:
 8002460:	f8d0 35e4 	ldr.w	r3, [r0, #1508]	@ 0x5e4
 8002464:	b510      	push	{r4, lr}
 8002466:	4604      	mov	r4, r0
 8002468:	699b      	ldr	r3, [r3, #24]
 800246a:	4798      	blx	r3
 800246c:	f8d4 35e0 	ldr.w	r3, [r4, #1504]	@ 0x5e0
 8002470:	2100      	movs	r1, #0
 8002472:	685b      	ldr	r3, [r3, #4]
 8002474:	4620      	mov	r0, r4
 8002476:	4798      	blx	r3
 8002478:	2000      	movs	r0, #0
 800247a:	bd10      	pop	{r4, pc}

0800247c <USBD_Reset>:
 800247c:	2300      	movs	r3, #0
 800247e:	b510      	push	{r4, lr}
 8002480:	4619      	mov	r1, r3
 8002482:	4604      	mov	r4, r0
 8002484:	2240      	movs	r2, #64	@ 0x40
 8002486:	f7ff fec7 	bl	8002218 <DCD_EP_Open>
 800248a:	2180      	movs	r1, #128	@ 0x80
 800248c:	2300      	movs	r3, #0
 800248e:	2240      	movs	r2, #64	@ 0x40
 8002490:	4620      	mov	r0, r4
 8002492:	f7ff fec1 	bl	8002218 <DCD_EP_Open>
 8002496:	f8d4 35e4 	ldr.w	r3, [r4, #1508]	@ 0x5e4
 800249a:	78a0      	ldrb	r0, [r4, #2]
 800249c:	2201      	movs	r2, #1
 800249e:	f884 2112 	strb.w	r2, [r4, #274]	@ 0x112
 80024a2:	685b      	ldr	r3, [r3, #4]
 80024a4:	4798      	blx	r3
 80024a6:	2000      	movs	r0, #0
 80024a8:	bd10      	pop	{r4, pc}
 80024aa:	bf00      	nop

080024ac <USBD_SetupStage>:
 80024ac:	b510      	push	{r4, lr}
 80024ae:	b082      	sub	sp, #8
 80024b0:	4669      	mov	r1, sp
 80024b2:	4604      	mov	r4, r0
 80024b4:	f000 fbac 	bl	8002c10 <USBD_ParseSetupRequest>
 80024b8:	f89d 1000 	ldrb.w	r1, [sp]
 80024bc:	f001 031f 	and.w	r3, r1, #31
 80024c0:	2b01      	cmp	r3, #1
 80024c2:	d00a      	beq.n	80024da <USBD_SetupStage+0x2e>
 80024c4:	2b02      	cmp	r3, #2
 80024c6:	d016      	beq.n	80024f6 <USBD_SetupStage+0x4a>
 80024c8:	b173      	cbz	r3, 80024e8 <USBD_SetupStage+0x3c>
 80024ca:	f001 0180 	and.w	r1, r1, #128	@ 0x80
 80024ce:	4620      	mov	r0, r4
 80024d0:	f7ff ff44 	bl	800235c <DCD_EP_Stall>
 80024d4:	2000      	movs	r0, #0
 80024d6:	b002      	add	sp, #8
 80024d8:	bd10      	pop	{r4, pc}
 80024da:	4669      	mov	r1, sp
 80024dc:	4620      	mov	r0, r4
 80024de:	f000 fafb 	bl	8002ad8 <USBD_StdItfReq>
 80024e2:	2000      	movs	r0, #0
 80024e4:	b002      	add	sp, #8
 80024e6:	bd10      	pop	{r4, pc}
 80024e8:	4669      	mov	r1, sp
 80024ea:	4620      	mov	r0, r4
 80024ec:	f000 f978 	bl	80027e0 <USBD_StdDevReq>
 80024f0:	2000      	movs	r0, #0
 80024f2:	b002      	add	sp, #8
 80024f4:	bd10      	pop	{r4, pc}
 80024f6:	4669      	mov	r1, sp
 80024f8:	4620      	mov	r0, r4
 80024fa:	f000 fb17 	bl	8002b2c <USBD_StdEPReq>
 80024fe:	2000      	movs	r0, #0
 8002500:	b002      	add	sp, #8
 8002502:	bd10      	pop	{r4, pc}

08002504 <USBD_DataInStage>:
 8002504:	f011 01ff 	ands.w	r1, r1, #255	@ 0xff
 8002508:	b530      	push	{r4, r5, lr}
 800250a:	4604      	mov	r4, r0
 800250c:	d105      	bne.n	800251a <USBD_DataInStage+0x16>
 800250e:	f890 3111 	ldrb.w	r3, [r0, #273]	@ 0x111
 8002512:	2b02      	cmp	r3, #2
 8002514:	d00d      	beq.n	8002532 <USBD_DataInStage+0x2e>
 8002516:	2000      	movs	r0, #0
 8002518:	bd30      	pop	{r4, r5, pc}
 800251a:	f8d0 35e0 	ldr.w	r3, [r0, #1504]	@ 0x5e0
 800251e:	695b      	ldr	r3, [r3, #20]
 8002520:	2b00      	cmp	r3, #0
 8002522:	d0f8      	beq.n	8002516 <USBD_DataInStage+0x12>
 8002524:	f890 2112 	ldrb.w	r2, [r0, #274]	@ 0x112
 8002528:	2a03      	cmp	r2, #3
 800252a:	d1f4      	bne.n	8002516 <USBD_DataInStage+0x12>
 800252c:	4798      	blx	r3
 800252e:	2000      	movs	r0, #0
 8002530:	bd30      	pop	{r4, r5, pc}
 8002532:	f8d0 2134 	ldr.w	r2, [r0, #308]	@ 0x134
 8002536:	f8d0 3120 	ldr.w	r3, [r0, #288]	@ 0x120
 800253a:	429a      	cmp	r2, r3
 800253c:	d911      	bls.n	8002562 <USBD_DataInStage+0x5e>
 800253e:	78c0      	ldrb	r0, [r0, #3]
 8002540:	f8d4 1124 	ldr.w	r1, [r4, #292]	@ 0x124
 8002544:	2801      	cmp	r0, #1
 8002546:	eba2 0203 	sub.w	r2, r2, r3
 800254a:	bf08      	it	eq
 800254c:	18c9      	addeq	r1, r1, r3
 800254e:	f8c4 2134 	str.w	r2, [r4, #308]	@ 0x134
 8002552:	bf08      	it	eq
 8002554:	f8c4 1124 	streq.w	r1, [r4, #292]	@ 0x124
 8002558:	b292      	uxth	r2, r2
 800255a:	4620      	mov	r0, r4
 800255c:	f000 f8fc 	bl	8002758 <USBD_CtlContinueSendData>
 8002560:	e7d9      	b.n	8002516 <USBD_DataInStage+0x12>
 8002562:	f8d0 2138 	ldr.w	r2, [r0, #312]	@ 0x138
 8002566:	fbb2 f5f3 	udiv	r5, r2, r3
 800256a:	fb03 2515 	mls	r5, r3, r5, r2
 800256e:	b965      	cbnz	r5, 800258a <USBD_DataInStage+0x86>
 8002570:	4293      	cmp	r3, r2
 8002572:	d80a      	bhi.n	800258a <USBD_DataInStage+0x86>
 8002574:	f8d0 313c 	ldr.w	r3, [r0, #316]	@ 0x13c
 8002578:	429a      	cmp	r2, r3
 800257a:	d206      	bcs.n	800258a <USBD_DataInStage+0x86>
 800257c:	462a      	mov	r2, r5
 800257e:	4629      	mov	r1, r5
 8002580:	f000 f8ea 	bl	8002758 <USBD_CtlContinueSendData>
 8002584:	f8c4 513c 	str.w	r5, [r4, #316]	@ 0x13c
 8002588:	e7c5      	b.n	8002516 <USBD_DataInStage+0x12>
 800258a:	f8d4 35e0 	ldr.w	r3, [r4, #1504]	@ 0x5e0
 800258e:	68db      	ldr	r3, [r3, #12]
 8002590:	b11b      	cbz	r3, 800259a <USBD_DataInStage+0x96>
 8002592:	f894 2112 	ldrb.w	r2, [r4, #274]	@ 0x112
 8002596:	2a03      	cmp	r2, #3
 8002598:	d003      	beq.n	80025a2 <USBD_DataInStage+0x9e>
 800259a:	4620      	mov	r0, r4
 800259c:	f000 f910 	bl	80027c0 <USBD_CtlReceiveStatus>
 80025a0:	e7b9      	b.n	8002516 <USBD_DataInStage+0x12>
 80025a2:	4620      	mov	r0, r4
 80025a4:	4798      	blx	r3
 80025a6:	e7f8      	b.n	800259a <USBD_DataInStage+0x96>

080025a8 <USBD_DataOutStage>:
 80025a8:	f011 01ff 	ands.w	r1, r1, #255	@ 0xff
 80025ac:	b510      	push	{r4, lr}
 80025ae:	4604      	mov	r4, r0
 80025b0:	d105      	bne.n	80025be <USBD_DataOutStage+0x16>
 80025b2:	f890 3111 	ldrb.w	r3, [r0, #273]	@ 0x111
 80025b6:	2b03      	cmp	r3, #3
 80025b8:	d00d      	beq.n	80025d6 <USBD_DataOutStage+0x2e>
 80025ba:	2000      	movs	r0, #0
 80025bc:	bd10      	pop	{r4, pc}
 80025be:	f8d0 35e0 	ldr.w	r3, [r0, #1504]	@ 0x5e0
 80025c2:	699b      	ldr	r3, [r3, #24]
 80025c4:	2b00      	cmp	r3, #0
 80025c6:	d0f8      	beq.n	80025ba <USBD_DataOutStage+0x12>
 80025c8:	f890 2112 	ldrb.w	r2, [r0, #274]	@ 0x112
 80025cc:	2a03      	cmp	r2, #3
 80025ce:	d1f4      	bne.n	80025ba <USBD_DataOutStage+0x12>
 80025d0:	4798      	blx	r3
 80025d2:	2000      	movs	r0, #0
 80025d4:	bd10      	pop	{r4, pc}
 80025d6:	f8d0 338c 	ldr.w	r3, [r0, #908]	@ 0x38c
 80025da:	f8d0 2378 	ldr.w	r2, [r0, #888]	@ 0x378
 80025de:	4293      	cmp	r3, r2
 80025e0:	d913      	bls.n	800260a <USBD_DataOutStage+0x62>
 80025e2:	78c0      	ldrb	r0, [r0, #3]
 80025e4:	f8d4 137c 	ldr.w	r1, [r4, #892]	@ 0x37c
 80025e8:	2801      	cmp	r0, #1
 80025ea:	eba3 0302 	sub.w	r3, r3, r2
 80025ee:	bf04      	itt	eq
 80025f0:	1889      	addeq	r1, r1, r2
 80025f2:	f8c4 137c 	streq.w	r1, [r4, #892]	@ 0x37c
 80025f6:	429a      	cmp	r2, r3
 80025f8:	bf28      	it	cs
 80025fa:	461a      	movcs	r2, r3
 80025fc:	f8c4 338c 	str.w	r3, [r4, #908]	@ 0x38c
 8002600:	b292      	uxth	r2, r2
 8002602:	4620      	mov	r0, r4
 8002604:	f000 f8c2 	bl	800278c <USBD_CtlContinueRx>
 8002608:	e7d7      	b.n	80025ba <USBD_DataOutStage+0x12>
 800260a:	f8d0 35e0 	ldr.w	r3, [r0, #1504]	@ 0x5e0
 800260e:	691b      	ldr	r3, [r3, #16]
 8002610:	b11b      	cbz	r3, 800261a <USBD_DataOutStage+0x72>
 8002612:	f890 2112 	ldrb.w	r2, [r0, #274]	@ 0x112
 8002616:	2a03      	cmp	r2, #3
 8002618:	d003      	beq.n	8002622 <USBD_DataOutStage+0x7a>
 800261a:	4620      	mov	r0, r4
 800261c:	f000 f8c0 	bl	80027a0 <USBD_CtlSendStatus>
 8002620:	e7cb      	b.n	80025ba <USBD_DataOutStage+0x12>
 8002622:	4798      	blx	r3
 8002624:	e7f9      	b.n	800261a <USBD_DataOutStage+0x72>
 8002626:	bf00      	nop

08002628 <USBD_Init>:
 8002628:	e92d 41f0 	stmdb	sp!, {r4, r5, r6, r7, r8, lr}
 800262c:	4604      	mov	r4, r0
 800262e:	4615      	mov	r5, r2
 8002630:	461e      	mov	r6, r3
 8002632:	f8dd 8018 	ldr.w	r8, [sp, #24]
 8002636:	460f      	mov	r7, r1
 8002638:	f001 fa42 	bl	8003ac0 <USB_OTG_BSP_Init>
 800263c:	4620      	mov	r0, r4
 800263e:	4639      	mov	r1, r7
 8002640:	f8c4 65e0 	str.w	r6, [r4, #1504]	@ 0x5e0
 8002644:	f8c4 85e4 	str.w	r8, [r4, #1508]	@ 0x5e4
 8002648:	f8c4 55e8 	str.w	r5, [r4, #1512]	@ 0x5e8
 800264c:	f7ff fd9a 	bl	8002184 <DCD_Init>
 8002650:	f8d4 35e4 	ldr.w	r3, [r4, #1508]	@ 0x5e4
 8002654:	681b      	ldr	r3, [r3, #0]
 8002656:	4798      	blx	r3
 8002658:	4620      	mov	r0, r4
 800265a:	e8bd 41f0 	ldmia.w	sp!, {r4, r5, r6, r7, r8, lr}
 800265e:	f001 ba77 	b.w	8003b50 <USB_OTG_BSP_EnableInterrupt>
 8002662:	bf00      	nop

08002664 <USBD_SetCfg>:
 8002664:	f8d0 35e0 	ldr.w	r3, [r0, #1504]	@ 0x5e0
 8002668:	b510      	push	{r4, lr}
 800266a:	4604      	mov	r4, r0
 800266c:	b2c9      	uxtb	r1, r1
 800266e:	681b      	ldr	r3, [r3, #0]
 8002670:	4798      	blx	r3
 8002672:	f8d4 35e4 	ldr.w	r3, [r4, #1508]	@ 0x5e4
 8002676:	689b      	ldr	r3, [r3, #8]
 8002678:	4798      	blx	r3
 800267a:	2000      	movs	r0, #0
 800267c:	bd10      	pop	{r4, pc}
 800267e:	bf00      	nop

08002680 <USBD_ClrCfg>:
 8002680:	b500      	push	{lr}
 8002682:	f8d0 35e0 	ldr.w	r3, [r0, #1504]	@ 0x5e0
 8002686:	b2c9      	uxtb	r1, r1
 8002688:	685b      	ldr	r3, [r3, #4]
 800268a:	4798      	blx	r3
 800268c:	2000      	movs	r0, #0
 800268e:	f85d fb04 	ldr.w	pc, [sp], #4
 8002692:	bf00      	nop

08002694 <USBD_USR_DeviceDescriptor>:
 8002694:	2312      	movs	r3, #18
 8002696:	4801      	ldr	r0, [pc, #4]	@ (800269c <USBD_USR_DeviceDescriptor+0x8>)
 8002698:	800b      	strh	r3, [r1, #0]
 800269a:	4770      	bx	lr
 800269c:	20000198 	.word	0x20000198

080026a0 <USBD_USR_LangIDStrDescriptor>:
 80026a0:	2304      	movs	r3, #4
 80026a2:	4801      	ldr	r0, [pc, #4]	@ (80026a8 <USBD_USR_LangIDStrDescriptor+0x8>)
 80026a4:	800b      	strh	r3, [r1, #0]
 80026a6:	4770      	bx	lr
 80026a8:	20000194 	.word	0x20000194

080026ac <USBD_USR_ProductStrDescriptor>:
 80026ac:	b510      	push	{r4, lr}
 80026ae:	4c04      	ldr	r4, [pc, #16]	@ (80026c0 <USBD_USR_ProductStrDescriptor+0x14>)
 80026b0:	4804      	ldr	r0, [pc, #16]	@ (80026c4 <USBD_USR_ProductStrDescriptor+0x18>)
 80026b2:	460a      	mov	r2, r1
 80026b4:	4621      	mov	r1, r4
 80026b6:	f000 fad7 	bl	8002c68 <USBD_GetString>
 80026ba:	4620      	mov	r0, r4
 80026bc:	bd10      	pop	{r4, pc}
 80026be:	bf00      	nop
 80026c0:	20001334 	.word	0x20001334
 80026c4:	08004b20 	.word	0x08004b20

080026c8 <USBD_USR_ManufacturerStrDescriptor>:
 80026c8:	b510      	push	{r4, lr}
 80026ca:	4c04      	ldr	r4, [pc, #16]	@ (80026dc <USBD_USR_ManufacturerStrDescriptor+0x14>)
 80026cc:	4804      	ldr	r0, [pc, #16]	@ (80026e0 <USBD_USR_ManufacturerStrDescriptor+0x18>)
 80026ce:	460a      	mov	r2, r1
 80026d0:	4621      	mov	r1, r4
 80026d2:	f000 fac9 	bl	8002c68 <USBD_GetString>
 80026d6:	4620      	mov	r0, r4
 80026d8:	bd10      	pop	{r4, pc}
 80026da:	bf00      	nop
 80026dc:	20001334 	.word	0x20001334
 80026e0:	08004b38 	.word	0x08004b38

080026e4 <USBD_USR_SerialStrDescriptor>:
 80026e4:	b510      	push	{r4, lr}
 80026e6:	4c04      	ldr	r4, [pc, #16]	@ (80026f8 <USBD_USR_SerialStrDescriptor+0x14>)
 80026e8:	4804      	ldr	r0, [pc, #16]	@ (80026fc <USBD_USR_SerialStrDescriptor+0x18>)
 80026ea:	460a      	mov	r2, r1
 80026ec:	4621      	mov	r1, r4
 80026ee:	f000 fabb 	bl	8002c68 <USBD_GetString>
 80026f2:	4620      	mov	r0, r4
 80026f4:	bd10      	pop	{r4, pc}
 80026f6:	bf00      	nop
 80026f8:	20001334 	.word	0x20001334
 80026fc:	08004b4c 	.word	0x08004b4c

08002700 <USBD_USR_ConfigStrDescriptor>:
 8002700:	b510      	push	{r4, lr}
 8002702:	4c04      	ldr	r4, [pc, #16]	@ (8002714 <USBD_USR_ConfigStrDescriptor+0x14>)
 8002704:	4804      	ldr	r0, [pc, #16]	@ (8002718 <USBD_USR_ConfigStrDescriptor+0x18>)
 8002706:	460a      	mov	r2, r1
 8002708:	4621      	mov	r1, r4
 800270a:	f000 faad 	bl	8002c68 <USBD_GetString>
 800270e:	4620      	mov	r0, r4
 8002710:	bd10      	pop	{r4, pc}
 8002712:	bf00      	nop
 8002714:	20001334 	.word	0x20001334
 8002718:	08004b5c 	.word	0x08004b5c

0800271c <USBD_USR_InterfaceStrDescriptor>:
 800271c:	b510      	push	{r4, lr}
 800271e:	4c04      	ldr	r4, [pc, #16]	@ (8002730 <USBD_USR_InterfaceStrDescriptor+0x14>)
 8002720:	4804      	ldr	r0, [pc, #16]	@ (8002734 <USBD_USR_InterfaceStrDescriptor+0x18>)
 8002722:	460a      	mov	r2, r1
 8002724:	4621      	mov	r1, r4
 8002726:	f000 fa9f 	bl	8002c68 <USBD_GetString>
 800272a:	4620      	mov	r0, r4
 800272c:	bd10      	pop	{r4, pc}
 800272e:	bf00      	nop
 8002730:	20001334 	.word	0x20001334
 8002734:	08004b68 	.word	0x08004b68

08002738 <USBD_CtlSendData>:
 8002738:	b500      	push	{lr}
 800273a:	b293      	uxth	r3, r2
 800273c:	460a      	mov	r2, r1
 800273e:	2102      	movs	r1, #2
 8002740:	f8c0 3134 	str.w	r3, [r0, #308]	@ 0x134
 8002744:	f8c0 3138 	str.w	r3, [r0, #312]	@ 0x138
 8002748:	f880 1111 	strb.w	r1, [r0, #273]	@ 0x111
 800274c:	2100      	movs	r1, #0
 800274e:	f7ff fde1 	bl	8002314 <DCD_EP_Tx>
 8002752:	2000      	movs	r0, #0
 8002754:	f85d fb04 	ldr.w	pc, [sp], #4

08002758 <USBD_CtlContinueSendData>:
 8002758:	b500      	push	{lr}
 800275a:	b293      	uxth	r3, r2
 800275c:	460a      	mov	r2, r1
 800275e:	2100      	movs	r1, #0
 8002760:	f7ff fdd8 	bl	8002314 <DCD_EP_Tx>
 8002764:	2000      	movs	r0, #0
 8002766:	f85d fb04 	ldr.w	pc, [sp], #4
 800276a:	bf00      	nop

0800276c <USBD_CtlPrepareRx>:
 800276c:	b500      	push	{lr}
 800276e:	b293      	uxth	r3, r2
 8002770:	460a      	mov	r2, r1
 8002772:	2103      	movs	r1, #3
 8002774:	f8c0 338c 	str.w	r3, [r0, #908]	@ 0x38c
 8002778:	f8c0 3390 	str.w	r3, [r0, #912]	@ 0x390
 800277c:	f880 1111 	strb.w	r1, [r0, #273]	@ 0x111
 8002780:	2100      	movs	r1, #0
 8002782:	f7ff fda1 	bl	80022c8 <DCD_EP_PrepareRx>
 8002786:	2000      	movs	r0, #0
 8002788:	f85d fb04 	ldr.w	pc, [sp], #4

0800278c <USBD_CtlContinueRx>:
 800278c:	b500      	push	{lr}
 800278e:	b293      	uxth	r3, r2
 8002790:	460a      	mov	r2, r1
 8002792:	2100      	movs	r1, #0
 8002794:	f7ff fd98 	bl	80022c8 <DCD_EP_PrepareRx>
 8002798:	2000      	movs	r0, #0
 800279a:	f85d fb04 	ldr.w	pc, [sp], #4
 800279e:	bf00      	nop

080027a0 <USBD_CtlSendStatus>:
 80027a0:	b510      	push	{r4, lr}
 80027a2:	2300      	movs	r3, #0
 80027a4:	2104      	movs	r1, #4
 80027a6:	4604      	mov	r4, r0
 80027a8:	461a      	mov	r2, r3
 80027aa:	f880 1111 	strb.w	r1, [r0, #273]	@ 0x111
 80027ae:	4619      	mov	r1, r3
 80027b0:	f7ff fdb0 	bl	8002314 <DCD_EP_Tx>
 80027b4:	4620      	mov	r0, r4
 80027b6:	f001 fe2f 	bl	8004418 <USB_OTG_EP0_OutStart>
 80027ba:	2000      	movs	r0, #0
 80027bc:	bd10      	pop	{r4, pc}
 80027be:	bf00      	nop

080027c0 <USBD_CtlReceiveStatus>:
 80027c0:	b510      	push	{r4, lr}
 80027c2:	2300      	movs	r3, #0
 80027c4:	2105      	movs	r1, #5
 80027c6:	4604      	mov	r4, r0
 80027c8:	461a      	mov	r2, r3
 80027ca:	f880 1111 	strb.w	r1, [r0, #273]	@ 0x111
 80027ce:	4619      	mov	r1, r3
 80027d0:	f7ff fd7a 	bl	80022c8 <DCD_EP_PrepareRx>
 80027d4:	4620      	mov	r0, r4
 80027d6:	f001 fe1f 	bl	8004418 <USB_OTG_EP0_OutStart>
 80027da:	2000      	movs	r0, #0
 80027dc:	bd10      	pop	{r4, pc}
 80027de:	bf00      	nop

080027e0 <USBD_StdDevReq>:
 80027e0:	b570      	push	{r4, r5, r6, lr}
 80027e2:	784b      	ldrb	r3, [r1, #1]
 80027e4:	b082      	sub	sp, #8
 80027e6:	460c      	mov	r4, r1
 80027e8:	4605      	mov	r5, r0
 80027ea:	2b09      	cmp	r3, #9
 80027ec:	d813      	bhi.n	8002816 <USBD_StdDevReq+0x36>
 80027ee:	e8df f003 	tbb	[pc, r3]
 80027f2:	4130      	.short	0x4130
 80027f4:	6f125612 	.word	0x6f125612
 80027f8:	05221287 	.word	0x05221287
 80027fc:	7889      	ldrb	r1, [r1, #2]
 80027fe:	4eb2      	ldr	r6, [pc, #712]	@ (8002ac8 <USBD_StdDevReq+0x2e8>)
 8002800:	2901      	cmp	r1, #1
 8002802:	7031      	strb	r1, [r6, #0]
 8002804:	d807      	bhi.n	8002816 <USBD_StdDevReq+0x36>
 8002806:	f890 3112 	ldrb.w	r3, [r0, #274]	@ 0x112
 800280a:	2b02      	cmp	r3, #2
 800280c:	f000 80b5 	beq.w	800297a <USBD_StdDevReq+0x19a>
 8002810:	2b03      	cmp	r3, #3
 8002812:	f000 8096 	beq.w	8002942 <USBD_StdDevReq+0x162>
 8002816:	f994 3000 	ldrsb.w	r3, [r4]
 800281a:	2b00      	cmp	r3, #0
 800281c:	db01      	blt.n	8002822 <USBD_StdDevReq+0x42>
 800281e:	88e3      	ldrh	r3, [r4, #6]
 8002820:	b993      	cbnz	r3, 8002848 <USBD_StdDevReq+0x68>
 8002822:	2180      	movs	r1, #128	@ 0x80
 8002824:	4628      	mov	r0, r5
 8002826:	f7ff fd99 	bl	800235c <DCD_EP_Stall>
 800282a:	4628      	mov	r0, r5
 800282c:	f001 fdf4 	bl	8004418 <USB_OTG_EP0_OutStart>
 8002830:	2000      	movs	r0, #0
 8002832:	b002      	add	sp, #8
 8002834:	bd70      	pop	{r4, r5, r6, pc}
 8002836:	88ca      	ldrh	r2, [r1, #6]
 8002838:	2a01      	cmp	r2, #1
 800283a:	d077      	beq.n	800292c <USBD_StdDevReq+0x14c>
 800283c:	f991 3000 	ldrsb.w	r3, [r1]
 8002840:	2b00      	cmp	r3, #0
 8002842:	dbee      	blt.n	8002822 <USBD_StdDevReq+0x42>
 8002844:	2a00      	cmp	r2, #0
 8002846:	d0ec      	beq.n	8002822 <USBD_StdDevReq+0x42>
 8002848:	2100      	movs	r1, #0
 800284a:	4628      	mov	r0, r5
 800284c:	f7ff fd86 	bl	800235c <DCD_EP_Stall>
 8002850:	e7eb      	b.n	800282a <USBD_StdDevReq+0x4a>
 8002852:	f890 3112 	ldrb.w	r3, [r0, #274]	@ 0x112
 8002856:	3b02      	subs	r3, #2
 8002858:	2b01      	cmp	r3, #1
 800285a:	d8dc      	bhi.n	8002816 <USBD_StdDevReq+0x36>
 800285c:	f8d0 3114 	ldr.w	r3, [r0, #276]	@ 0x114
 8002860:	499a      	ldr	r1, [pc, #616]	@ (8002acc <USBD_StdDevReq+0x2ec>)
 8002862:	2b00      	cmp	r3, #0
 8002864:	bf0c      	ite	eq
 8002866:	2301      	moveq	r3, #1
 8002868:	2303      	movne	r3, #3
 800286a:	2201      	movs	r2, #1
 800286c:	600b      	str	r3, [r1, #0]
 800286e:	f7ff ff63 	bl	8002738 <USBD_CtlSendData>
 8002872:	e7dd      	b.n	8002830 <USBD_StdDevReq+0x50>
 8002874:	f890 3112 	ldrb.w	r3, [r0, #274]	@ 0x112
 8002878:	3b02      	subs	r3, #2
 800287a:	2b01      	cmp	r3, #1
 800287c:	d8cb      	bhi.n	8002816 <USBD_StdDevReq+0x36>
 800287e:	884b      	ldrh	r3, [r1, #2]
 8002880:	2b01      	cmp	r3, #1
 8002882:	d1d5      	bne.n	8002830 <USBD_StdDevReq+0x50>
 8002884:	f8d0 35e0 	ldr.w	r3, [r0, #1504]	@ 0x5e0
 8002888:	2200      	movs	r2, #0
 800288a:	689b      	ldr	r3, [r3, #8]
 800288c:	f8c0 2114 	str.w	r2, [r0, #276]	@ 0x114
 8002890:	4621      	mov	r1, r4
 8002892:	4628      	mov	r0, r5
 8002894:	4798      	blx	r3
 8002896:	4628      	mov	r0, r5
 8002898:	f7ff ff82 	bl	80027a0 <USBD_CtlSendStatus>
 800289c:	e7c8      	b.n	8002830 <USBD_StdDevReq+0x50>
 800289e:	884b      	ldrh	r3, [r1, #2]
 80028a0:	2b01      	cmp	r3, #1
 80028a2:	f000 8100 	beq.w	8002aa6 <USBD_StdDevReq+0x2c6>
 80028a6:	2b02      	cmp	r3, #2
 80028a8:	d1c2      	bne.n	8002830 <USBD_StdDevReq+0x50>
 80028aa:	888b      	ldrh	r3, [r1, #4]
 80028ac:	b2da      	uxtb	r2, r3
 80028ae:	2a00      	cmp	r2, #0
 80028b0:	d1be      	bne.n	8002830 <USBD_StdDevReq+0x50>
 80028b2:	6901      	ldr	r1, [r0, #16]
 80028b4:	0a1b      	lsrs	r3, r3, #8
 80028b6:	684a      	ldr	r2, [r1, #4]
 80028b8:	3b01      	subs	r3, #1
 80028ba:	4610      	mov	r0, r2
 80028bc:	2b04      	cmp	r3, #4
 80028be:	f200 80d9 	bhi.w	8002a74 <USBD_StdDevReq+0x294>
 80028c2:	e8df f013 	tbh	[pc, r3, lsl #1]
 80028c6:	00e1      	.short	0x00e1
 80028c8:	00d300dc 	.word	0x00d300dc
 80028cc:	00e600eb 	.word	0x00e600eb
 80028d0:	684b      	ldr	r3, [r1, #4]
 80028d2:	2b00      	cmp	r3, #0
 80028d4:	d19f      	bne.n	8002816 <USBD_StdDevReq+0x36>
 80028d6:	f890 3112 	ldrb.w	r3, [r0, #274]	@ 0x112
 80028da:	8849      	ldrh	r1, [r1, #2]
 80028dc:	2b03      	cmp	r3, #3
 80028de:	d09a      	beq.n	8002816 <USBD_StdDevReq+0x36>
 80028e0:	f001 047f 	and.w	r4, r1, #127	@ 0x7f
 80028e4:	f880 4113 	strb.w	r4, [r0, #275]	@ 0x113
 80028e8:	4621      	mov	r1, r4
 80028ea:	f7ff fd75 	bl	80023d8 <DCD_EP_SetAddress>
 80028ee:	4628      	mov	r0, r5
 80028f0:	f7ff ff56 	bl	80027a0 <USBD_CtlSendStatus>
 80028f4:	2c00      	cmp	r4, #0
 80028f6:	d03c      	beq.n	8002972 <USBD_StdDevReq+0x192>
 80028f8:	2302      	movs	r3, #2
 80028fa:	f885 3112 	strb.w	r3, [r5, #274]	@ 0x112
 80028fe:	e797      	b.n	8002830 <USBD_StdDevReq+0x50>
 8002900:	884a      	ldrh	r2, [r1, #2]
 8002902:	0a13      	lsrs	r3, r2, #8
 8002904:	3b01      	subs	r3, #1
 8002906:	2b06      	cmp	r3, #6
 8002908:	d885      	bhi.n	8002816 <USBD_StdDevReq+0x36>
 800290a:	a101      	add	r1, pc, #4	@ (adr r1, 8002910 <USBD_StdDevReq+0x130>)
 800290c:	f851 f023 	ldr.w	pc, [r1, r3, lsl #2]
 8002910:	080029ed 	.word	0x080029ed
 8002914:	080029b1 	.word	0x080029b1
 8002918:	0800299f 	.word	0x0800299f
 800291c:	08002817 	.word	0x08002817
 8002920:	08002817 	.word	0x08002817
 8002924:	08002817 	.word	0x08002817
 8002928:	08002817 	.word	0x08002817
 800292c:	f890 3112 	ldrb.w	r3, [r0, #274]	@ 0x112
 8002930:	2b02      	cmp	r3, #2
 8002932:	d030      	beq.n	8002996 <USBD_StdDevReq+0x1b6>
 8002934:	2b03      	cmp	r3, #3
 8002936:	d017      	beq.n	8002968 <USBD_StdDevReq+0x188>
 8002938:	f991 3000 	ldrsb.w	r3, [r1]
 800293c:	2b00      	cmp	r3, #0
 800293e:	da83      	bge.n	8002848 <USBD_StdDevReq+0x68>
 8002940:	e76f      	b.n	8002822 <USBD_StdDevReq+0x42>
 8002942:	2900      	cmp	r1, #0
 8002944:	f000 80b5 	beq.w	8002ab2 <USBD_StdDevReq+0x2d2>
 8002948:	f890 1110 	ldrb.w	r1, [r0, #272]	@ 0x110
 800294c:	2901      	cmp	r1, #1
 800294e:	d007      	beq.n	8002960 <USBD_StdDevReq+0x180>
 8002950:	f7ff fe96 	bl	8002680 <USBD_ClrCfg>
 8002954:	7831      	ldrb	r1, [r6, #0]
 8002956:	f885 1110 	strb.w	r1, [r5, #272]	@ 0x110
 800295a:	4628      	mov	r0, r5
 800295c:	f7ff fe82 	bl	8002664 <USBD_SetCfg>
 8002960:	4628      	mov	r0, r5
 8002962:	f7ff ff1d 	bl	80027a0 <USBD_CtlSendStatus>
 8002966:	e763      	b.n	8002830 <USBD_StdDevReq+0x50>
 8002968:	f500 7188 	add.w	r1, r0, #272	@ 0x110
 800296c:	f7ff fee4 	bl	8002738 <USBD_CtlSendData>
 8002970:	e75e      	b.n	8002830 <USBD_StdDevReq+0x50>
 8002972:	2301      	movs	r3, #1
 8002974:	f885 3112 	strb.w	r3, [r5, #274]	@ 0x112
 8002978:	e75a      	b.n	8002830 <USBD_StdDevReq+0x50>
 800297a:	2900      	cmp	r1, #0
 800297c:	d0f0      	beq.n	8002960 <USBD_StdDevReq+0x180>
 800297e:	2101      	movs	r1, #1
 8002980:	2303      	movs	r3, #3
 8002982:	f880 1110 	strb.w	r1, [r0, #272]	@ 0x110
 8002986:	f880 3112 	strb.w	r3, [r0, #274]	@ 0x112
 800298a:	f7ff fe6b 	bl	8002664 <USBD_SetCfg>
 800298e:	4628      	mov	r0, r5
 8002990:	f7ff ff06 	bl	80027a0 <USBD_CtlSendStatus>
 8002994:	e74c      	b.n	8002830 <USBD_StdDevReq+0x50>
 8002996:	494e      	ldr	r1, [pc, #312]	@ (8002ad0 <USBD_StdDevReq+0x2f0>)
 8002998:	f7ff fece 	bl	8002738 <USBD_CtlSendData>
 800299c:	e748      	b.n	8002830 <USBD_StdDevReq+0x50>
 800299e:	b2d2      	uxtb	r2, r2
 80029a0:	2a05      	cmp	r2, #5
 80029a2:	f63f af38 	bhi.w	8002816 <USBD_StdDevReq+0x36>
 80029a6:	e8df f002 	tbb	[pc, r2]
 80029aa:	5159      	.short	0x5159
 80029ac:	31394149 	.word	0x31394149
 80029b0:	f8d0 35e0 	ldr.w	r3, [r0, #1504]	@ 0x5e0
 80029b4:	7880      	ldrb	r0, [r0, #2]
 80029b6:	6a9b      	ldr	r3, [r3, #40]	@ 0x28
 80029b8:	f10d 0106 	add.w	r1, sp, #6
 80029bc:	4798      	blx	r3
 80029be:	2302      	movs	r3, #2
 80029c0:	7043      	strb	r3, [r0, #1]
 80029c2:	f8c5 05ec 	str.w	r0, [r5, #1516]	@ 0x5ec
 80029c6:	f8bd 2006 	ldrh.w	r2, [sp, #6]
 80029ca:	2a00      	cmp	r2, #0
 80029cc:	f43f af30 	beq.w	8002830 <USBD_StdDevReq+0x50>
 80029d0:	88e3      	ldrh	r3, [r4, #6]
 80029d2:	2b00      	cmp	r3, #0
 80029d4:	f43f af2c 	beq.w	8002830 <USBD_StdDevReq+0x50>
 80029d8:	429a      	cmp	r2, r3
 80029da:	bf28      	it	cs
 80029dc:	461a      	movcs	r2, r3
 80029de:	4601      	mov	r1, r0
 80029e0:	4628      	mov	r0, r5
 80029e2:	f8ad 2006 	strh.w	r2, [sp, #6]
 80029e6:	f7ff fea7 	bl	8002738 <USBD_CtlSendData>
 80029ea:	e721      	b.n	8002830 <USBD_StdDevReq+0x50>
 80029ec:	f8d0 35e8 	ldr.w	r3, [r0, #1512]	@ 0x5e8
 80029f0:	7880      	ldrb	r0, [r0, #2]
 80029f2:	681b      	ldr	r3, [r3, #0]
 80029f4:	f10d 0106 	add.w	r1, sp, #6
 80029f8:	4798      	blx	r3
 80029fa:	88e3      	ldrh	r3, [r4, #6]
 80029fc:	2b40      	cmp	r3, #64	@ 0x40
 80029fe:	d069      	beq.n	8002ad4 <USBD_StdDevReq+0x2f4>
 8002a00:	f895 2112 	ldrb.w	r2, [r5, #274]	@ 0x112
 8002a04:	2a01      	cmp	r2, #1
 8002a06:	d1de      	bne.n	80029c6 <USBD_StdDevReq+0x1e6>
 8002a08:	2208      	movs	r2, #8
 8002a0a:	e7e2      	b.n	80029d2 <USBD_StdDevReq+0x1f2>
 8002a0c:	f8d0 35e8 	ldr.w	r3, [r0, #1512]	@ 0x5e8
 8002a10:	7880      	ldrb	r0, [r0, #2]
 8002a12:	699b      	ldr	r3, [r3, #24]
 8002a14:	f10d 0106 	add.w	r1, sp, #6
 8002a18:	4798      	blx	r3
 8002a1a:	e7d4      	b.n	80029c6 <USBD_StdDevReq+0x1e6>
 8002a1c:	f8d0 35e8 	ldr.w	r3, [r0, #1512]	@ 0x5e8
 8002a20:	7880      	ldrb	r0, [r0, #2]
 8002a22:	695b      	ldr	r3, [r3, #20]
 8002a24:	f10d 0106 	add.w	r1, sp, #6
 8002a28:	4798      	blx	r3
 8002a2a:	e7cc      	b.n	80029c6 <USBD_StdDevReq+0x1e6>
 8002a2c:	f8d0 35e8 	ldr.w	r3, [r0, #1512]	@ 0x5e8
 8002a30:	7880      	ldrb	r0, [r0, #2]
 8002a32:	691b      	ldr	r3, [r3, #16]
 8002a34:	f10d 0106 	add.w	r1, sp, #6
 8002a38:	4798      	blx	r3
 8002a3a:	e7c4      	b.n	80029c6 <USBD_StdDevReq+0x1e6>
 8002a3c:	f8d0 35e8 	ldr.w	r3, [r0, #1512]	@ 0x5e8
 8002a40:	7880      	ldrb	r0, [r0, #2]
 8002a42:	68db      	ldr	r3, [r3, #12]
 8002a44:	f10d 0106 	add.w	r1, sp, #6
 8002a48:	4798      	blx	r3
 8002a4a:	e7bc      	b.n	80029c6 <USBD_StdDevReq+0x1e6>
 8002a4c:	f8d0 35e8 	ldr.w	r3, [r0, #1512]	@ 0x5e8
 8002a50:	7880      	ldrb	r0, [r0, #2]
 8002a52:	689b      	ldr	r3, [r3, #8]
 8002a54:	f10d 0106 	add.w	r1, sp, #6
 8002a58:	4798      	blx	r3
 8002a5a:	e7b4      	b.n	80029c6 <USBD_StdDevReq+0x1e6>
 8002a5c:	f8d0 35e8 	ldr.w	r3, [r0, #1512]	@ 0x5e8
 8002a60:	7880      	ldrb	r0, [r0, #2]
 8002a62:	685b      	ldr	r3, [r3, #4]
 8002a64:	f10d 0106 	add.w	r1, sp, #6
 8002a68:	4798      	blx	r3
 8002a6a:	e7ac      	b.n	80029c6 <USBD_StdDevReq+0x1e6>
 8002a6c:	2303      	movs	r3, #3
 8002a6e:	f363 1006 	bfi	r0, r3, #4, #3
 8002a72:	4602      	mov	r2, r0
 8002a74:	604a      	str	r2, [r1, #4]
 8002a76:	4628      	mov	r0, r5
 8002a78:	f7ff fe92 	bl	80027a0 <USBD_CtlSendStatus>
 8002a7c:	e6d8      	b.n	8002830 <USBD_StdDevReq+0x50>
 8002a7e:	2302      	movs	r3, #2
 8002a80:	f363 1006 	bfi	r0, r3, #4, #3
 8002a84:	4602      	mov	r2, r0
 8002a86:	e7f5      	b.n	8002a74 <USBD_StdDevReq+0x294>
 8002a88:	2301      	movs	r3, #1
 8002a8a:	f363 1006 	bfi	r0, r3, #4, #3
 8002a8e:	4602      	mov	r2, r0
 8002a90:	e7f0      	b.n	8002a74 <USBD_StdDevReq+0x294>
 8002a92:	2305      	movs	r3, #5
 8002a94:	f363 1006 	bfi	r0, r3, #4, #3
 8002a98:	4602      	mov	r2, r0
 8002a9a:	e7eb      	b.n	8002a74 <USBD_StdDevReq+0x294>
 8002a9c:	2304      	movs	r3, #4
 8002a9e:	f363 1006 	bfi	r0, r3, #4, #3
 8002aa2:	4602      	mov	r2, r0
 8002aa4:	e7e6      	b.n	8002a74 <USBD_StdDevReq+0x294>
 8002aa6:	f8d0 25e0 	ldr.w	r2, [r0, #1504]	@ 0x5e0
 8002aaa:	f8c0 3114 	str.w	r3, [r0, #276]	@ 0x114
 8002aae:	6893      	ldr	r3, [r2, #8]
 8002ab0:	e6ee      	b.n	8002890 <USBD_StdDevReq+0xb0>
 8002ab2:	2302      	movs	r3, #2
 8002ab4:	f880 3112 	strb.w	r3, [r0, #274]	@ 0x112
 8002ab8:	f880 1110 	strb.w	r1, [r0, #272]	@ 0x110
 8002abc:	f7ff fde0 	bl	8002680 <USBD_ClrCfg>
 8002ac0:	4628      	mov	r0, r5
 8002ac2:	f7ff fe6d 	bl	80027a0 <USBD_CtlSendStatus>
 8002ac6:	e6b3      	b.n	8002830 <USBD_StdDevReq+0x50>
 8002ac8:	20001330 	.word	0x20001330
 8002acc:	20001368 	.word	0x20001368
 8002ad0:	2000136c 	.word	0x2000136c
 8002ad4:	2208      	movs	r2, #8
 8002ad6:	e77f      	b.n	80029d8 <USBD_StdDevReq+0x1f8>

08002ad8 <USBD_StdItfReq>:
 8002ad8:	b530      	push	{r4, r5, lr}
 8002ada:	f890 3112 	ldrb.w	r3, [r0, #274]	@ 0x112
 8002ade:	2b03      	cmp	r3, #3
 8002ae0:	4604      	mov	r4, r0
 8002ae2:	460d      	mov	r5, r1
 8002ae4:	d10a      	bne.n	8002afc <USBD_StdItfReq+0x24>
 8002ae6:	790b      	ldrb	r3, [r1, #4]
 8002ae8:	2b01      	cmp	r3, #1
 8002aea:	d807      	bhi.n	8002afc <USBD_StdItfReq+0x24>
 8002aec:	f8d0 35e0 	ldr.w	r3, [r0, #1504]	@ 0x5e0
 8002af0:	689b      	ldr	r3, [r3, #8]
 8002af2:	4798      	blx	r3
 8002af4:	88eb      	ldrh	r3, [r5, #6]
 8002af6:	b1ab      	cbz	r3, 8002b24 <USBD_StdItfReq+0x4c>
 8002af8:	2000      	movs	r0, #0
 8002afa:	bd30      	pop	{r4, r5, pc}
 8002afc:	f995 3000 	ldrsb.w	r3, [r5]
 8002b00:	2b00      	cmp	r3, #0
 8002b02:	db01      	blt.n	8002b08 <USBD_StdItfReq+0x30>
 8002b04:	88eb      	ldrh	r3, [r5, #6]
 8002b06:	b943      	cbnz	r3, 8002b1a <USBD_StdItfReq+0x42>
 8002b08:	2180      	movs	r1, #128	@ 0x80
 8002b0a:	4620      	mov	r0, r4
 8002b0c:	f7ff fc26 	bl	800235c <DCD_EP_Stall>
 8002b10:	4620      	mov	r0, r4
 8002b12:	f001 fc81 	bl	8004418 <USB_OTG_EP0_OutStart>
 8002b16:	2000      	movs	r0, #0
 8002b18:	bd30      	pop	{r4, r5, pc}
 8002b1a:	2100      	movs	r1, #0
 8002b1c:	4620      	mov	r0, r4
 8002b1e:	f7ff fc1d 	bl	800235c <DCD_EP_Stall>
 8002b22:	e7f5      	b.n	8002b10 <USBD_StdItfReq+0x38>
 8002b24:	4620      	mov	r0, r4
 8002b26:	f7ff fe3b 	bl	80027a0 <USBD_CtlSendStatus>
 8002b2a:	e7e5      	b.n	8002af8 <USBD_StdItfReq+0x20>

08002b2c <USBD_StdEPReq>:
 8002b2c:	b530      	push	{r4, r5, lr}
 8002b2e:	460c      	mov	r4, r1
 8002b30:	888a      	ldrh	r2, [r1, #4]
 8002b32:	7863      	ldrb	r3, [r4, #1]
 8002b34:	2b01      	cmp	r3, #1
 8002b36:	4605      	mov	r5, r0
 8002b38:	b2d1      	uxtb	r1, r2
 8002b3a:	d004      	beq.n	8002b46 <USBD_StdEPReq+0x1a>
 8002b3c:	2b03      	cmp	r3, #3
 8002b3e:	d035      	beq.n	8002bac <USBD_StdEPReq+0x80>
 8002b40:	b1bb      	cbz	r3, 8002b72 <USBD_StdEPReq+0x46>
 8002b42:	2000      	movs	r0, #0
 8002b44:	bd30      	pop	{r4, r5, pc}
 8002b46:	f890 3112 	ldrb.w	r3, [r0, #274]	@ 0x112
 8002b4a:	2b02      	cmp	r3, #2
 8002b4c:	d015      	beq.n	8002b7a <USBD_StdEPReq+0x4e>
 8002b4e:	2b03      	cmp	r3, #3
 8002b50:	d043      	beq.n	8002bda <USBD_StdEPReq+0xae>
 8002b52:	f994 3000 	ldrsb.w	r3, [r4]
 8002b56:	2b00      	cmp	r3, #0
 8002b58:	db47      	blt.n	8002bea <USBD_StdEPReq+0xbe>
 8002b5a:	88e3      	ldrh	r3, [r4, #6]
 8002b5c:	2b00      	cmp	r3, #0
 8002b5e:	d044      	beq.n	8002bea <USBD_StdEPReq+0xbe>
 8002b60:	2100      	movs	r1, #0
 8002b62:	4628      	mov	r0, r5
 8002b64:	f7ff fbfa 	bl	800235c <DCD_EP_Stall>
 8002b68:	4628      	mov	r0, r5
 8002b6a:	f001 fc55 	bl	8004418 <USB_OTG_EP0_OutStart>
 8002b6e:	2000      	movs	r0, #0
 8002b70:	bd30      	pop	{r4, r5, pc}
 8002b72:	f890 3112 	ldrb.w	r3, [r0, #274]	@ 0x112
 8002b76:	2b02      	cmp	r3, #2
 8002b78:	d104      	bne.n	8002b84 <USBD_StdEPReq+0x58>
 8002b7a:	064a      	lsls	r2, r1, #25
 8002b7c:	d0e1      	beq.n	8002b42 <USBD_StdEPReq+0x16>
 8002b7e:	f7ff fbed 	bl	800235c <DCD_EP_Stall>
 8002b82:	e7de      	b.n	8002b42 <USBD_StdEPReq+0x16>
 8002b84:	2b03      	cmp	r3, #3
 8002b86:	d1e4      	bne.n	8002b52 <USBD_StdEPReq+0x26>
 8002b88:	0613      	lsls	r3, r2, #24
 8002b8a:	d433      	bmi.n	8002bf4 <USBD_StdEPReq+0xc8>
 8002b8c:	eb01 0181 	add.w	r1, r1, r1, lsl #2
 8002b90:	eb00 01c1 	add.w	r1, r0, r1, lsl #3
 8002b94:	f891 3372 	ldrb.w	r3, [r1, #882]	@ 0x372
 8002b98:	3b00      	subs	r3, #0
 8002b9a:	bf18      	it	ne
 8002b9c:	2301      	movne	r3, #1
 8002b9e:	491b      	ldr	r1, [pc, #108]	@ (8002c0c <USBD_StdEPReq+0xe0>)
 8002ba0:	2202      	movs	r2, #2
 8002ba2:	4628      	mov	r0, r5
 8002ba4:	600b      	str	r3, [r1, #0]
 8002ba6:	f7ff fdc7 	bl	8002738 <USBD_CtlSendData>
 8002baa:	e7ca      	b.n	8002b42 <USBD_StdEPReq+0x16>
 8002bac:	f890 3112 	ldrb.w	r3, [r0, #274]	@ 0x112
 8002bb0:	2b02      	cmp	r3, #2
 8002bb2:	d0e2      	beq.n	8002b7a <USBD_StdEPReq+0x4e>
 8002bb4:	2b03      	cmp	r3, #3
 8002bb6:	d1cc      	bne.n	8002b52 <USBD_StdEPReq+0x26>
 8002bb8:	8863      	ldrh	r3, [r4, #2]
 8002bba:	b91b      	cbnz	r3, 8002bc4 <USBD_StdEPReq+0x98>
 8002bbc:	064a      	lsls	r2, r1, #25
 8002bbe:	d001      	beq.n	8002bc4 <USBD_StdEPReq+0x98>
 8002bc0:	f7ff fbcc 	bl	800235c <DCD_EP_Stall>
 8002bc4:	f8d5 35e0 	ldr.w	r3, [r5, #1504]	@ 0x5e0
 8002bc8:	4621      	mov	r1, r4
 8002bca:	689b      	ldr	r3, [r3, #8]
 8002bcc:	4628      	mov	r0, r5
 8002bce:	4798      	blx	r3
 8002bd0:	4628      	mov	r0, r5
 8002bd2:	f7ff fde5 	bl	80027a0 <USBD_CtlSendStatus>
 8002bd6:	2000      	movs	r0, #0
 8002bd8:	bd30      	pop	{r4, r5, pc}
 8002bda:	8863      	ldrh	r3, [r4, #2]
 8002bdc:	2b00      	cmp	r3, #0
 8002bde:	d1b0      	bne.n	8002b42 <USBD_StdEPReq+0x16>
 8002be0:	064b      	lsls	r3, r1, #25
 8002be2:	d0f5      	beq.n	8002bd0 <USBD_StdEPReq+0xa4>
 8002be4:	f7ff fbda 	bl	800239c <DCD_EP_ClrStall>
 8002be8:	e7ec      	b.n	8002bc4 <USBD_StdEPReq+0x98>
 8002bea:	2180      	movs	r1, #128	@ 0x80
 8002bec:	4628      	mov	r0, r5
 8002bee:	f7ff fbb5 	bl	800235c <DCD_EP_Stall>
 8002bf2:	e7b9      	b.n	8002b68 <USBD_StdEPReq+0x3c>
 8002bf4:	f001 017f 	and.w	r1, r1, #127	@ 0x7f
 8002bf8:	eb01 0181 	add.w	r1, r1, r1, lsl #2
 8002bfc:	eb00 01c1 	add.w	r1, r0, r1, lsl #3
 8002c00:	f891 311a 	ldrb.w	r3, [r1, #282]	@ 0x11a
 8002c04:	3b00      	subs	r3, #0
 8002c06:	bf18      	it	ne
 8002c08:	2301      	movne	r3, #1
 8002c0a:	e7c8      	b.n	8002b9e <USBD_StdEPReq+0x72>
 8002c0c:	20001370 	.word	0x20001370

08002c10 <USBD_ParseSetupRequest>:
 8002c10:	f8b0 35c8 	ldrh.w	r3, [r0, #1480]	@ 0x5c8
 8002c14:	800b      	strh	r3, [r1, #0]
 8002c16:	f8b0 35ca 	ldrh.w	r3, [r0, #1482]	@ 0x5ca
 8002c1a:	804b      	strh	r3, [r1, #2]
 8002c1c:	f8b0 35cc 	ldrh.w	r3, [r0, #1484]	@ 0x5cc
 8002c20:	808b      	strh	r3, [r1, #4]
 8002c22:	f8b0 35ce 	ldrh.w	r3, [r0, #1486]	@ 0x5ce
 8002c26:	80cb      	strh	r3, [r1, #6]
 8002c28:	2201      	movs	r2, #1
 8002c2a:	f8c0 313c 	str.w	r3, [r0, #316]	@ 0x13c
 8002c2e:	f880 2111 	strb.w	r2, [r0, #273]	@ 0x111
 8002c32:	4770      	bx	lr

08002c34 <USBD_CtlError>:
 8002c34:	b510      	push	{r4, lr}
 8002c36:	f991 3000 	ldrsb.w	r3, [r1]
 8002c3a:	2b00      	cmp	r3, #0
 8002c3c:	4604      	mov	r4, r0
 8002c3e:	db01      	blt.n	8002c44 <USBD_CtlError+0x10>
 8002c40:	88cb      	ldrh	r3, [r1, #6]
 8002c42:	b943      	cbnz	r3, 8002c56 <USBD_CtlError+0x22>
 8002c44:	4620      	mov	r0, r4
 8002c46:	2180      	movs	r1, #128	@ 0x80
 8002c48:	f7ff fb88 	bl	800235c <DCD_EP_Stall>
 8002c4c:	4620      	mov	r0, r4
 8002c4e:	e8bd 4010 	ldmia.w	sp!, {r4, lr}
 8002c52:	f001 bbe1 	b.w	8004418 <USB_OTG_EP0_OutStart>
 8002c56:	2100      	movs	r1, #0
 8002c58:	f7ff fb80 	bl	800235c <DCD_EP_Stall>
 8002c5c:	4620      	mov	r0, r4
 8002c5e:	e8bd 4010 	ldmia.w	sp!, {r4, lr}
 8002c62:	f001 bbd9 	b.w	8004418 <USB_OTG_EP0_OutStart>
 8002c66:	bf00      	nop

08002c68 <USBD_GetString>:
 8002c68:	b430      	push	{r4, r5}
 8002c6a:	b300      	cbz	r0, 8002cae <USBD_GetString+0x46>
 8002c6c:	7803      	ldrb	r3, [r0, #0]
 8002c6e:	b303      	cbz	r3, 8002cb2 <USBD_GetString+0x4a>
 8002c70:	4603      	mov	r3, r0
 8002c72:	461c      	mov	r4, r3
 8002c74:	f813 5f01 	ldrb.w	r5, [r3, #1]!
 8002c78:	2d00      	cmp	r5, #0
 8002c7a:	d1fa      	bne.n	8002c72 <USBD_GetString+0xa>
 8002c7c:	f1c0 0301 	rsb	r3, r0, #1
 8002c80:	4423      	add	r3, r4
 8002c82:	b2db      	uxtb	r3, r3
 8002c84:	3301      	adds	r3, #1
 8002c86:	005b      	lsls	r3, r3, #1
 8002c88:	b2dc      	uxtb	r4, r3
 8002c8a:	8013      	strh	r3, [r2, #0]
 8002c8c:	2303      	movs	r3, #3
 8002c8e:	700c      	strb	r4, [r1, #0]
 8002c90:	704b      	strb	r3, [r1, #1]
 8002c92:	7804      	ldrb	r4, [r0, #0]
 8002c94:	b15c      	cbz	r4, 8002cae <USBD_GetString+0x46>
 8002c96:	2302      	movs	r3, #2
 8002c98:	2500      	movs	r5, #0
 8002c9a:	1c5a      	adds	r2, r3, #1
 8002c9c:	b2d2      	uxtb	r2, r2
 8002c9e:	54cc      	strb	r4, [r1, r3]
 8002ca0:	548d      	strb	r5, [r1, r2]
 8002ca2:	f810 4f01 	ldrb.w	r4, [r0, #1]!
 8002ca6:	3302      	adds	r3, #2
 8002ca8:	b2db      	uxtb	r3, r3
 8002caa:	2c00      	cmp	r4, #0
 8002cac:	d1f5      	bne.n	8002c9a <USBD_GetString+0x32>
 8002cae:	bc30      	pop	{r4, r5}
 8002cb0:	4770      	bx	lr
 8002cb2:	2402      	movs	r4, #2
 8002cb4:	4623      	mov	r3, r4
 8002cb6:	e7e8      	b.n	8002c8a <USBD_GetString+0x22>

08002cb8 <USBD_USR_Init>:
 8002cb8:	4b01      	ldr	r3, [pc, #4]	@ (8002cc0 <USBD_USR_Init+0x8>)
 8002cba:	2201      	movs	r2, #1
 8002cbc:	601a      	str	r2, [r3, #0]
 8002cbe:	4770      	bx	lr
 8002cc0:	20001374 	.word	0x20001374

08002cc4 <USBD_USR_DeviceReset>:
 8002cc4:	4b01      	ldr	r3, [pc, #4]	@ (8002ccc <USBD_USR_DeviceReset+0x8>)
 8002cc6:	2201      	movs	r2, #1
 8002cc8:	601a      	str	r2, [r3, #0]
 8002cca:	4770      	bx	lr
 8002ccc:	20001374 	.word	0x20001374

08002cd0 <USBD_USR_DeviceConfigured>:
 8002cd0:	4b01      	ldr	r3, [pc, #4]	@ (8002cd8 <USBD_USR_DeviceConfigured+0x8>)
 8002cd2:	2202      	movs	r2, #2
 8002cd4:	601a      	str	r2, [r3, #0]
 8002cd6:	4770      	bx	lr
 8002cd8:	20001374 	.word	0x20001374

08002cdc <USBD_USR_DeviceResumed>:
 8002cdc:	4b01      	ldr	r3, [pc, #4]	@ (8002ce4 <USBD_USR_DeviceResumed+0x8>)
 8002cde:	2201      	movs	r2, #1
 8002ce0:	601a      	str	r2, [r3, #0]
 8002ce2:	4770      	bx	lr
 8002ce4:	20001374 	.word	0x20001374

08002ce8 <USBD_USR_DeviceConnected>:
 8002ce8:	4b01      	ldr	r3, [pc, #4]	@ (8002cf0 <USBD_USR_DeviceConnected+0x8>)
 8002cea:	2201      	movs	r2, #1
 8002cec:	601a      	str	r2, [r3, #0]
 8002cee:	4770      	bx	lr
 8002cf0:	20001374 	.word	0x20001374

08002cf4 <USBD_USR_DeviceDisconnected>:
 8002cf4:	4b01      	ldr	r3, [pc, #4]	@ (8002cfc <USBD_USR_DeviceDisconnected+0x8>)
 8002cf6:	2201      	movs	r2, #1
 8002cf8:	601a      	str	r2, [r3, #0]
 8002cfa:	4770      	bx	lr
 8002cfc:	20001374 	.word	0x20001374

08002d00 <USBD_USR_DeviceSuspended>:
 8002d00:	4b01      	ldr	r3, [pc, #4]	@ (8002d08 <USBD_USR_DeviceSuspended+0x8>)
 8002d02:	2201      	movs	r2, #1
 8002d04:	601a      	str	r2, [r3, #0]
 8002d06:	4770      	bx	lr
 8002d08:	20001374 	.word	0x20001374

08002d0c <_stdout_default>:
 8002d0c:	2000      	movs	r0, #0
 8002d0e:	4770      	bx	lr

08002d10 <_stdin_default>:
 8002d10:	2000      	movs	r0, #0
 8002d12:	4770      	bx	lr

08002d14 <_stdpoll_default>:
 8002d14:	2000      	movs	r0, #0
 8002d16:	4770      	bx	lr

08002d18 <_stdout_install>:
 8002d18:	4b01      	ldr	r3, [pc, #4]	@ (8002d20 <_stdout_install+0x8>)
 8002d1a:	6018      	str	r0, [r3, #0]
 8002d1c:	4770      	bx	lr
 8002d1e:	bf00      	nop
 8002d20:	200001ec 	.word	0x200001ec

08002d24 <_stdin_install>:
 8002d24:	4b01      	ldr	r3, [pc, #4]	@ (8002d2c <_stdin_install+0x8>)
 8002d26:	6018      	str	r0, [r3, #0]
 8002d28:	4770      	bx	lr
 8002d2a:	bf00      	nop
 8002d2c:	200001e8 	.word	0x200001e8

08002d30 <_stdpoll_install>:
 8002d30:	4b01      	ldr	r3, [pc, #4]	@ (8002d38 <_stdpoll_install+0x8>)
 8002d32:	6018      	str	r0, [r3, #0]
 8002d34:	4770      	bx	lr
 8002d36:	bf00      	nop
 8002d38:	200001e4 	.word	0x200001e4

08002d3c <_putchar>:
 8002d3c:	b500      	push	{lr}
 8002d3e:	4b03      	ldr	r3, [pc, #12]	@ (8002d4c <_putchar+0x10>)
 8002d40:	681b      	ldr	r3, [r3, #0]
 8002d42:	4798      	blx	r3
 8002d44:	2000      	movs	r0, #0
 8002d46:	f85d fb04 	ldr.w	pc, [sp], #4
 8002d4a:	bf00      	nop
 8002d4c:	200001ec 	.word	0x200001ec

08002d50 <hexdump>:
 8002d50:	e92d 4ff0 	stmdb	sp!, {r4, r5, r6, r7, r8, r9, sl, fp, lr}
 8002d54:	4681      	mov	r9, r0
 8002d56:	f020 080f 	bic.w	r8, r0, #15
 8002d5a:	468b      	mov	fp, r1
 8002d5c:	2900      	cmp	r1, #0
 8002d5e:	d06a      	beq.n	8002e36 <hexdump+0xe6>
 8002d60:	f108 0810 	add.w	r8, r8, #16
 8002d64:	f04f 0a00 	mov.w	sl, #0
 8002d68:	200a      	movs	r0, #10
 8002d6a:	f7ff ffe7 	bl	8002d3c <_putchar>
 8002d6e:	f1a8 0410 	sub.w	r4, r8, #16
 8002d72:	251c      	movs	r5, #28
 8002d74:	fa44 f005 	asr.w	r0, r4, r5
 8002d78:	f000 000f 	and.w	r0, r0, #15
 8002d7c:	2809      	cmp	r0, #9
 8002d7e:	bfcc      	ite	gt
 8002d80:	3037      	addgt	r0, #55	@ 0x37
 8002d82:	3030      	addle	r0, #48	@ 0x30
 8002d84:	3d04      	subs	r5, #4
 8002d86:	f7ff ffd9 	bl	8002d3c <_putchar>
 8002d8a:	1d2b      	adds	r3, r5, #4
 8002d8c:	d1f2      	bne.n	8002d74 <hexdump+0x24>
 8002d8e:	2020      	movs	r0, #32
 8002d90:	f7ff ffd4 	bl	8002d3c <_putchar>
 8002d94:	4627      	mov	r7, r4
 8002d96:	2600      	movs	r6, #0
 8002d98:	e00f      	b.n	8002dba <hexdump+0x6a>
 8002d9a:	2020      	movs	r0, #32
 8002d9c:	f7ff ffce 	bl	8002d3c <_putchar>
 8002da0:	2020      	movs	r0, #32
 8002da2:	f7ff ffcb 	bl	8002d3c <_putchar>
 8002da6:	2020      	movs	r0, #32
 8002da8:	f7ff ffc8 	bl	8002d3c <_putchar>
 8002dac:	2e07      	cmp	r6, #7
 8002dae:	d01f      	beq.n	8002df0 <hexdump+0xa0>
 8002db0:	3601      	adds	r6, #1
 8002db2:	2e10      	cmp	r6, #16
 8002db4:	f107 0701 	add.w	r7, r7, #1
 8002db8:	d020      	beq.n	8002dfc <hexdump+0xac>
 8002dba:	454f      	cmp	r7, r9
 8002dbc:	d3ed      	bcc.n	8002d9a <hexdump+0x4a>
 8002dbe:	783d      	ldrb	r5, [r7, #0]
 8002dc0:	2d9f      	cmp	r5, #159	@ 0x9f
 8002dc2:	ea4f 1015 	mov.w	r0, r5, lsr #4
 8002dc6:	bf98      	it	ls
 8002dc8:	3030      	addls	r0, #48	@ 0x30
 8002dca:	f005 050f 	and.w	r5, r5, #15
 8002dce:	bf88      	it	hi
 8002dd0:	3037      	addhi	r0, #55	@ 0x37
 8002dd2:	f7ff ffb3 	bl	8002d3c <_putchar>
 8002dd6:	2d09      	cmp	r5, #9
 8002dd8:	bf94      	ite	ls
 8002dda:	f105 0030 	addls.w	r0, r5, #48	@ 0x30
 8002dde:	f105 0037 	addhi.w	r0, r5, #55	@ 0x37
 8002de2:	f7ff ffab 	bl	8002d3c <_putchar>
 8002de6:	2020      	movs	r0, #32
 8002de8:	f7ff ffa8 	bl	8002d3c <_putchar>
 8002dec:	2e07      	cmp	r6, #7
 8002dee:	d1df      	bne.n	8002db0 <hexdump+0x60>
 8002df0:	2020      	movs	r0, #32
 8002df2:	f7ff ffa3 	bl	8002d3c <_putchar>
 8002df6:	3701      	adds	r7, #1
 8002df8:	2608      	movs	r6, #8
 8002dfa:	e7de      	b.n	8002dba <hexdump+0x6a>
 8002dfc:	2020      	movs	r0, #32
 8002dfe:	f7ff ff9d 	bl	8002d3c <_putchar>
 8002e02:	207c      	movs	r0, #124	@ 0x7c
 8002e04:	f7ff ff9a 	bl	8002d3c <_putchar>
 8002e08:	7823      	ldrb	r3, [r4, #0]
 8002e0a:	f1a3 0220 	sub.w	r2, r3, #32
 8002e0e:	2a5e      	cmp	r2, #94	@ 0x5e
 8002e10:	f04f 002e 	mov.w	r0, #46	@ 0x2e
 8002e14:	f104 0401 	add.w	r4, r4, #1
 8002e18:	bf98      	it	ls
 8002e1a:	4618      	movls	r0, r3
 8002e1c:	f7ff ff8e 	bl	8002d3c <_putchar>
 8002e20:	4544      	cmp	r4, r8
 8002e22:	d1f1      	bne.n	8002e08 <hexdump+0xb8>
 8002e24:	207c      	movs	r0, #124	@ 0x7c
 8002e26:	f10a 0a10 	add.w	sl, sl, #16
 8002e2a:	f7ff ff87 	bl	8002d3c <_putchar>
 8002e2e:	45d3      	cmp	fp, sl
 8002e30:	f108 0810 	add.w	r8, r8, #16
 8002e34:	d898      	bhi.n	8002d68 <hexdump+0x18>
 8002e36:	2000      	movs	r0, #0
 8002e38:	e8bd 8ff0 	ldmia.w	sp!, {r4, r5, r6, r7, r8, r9, sl, fp, pc}

08002e3c <gpio_ll_setup>:
 8002e3c:	e92d 43f0 	stmdb	sp!, {r4, r5, r6, r7, r8, r9, lr}
 8002e40:	4606      	mov	r6, r0
 8002e42:	b086      	sub	sp, #24
 8002e44:	2500      	movs	r5, #0
 8002e46:	f04f 0803 	mov.w	r8, #3
 8002e4a:	8873      	ldrh	r3, [r6, #2]
 8002e4c:	412b      	asrs	r3, r5
 8002e4e:	07db      	lsls	r3, r3, #31
 8002e50:	d525      	bpl.n	8002e9e <gpio_ll_setup+0x62>
 8002e52:	006a      	lsls	r2, r5, #1
 8002e54:	6874      	ldr	r4, [r6, #4]
 8002e56:	68b1      	ldr	r1, [r6, #8]
 8002e58:	fa08 f302 	lsl.w	r3, r8, r2
 8002e5c:	401c      	ands	r4, r3
 8002e5e:	40d4      	lsrs	r4, r2
 8002e60:	2c01      	cmp	r4, #1
 8002e62:	d007      	beq.n	8002e74 <gpio_ll_setup+0x38>
 8002e64:	2c02      	cmp	r4, #2
 8002e66:	d04a      	beq.n	8002efe <gpio_ll_setup+0xc2>
 8002e68:	b304      	cbz	r4, 8002eac <gpio_ll_setup+0x70>
 8002e6a:	f04f 30ff 	mov.w	r0, #4294967295	@ 0xffffffff
 8002e6e:	b006      	add	sp, #24
 8002e70:	e8bd 83f0 	ldmia.w	sp!, {r4, r5, r6, r7, r8, r9, pc}
 8002e74:	7837      	ldrb	r7, [r6, #0]
 8002e76:	2f01      	cmp	r7, #1
 8002e78:	d071      	beq.n	8002f5e <gpio_ll_setup+0x122>
 8002e7a:	2f02      	cmp	r7, #2
 8002e7c:	d05a      	beq.n	8002f34 <gpio_ll_setup+0xf8>
 8002e7e:	2f00      	cmp	r7, #0
 8002e80:	d1f3      	bne.n	8002e6a <gpio_ll_setup+0x2e>
 8002e82:	4621      	mov	r1, r4
 8002e84:	4620      	mov	r0, r4
 8002e86:	f7fe fa47 	bl	8001318 <RCC_AHB1PeriphClockCmd>
 8002e8a:	9402      	str	r4, [sp, #8]
 8002e8c:	9403      	str	r4, [sp, #12]
 8002e8e:	486b      	ldr	r0, [pc, #428]	@ (800303c <gpio_ll_setup+0x200>)
 8002e90:	9704      	str	r7, [sp, #16]
 8002e92:	40ac      	lsls	r4, r5
 8002e94:	a901      	add	r1, sp, #4
 8002e96:	9705      	str	r7, [sp, #20]
 8002e98:	9401      	str	r4, [sp, #4]
 8002e9a:	f000 fcc3 	bl	8003824 <GPIO_Init>
 8002e9e:	3501      	adds	r5, #1
 8002ea0:	2d10      	cmp	r5, #16
 8002ea2:	d1d2      	bne.n	8002e4a <gpio_ll_setup+0xe>
 8002ea4:	2000      	movs	r0, #0
 8002ea6:	b006      	add	sp, #24
 8002ea8:	e8bd 83f0 	ldmia.w	sp!, {r4, r5, r6, r7, r8, r9, pc}
 8002eac:	f896 9000 	ldrb.w	r9, [r6]
 8002eb0:	400b      	ands	r3, r1
 8002eb2:	f1b9 0f01 	cmp.w	r9, #1
 8002eb6:	fa23 f702 	lsr.w	r7, r3, r2
 8002eba:	f000 80a6 	beq.w	800300a <gpio_ll_setup+0x1ce>
 8002ebe:	f1b9 0f02 	cmp.w	r9, #2
 8002ec2:	f000 808a 	beq.w	8002fda <gpio_ll_setup+0x19e>
 8002ec6:	f1b9 0f00 	cmp.w	r9, #0
 8002eca:	d1ce      	bne.n	8002e6a <gpio_ll_setup+0x2e>
 8002ecc:	2101      	movs	r1, #1
 8002ece:	4608      	mov	r0, r1
 8002ed0:	f7fe fa22 	bl	8001318 <RCC_AHB1PeriphClockCmd>
 8002ed4:	2301      	movs	r3, #1
 8002ed6:	9303      	str	r3, [sp, #12]
 8002ed8:	2f01      	cmp	r7, #1
 8002eda:	fa03 f305 	lsl.w	r3, r3, r5
 8002ede:	f8cd 9008 	str.w	r9, [sp, #8]
 8002ee2:	f8cd 9010 	str.w	r9, [sp, #16]
 8002ee6:	9301      	str	r3, [sp, #4]
 8002ee8:	d003      	beq.n	8002ef2 <gpio_ll_setup+0xb6>
 8002eea:	2f02      	cmp	r7, #2
 8002eec:	d001      	beq.n	8002ef2 <gpio_ll_setup+0xb6>
 8002eee:	2f00      	cmp	r7, #0
 8002ef0:	d1bb      	bne.n	8002e6a <gpio_ll_setup+0x2e>
 8002ef2:	4852      	ldr	r0, [pc, #328]	@ (800303c <gpio_ll_setup+0x200>)
 8002ef4:	9705      	str	r7, [sp, #20]
 8002ef6:	a901      	add	r1, sp, #4
 8002ef8:	f000 fc94 	bl	8003824 <GPIO_Init>
 8002efc:	e7cf      	b.n	8002e9e <gpio_ll_setup+0x62>
 8002efe:	7837      	ldrb	r7, [r6, #0]
 8002f00:	2f01      	cmp	r7, #1
 8002f02:	d056      	beq.n	8002fb2 <gpio_ll_setup+0x176>
 8002f04:	2f02      	cmp	r7, #2
 8002f06:	d03f      	beq.n	8002f88 <gpio_ll_setup+0x14c>
 8002f08:	2f00      	cmp	r7, #0
 8002f0a:	d1ae      	bne.n	8002e6a <gpio_ll_setup+0x2e>
 8002f0c:	2101      	movs	r1, #1
 8002f0e:	4608      	mov	r0, r1
 8002f10:	f7fe fa02 	bl	8001318 <RCC_AHB1PeriphClockCmd>
 8002f14:	2301      	movs	r3, #1
 8002f16:	fa03 f205 	lsl.w	r2, r3, r5
 8002f1a:	4848      	ldr	r0, [pc, #288]	@ (800303c <gpio_ll_setup+0x200>)
 8002f1c:	9201      	str	r2, [sp, #4]
 8002f1e:	a901      	add	r1, sp, #4
 8002f20:	3501      	adds	r5, #1
 8002f22:	9302      	str	r3, [sp, #8]
 8002f24:	9304      	str	r3, [sp, #16]
 8002f26:	9303      	str	r3, [sp, #12]
 8002f28:	9305      	str	r3, [sp, #20]
 8002f2a:	f000 fc7b 	bl	8003824 <GPIO_Init>
 8002f2e:	2d10      	cmp	r5, #16
 8002f30:	d18b      	bne.n	8002e4a <gpio_ll_setup+0xe>
 8002f32:	e7b7      	b.n	8002ea4 <gpio_ll_setup+0x68>
 8002f34:	4621      	mov	r1, r4
 8002f36:	2004      	movs	r0, #4
 8002f38:	f7fe f9ee 	bl	8001318 <RCC_AHB1PeriphClockCmd>
 8002f3c:	fa04 f305 	lsl.w	r3, r4, r5
 8002f40:	9301      	str	r3, [sp, #4]
 8002f42:	483f      	ldr	r0, [pc, #252]	@ (8003040 <gpio_ll_setup+0x204>)
 8002f44:	9402      	str	r4, [sp, #8]
 8002f46:	2300      	movs	r3, #0
 8002f48:	a901      	add	r1, sp, #4
 8002f4a:	3501      	adds	r5, #1
 8002f4c:	9304      	str	r3, [sp, #16]
 8002f4e:	9403      	str	r4, [sp, #12]
 8002f50:	9305      	str	r3, [sp, #20]
 8002f52:	f000 fc67 	bl	8003824 <GPIO_Init>
 8002f56:	2d10      	cmp	r5, #16
 8002f58:	f47f af77 	bne.w	8002e4a <gpio_ll_setup+0xe>
 8002f5c:	e7a2      	b.n	8002ea4 <gpio_ll_setup+0x68>
 8002f5e:	4639      	mov	r1, r7
 8002f60:	2002      	movs	r0, #2
 8002f62:	f7fe f9d9 	bl	8001318 <RCC_AHB1PeriphClockCmd>
 8002f66:	fa07 f305 	lsl.w	r3, r7, r5
 8002f6a:	9301      	str	r3, [sp, #4]
 8002f6c:	4835      	ldr	r0, [pc, #212]	@ (8003044 <gpio_ll_setup+0x208>)
 8002f6e:	9702      	str	r7, [sp, #8]
 8002f70:	2300      	movs	r3, #0
 8002f72:	a901      	add	r1, sp, #4
 8002f74:	3501      	adds	r5, #1
 8002f76:	9304      	str	r3, [sp, #16]
 8002f78:	9703      	str	r7, [sp, #12]
 8002f7a:	9305      	str	r3, [sp, #20]
 8002f7c:	f000 fc52 	bl	8003824 <GPIO_Init>
 8002f80:	2d10      	cmp	r5, #16
 8002f82:	f47f af62 	bne.w	8002e4a <gpio_ll_setup+0xe>
 8002f86:	e78d      	b.n	8002ea4 <gpio_ll_setup+0x68>
 8002f88:	2101      	movs	r1, #1
 8002f8a:	2004      	movs	r0, #4
 8002f8c:	f7fe f9c4 	bl	8001318 <RCC_AHB1PeriphClockCmd>
 8002f90:	2301      	movs	r3, #1
 8002f92:	fa03 f205 	lsl.w	r2, r3, r5
 8002f96:	482a      	ldr	r0, [pc, #168]	@ (8003040 <gpio_ll_setup+0x204>)
 8002f98:	9201      	str	r2, [sp, #4]
 8002f9a:	a901      	add	r1, sp, #4
 8002f9c:	3501      	adds	r5, #1
 8002f9e:	9302      	str	r3, [sp, #8]
 8002fa0:	9304      	str	r3, [sp, #16]
 8002fa2:	9303      	str	r3, [sp, #12]
 8002fa4:	9305      	str	r3, [sp, #20]
 8002fa6:	f000 fc3d 	bl	8003824 <GPIO_Init>
 8002faa:	2d10      	cmp	r5, #16
 8002fac:	f47f af4d 	bne.w	8002e4a <gpio_ll_setup+0xe>
 8002fb0:	e778      	b.n	8002ea4 <gpio_ll_setup+0x68>
 8002fb2:	4620      	mov	r0, r4
 8002fb4:	4639      	mov	r1, r7
 8002fb6:	f7fe f9af 	bl	8001318 <RCC_AHB1PeriphClockCmd>
 8002fba:	fa07 f305 	lsl.w	r3, r7, r5
 8002fbe:	4821      	ldr	r0, [pc, #132]	@ (8003044 <gpio_ll_setup+0x208>)
 8002fc0:	9301      	str	r3, [sp, #4]
 8002fc2:	a901      	add	r1, sp, #4
 8002fc4:	3501      	adds	r5, #1
 8002fc6:	9702      	str	r7, [sp, #8]
 8002fc8:	9704      	str	r7, [sp, #16]
 8002fca:	9703      	str	r7, [sp, #12]
 8002fcc:	9705      	str	r7, [sp, #20]
 8002fce:	f000 fc29 	bl	8003824 <GPIO_Init>
 8002fd2:	2d10      	cmp	r5, #16
 8002fd4:	f47f af39 	bne.w	8002e4a <gpio_ll_setup+0xe>
 8002fd8:	e764      	b.n	8002ea4 <gpio_ll_setup+0x68>
 8002fda:	2101      	movs	r1, #1
 8002fdc:	2004      	movs	r0, #4
 8002fde:	f7fe f99b 	bl	8001318 <RCC_AHB1PeriphClockCmd>
 8002fe2:	2301      	movs	r3, #1
 8002fe4:	9303      	str	r3, [sp, #12]
 8002fe6:	2f01      	cmp	r7, #1
 8002fe8:	fa03 f305 	lsl.w	r3, r3, r5
 8002fec:	9402      	str	r4, [sp, #8]
 8002fee:	9404      	str	r4, [sp, #16]
 8002ff0:	9301      	str	r3, [sp, #4]
 8002ff2:	d004      	beq.n	8002ffe <gpio_ll_setup+0x1c2>
 8002ff4:	2f02      	cmp	r7, #2
 8002ff6:	d002      	beq.n	8002ffe <gpio_ll_setup+0x1c2>
 8002ff8:	2f00      	cmp	r7, #0
 8002ffa:	f47f af36 	bne.w	8002e6a <gpio_ll_setup+0x2e>
 8002ffe:	4810      	ldr	r0, [pc, #64]	@ (8003040 <gpio_ll_setup+0x204>)
 8003000:	9705      	str	r7, [sp, #20]
 8003002:	a901      	add	r1, sp, #4
 8003004:	f000 fc0e 	bl	8003824 <GPIO_Init>
 8003008:	e749      	b.n	8002e9e <gpio_ll_setup+0x62>
 800300a:	4649      	mov	r1, r9
 800300c:	2002      	movs	r0, #2
 800300e:	f7fe f983 	bl	8001318 <RCC_AHB1PeriphClockCmd>
 8003012:	fa09 f305 	lsl.w	r3, r9, r5
 8003016:	2f01      	cmp	r7, #1
 8003018:	9402      	str	r4, [sp, #8]
 800301a:	9404      	str	r4, [sp, #16]
 800301c:	f8cd 900c 	str.w	r9, [sp, #12]
 8003020:	9301      	str	r3, [sp, #4]
 8003022:	d004      	beq.n	800302e <gpio_ll_setup+0x1f2>
 8003024:	2f02      	cmp	r7, #2
 8003026:	d002      	beq.n	800302e <gpio_ll_setup+0x1f2>
 8003028:	2f00      	cmp	r7, #0
 800302a:	f47f af1e 	bne.w	8002e6a <gpio_ll_setup+0x2e>
 800302e:	4805      	ldr	r0, [pc, #20]	@ (8003044 <gpio_ll_setup+0x208>)
 8003030:	9705      	str	r7, [sp, #20]
 8003032:	a901      	add	r1, sp, #4
 8003034:	f000 fbf6 	bl	8003824 <GPIO_Init>
 8003038:	e731      	b.n	8002e9e <gpio_ll_setup+0x62>
 800303a:	bf00      	nop
 800303c:	40020000 	.word	0x40020000
 8003040:	40020800 	.word	0x40020800
 8003044:	40020400 	.word	0x40020400

08003048 <gpio_ll_get>:
 8003048:	b510      	push	{r4, lr}
 800304a:	7803      	ldrb	r3, [r0, #0]
 800304c:	2b01      	cmp	r3, #1
 800304e:	4604      	mov	r4, r0
 8003050:	d005      	beq.n	800305e <gpio_ll_get+0x16>
 8003052:	2b02      	cmp	r3, #2
 8003054:	d00d      	beq.n	8003072 <gpio_ll_get+0x2a>
 8003056:	b143      	cbz	r3, 800306a <gpio_ll_get+0x22>
 8003058:	f04f 30ff 	mov.w	r0, #4294967295	@ 0xffffffff
 800305c:	bd10      	pop	{r4, pc}
 800305e:	4807      	ldr	r0, [pc, #28]	@ (800307c <gpio_ll_get+0x34>)
 8003060:	f000 fc36 	bl	80038d0 <GPIO_ReadInputData>
 8003064:	8863      	ldrh	r3, [r4, #2]
 8003066:	4018      	ands	r0, r3
 8003068:	bd10      	pop	{r4, pc}
 800306a:	4805      	ldr	r0, [pc, #20]	@ (8003080 <gpio_ll_get+0x38>)
 800306c:	f000 fc30 	bl	80038d0 <GPIO_ReadInputData>
 8003070:	e7f8      	b.n	8003064 <gpio_ll_get+0x1c>
 8003072:	4804      	ldr	r0, [pc, #16]	@ (8003084 <gpio_ll_get+0x3c>)
 8003074:	f000 fc2c 	bl	80038d0 <GPIO_ReadInputData>
 8003078:	e7f4      	b.n	8003064 <gpio_ll_get+0x1c>
 800307a:	bf00      	nop
 800307c:	40020400 	.word	0x40020400
 8003080:	40020000 	.word	0x40020000
 8003084:	40020800 	.word	0x40020800

08003088 <gpio_ll_set>:
 8003088:	b500      	push	{lr}
 800308a:	7803      	ldrb	r3, [r0, #0]
 800308c:	8842      	ldrh	r2, [r0, #2]
 800308e:	2b01      	cmp	r3, #1
 8003090:	ea01 0102 	and.w	r1, r1, r2
 8003094:	d006      	beq.n	80030a4 <gpio_ll_set+0x1c>
 8003096:	2b02      	cmp	r3, #2
 8003098:	d00e      	beq.n	80030b8 <gpio_ll_set+0x30>
 800309a:	b14b      	cbz	r3, 80030b0 <gpio_ll_set+0x28>
 800309c:	f04f 30ff 	mov.w	r0, #4294967295	@ 0xffffffff
 80030a0:	f85d fb04 	ldr.w	pc, [sp], #4
 80030a4:	4806      	ldr	r0, [pc, #24]	@ (80030c0 <gpio_ll_set+0x38>)
 80030a6:	f000 fc17 	bl	80038d8 <GPIO_SetBits>
 80030aa:	2000      	movs	r0, #0
 80030ac:	f85d fb04 	ldr.w	pc, [sp], #4
 80030b0:	4804      	ldr	r0, [pc, #16]	@ (80030c4 <gpio_ll_set+0x3c>)
 80030b2:	f000 fc11 	bl	80038d8 <GPIO_SetBits>
 80030b6:	e7f8      	b.n	80030aa <gpio_ll_set+0x22>
 80030b8:	4803      	ldr	r0, [pc, #12]	@ (80030c8 <gpio_ll_set+0x40>)
 80030ba:	f000 fc0d 	bl	80038d8 <GPIO_SetBits>
 80030be:	e7f4      	b.n	80030aa <gpio_ll_set+0x22>
 80030c0:	40020400 	.word	0x40020400
 80030c4:	40020000 	.word	0x40020000
 80030c8:	40020800 	.word	0x40020800

080030cc <gpio_ll_clear>:
 80030cc:	b500      	push	{lr}
 80030ce:	7803      	ldrb	r3, [r0, #0]
 80030d0:	8842      	ldrh	r2, [r0, #2]
 80030d2:	2b01      	cmp	r3, #1
 80030d4:	ea01 0102 	and.w	r1, r1, r2
 80030d8:	d006      	beq.n	80030e8 <gpio_ll_clear+0x1c>
 80030da:	2b02      	cmp	r3, #2
 80030dc:	d00e      	beq.n	80030fc <gpio_ll_clear+0x30>
 80030de:	b14b      	cbz	r3, 80030f4 <gpio_ll_clear+0x28>
 80030e0:	f04f 30ff 	mov.w	r0, #4294967295	@ 0xffffffff
 80030e4:	f85d fb04 	ldr.w	pc, [sp], #4
 80030e8:	4806      	ldr	r0, [pc, #24]	@ (8003104 <gpio_ll_clear+0x38>)
 80030ea:	f000 fbf9 	bl	80038e0 <GPIO_ResetBits>
 80030ee:	2000      	movs	r0, #0
 80030f0:	f85d fb04 	ldr.w	pc, [sp], #4
 80030f4:	4804      	ldr	r0, [pc, #16]	@ (8003108 <gpio_ll_clear+0x3c>)
 80030f6:	f000 fbf3 	bl	80038e0 <GPIO_ResetBits>
 80030fa:	e7f8      	b.n	80030ee <gpio_ll_clear+0x22>
 80030fc:	4803      	ldr	r0, [pc, #12]	@ (800310c <gpio_ll_clear+0x40>)
 80030fe:	f000 fbef 	bl	80038e0 <GPIO_ResetBits>
 8003102:	e7f4      	b.n	80030ee <gpio_ll_clear+0x22>
 8003104:	40020400 	.word	0x40020400
 8003108:	40020000 	.word	0x40020000
 800310c:	40020800 	.word	0x40020800

08003110 <gpio_ll_toggle>:
 8003110:	b500      	push	{lr}
 8003112:	7803      	ldrb	r3, [r0, #0]
 8003114:	8842      	ldrh	r2, [r0, #2]
 8003116:	2b01      	cmp	r3, #1
 8003118:	ea01 0102 	and.w	r1, r1, r2
 800311c:	d006      	beq.n	800312c <gpio_ll_toggle+0x1c>
 800311e:	2b02      	cmp	r3, #2
 8003120:	d00e      	beq.n	8003140 <gpio_ll_toggle+0x30>
 8003122:	b14b      	cbz	r3, 8003138 <gpio_ll_toggle+0x28>
 8003124:	f04f 30ff 	mov.w	r0, #4294967295	@ 0xffffffff
 8003128:	f85d fb04 	ldr.w	pc, [sp], #4
 800312c:	4806      	ldr	r0, [pc, #24]	@ (8003148 <gpio_ll_toggle+0x38>)
 800312e:	f000 fbdb 	bl	80038e8 <GPIO_ToggleBits>
 8003132:	2000      	movs	r0, #0
 8003134:	f85d fb04 	ldr.w	pc, [sp], #4
 8003138:	4804      	ldr	r0, [pc, #16]	@ (800314c <gpio_ll_toggle+0x3c>)
 800313a:	f000 fbd5 	bl	80038e8 <GPIO_ToggleBits>
 800313e:	e7f8      	b.n	8003132 <gpio_ll_toggle+0x22>
 8003140:	4803      	ldr	r0, [pc, #12]	@ (8003150 <gpio_ll_toggle+0x40>)
 8003142:	f000 fbd1 	bl	80038e8 <GPIO_ToggleBits>
 8003146:	e7f4      	b.n	8003132 <gpio_ll_toggle+0x22>
 8003148:	40020400 	.word	0x40020400
 800314c:	40020000 	.word	0x40020000
 8003150:	40020800 	.word	0x40020800

08003154 <EXTI0_IRQHandler>:
 8003154:	b500      	push	{lr}
 8003156:	2001      	movs	r0, #1
 8003158:	f000 fb54 	bl	8003804 <EXTI_GetITStatus>
 800315c:	b138      	cbz	r0, 800316e <EXTI0_IRQHandler+0x1a>
 800315e:	4b05      	ldr	r3, [pc, #20]	@ (8003174 <EXTI0_IRQHandler+0x20>)
 8003160:	681b      	ldr	r3, [r3, #0]
 8003162:	4798      	blx	r3
 8003164:	f85d eb04 	ldr.w	lr, [sp], #4
 8003168:	2001      	movs	r0, #1
 800316a:	f000 bb55 	b.w	8003818 <EXTI_ClearITPendingBit>
 800316e:	f85d fb04 	ldr.w	pc, [sp], #4
 8003172:	bf00      	nop
 8003174:	20001378 	.word	0x20001378

08003178 <EXTI1_IRQHandler>:
 8003178:	b500      	push	{lr}
 800317a:	2002      	movs	r0, #2
 800317c:	f000 fb42 	bl	8003804 <EXTI_GetITStatus>
 8003180:	b138      	cbz	r0, 8003192 <EXTI1_IRQHandler+0x1a>
 8003182:	4b05      	ldr	r3, [pc, #20]	@ (8003198 <EXTI1_IRQHandler+0x20>)
 8003184:	685b      	ldr	r3, [r3, #4]
 8003186:	4798      	blx	r3
 8003188:	f85d eb04 	ldr.w	lr, [sp], #4
 800318c:	2002      	movs	r0, #2
 800318e:	f000 bb43 	b.w	8003818 <EXTI_ClearITPendingBit>
 8003192:	f85d fb04 	ldr.w	pc, [sp], #4
 8003196:	bf00      	nop
 8003198:	20001378 	.word	0x20001378

0800319c <EXTI2_IRQHandler>:
 800319c:	b500      	push	{lr}
 800319e:	2004      	movs	r0, #4
 80031a0:	f000 fb30 	bl	8003804 <EXTI_GetITStatus>
 80031a4:	b138      	cbz	r0, 80031b6 <EXTI2_IRQHandler+0x1a>
 80031a6:	4b05      	ldr	r3, [pc, #20]	@ (80031bc <EXTI2_IRQHandler+0x20>)
 80031a8:	689b      	ldr	r3, [r3, #8]
 80031aa:	4798      	blx	r3
 80031ac:	f85d eb04 	ldr.w	lr, [sp], #4
 80031b0:	2004      	movs	r0, #4
 80031b2:	f000 bb31 	b.w	8003818 <EXTI_ClearITPendingBit>
 80031b6:	f85d fb04 	ldr.w	pc, [sp], #4
 80031ba:	bf00      	nop
 80031bc:	20001378 	.word	0x20001378

080031c0 <EXTI3_IRQHandler>:
 80031c0:	b500      	push	{lr}
 80031c2:	2008      	movs	r0, #8
 80031c4:	f000 fb1e 	bl	8003804 <EXTI_GetITStatus>
 80031c8:	b138      	cbz	r0, 80031da <EXTI3_IRQHandler+0x1a>
 80031ca:	4b05      	ldr	r3, [pc, #20]	@ (80031e0 <EXTI3_IRQHandler+0x20>)
 80031cc:	68db      	ldr	r3, [r3, #12]
 80031ce:	4798      	blx	r3
 80031d0:	f85d eb04 	ldr.w	lr, [sp], #4
 80031d4:	2008      	movs	r0, #8
 80031d6:	f000 bb1f 	b.w	8003818 <EXTI_ClearITPendingBit>
 80031da:	f85d fb04 	ldr.w	pc, [sp], #4
 80031de:	bf00      	nop
 80031e0:	20001378 	.word	0x20001378

080031e4 <EXTI4_IRQHandler>:
 80031e4:	b500      	push	{lr}
 80031e6:	2010      	movs	r0, #16
 80031e8:	f000 fb0c 	bl	8003804 <EXTI_GetITStatus>
 80031ec:	b138      	cbz	r0, 80031fe <EXTI4_IRQHandler+0x1a>
 80031ee:	4b05      	ldr	r3, [pc, #20]	@ (8003204 <EXTI4_IRQHandler+0x20>)
 80031f0:	691b      	ldr	r3, [r3, #16]
 80031f2:	4798      	blx	r3
 80031f4:	f85d eb04 	ldr.w	lr, [sp], #4
 80031f8:	2010      	movs	r0, #16
 80031fa:	f000 bb0d 	b.w	8003818 <EXTI_ClearITPendingBit>
 80031fe:	f85d fb04 	ldr.w	pc, [sp], #4
 8003202:	bf00      	nop
 8003204:	20001378 	.word	0x20001378

08003208 <EXTI9_5_IRQHandler>:
 8003208:	b500      	push	{lr}
 800320a:	2020      	movs	r0, #32
 800320c:	f000 fafa 	bl	8003804 <EXTI_GetITStatus>
 8003210:	b128      	cbz	r0, 800321e <EXTI9_5_IRQHandler+0x16>
 8003212:	4b1b      	ldr	r3, [pc, #108]	@ (8003280 <EXTI9_5_IRQHandler+0x78>)
 8003214:	695b      	ldr	r3, [r3, #20]
 8003216:	4798      	blx	r3
 8003218:	2020      	movs	r0, #32
 800321a:	f000 fafd 	bl	8003818 <EXTI_ClearITPendingBit>
 800321e:	2040      	movs	r0, #64	@ 0x40
 8003220:	f000 faf0 	bl	8003804 <EXTI_GetITStatus>
 8003224:	b128      	cbz	r0, 8003232 <EXTI9_5_IRQHandler+0x2a>
 8003226:	4b16      	ldr	r3, [pc, #88]	@ (8003280 <EXTI9_5_IRQHandler+0x78>)
 8003228:	699b      	ldr	r3, [r3, #24]
 800322a:	4798      	blx	r3
 800322c:	2040      	movs	r0, #64	@ 0x40
 800322e:	f000 faf3 	bl	8003818 <EXTI_ClearITPendingBit>
 8003232:	2080      	movs	r0, #128	@ 0x80
 8003234:	f000 fae6 	bl	8003804 <EXTI_GetITStatus>
 8003238:	b128      	cbz	r0, 8003246 <EXTI9_5_IRQHandler+0x3e>
 800323a:	4b11      	ldr	r3, [pc, #68]	@ (8003280 <EXTI9_5_IRQHandler+0x78>)
 800323c:	69db      	ldr	r3, [r3, #28]
 800323e:	4798      	blx	r3
 8003240:	2080      	movs	r0, #128	@ 0x80
 8003242:	f000 fae9 	bl	8003818 <EXTI_ClearITPendingBit>
 8003246:	f44f 7080 	mov.w	r0, #256	@ 0x100
 800324a:	f000 fadb 	bl	8003804 <EXTI_GetITStatus>
 800324e:	b130      	cbz	r0, 800325e <EXTI9_5_IRQHandler+0x56>
 8003250:	4b0b      	ldr	r3, [pc, #44]	@ (8003280 <EXTI9_5_IRQHandler+0x78>)
 8003252:	6a1b      	ldr	r3, [r3, #32]
 8003254:	4798      	blx	r3
 8003256:	f44f 7080 	mov.w	r0, #256	@ 0x100
 800325a:	f000 fadd 	bl	8003818 <EXTI_ClearITPendingBit>
 800325e:	f44f 7000 	mov.w	r0, #512	@ 0x200
 8003262:	f000 facf 	bl	8003804 <EXTI_GetITStatus>
 8003266:	b140      	cbz	r0, 800327a <EXTI9_5_IRQHandler+0x72>
 8003268:	4b05      	ldr	r3, [pc, #20]	@ (8003280 <EXTI9_5_IRQHandler+0x78>)
 800326a:	6a5b      	ldr	r3, [r3, #36]	@ 0x24
 800326c:	4798      	blx	r3
 800326e:	f85d eb04 	ldr.w	lr, [sp], #4
 8003272:	f44f 7000 	mov.w	r0, #512	@ 0x200
 8003276:	f000 bacf 	b.w	8003818 <EXTI_ClearITPendingBit>
 800327a:	f85d fb04 	ldr.w	pc, [sp], #4
 800327e:	bf00      	nop
 8003280:	20001378 	.word	0x20001378

08003284 <EXTI15_10_IRQHandler>:
 8003284:	b500      	push	{lr}
 8003286:	f44f 6080 	mov.w	r0, #1024	@ 0x400
 800328a:	f000 fabb 	bl	8003804 <EXTI_GetITStatus>
 800328e:	b130      	cbz	r0, 800329e <EXTI15_10_IRQHandler+0x1a>
 8003290:	4b23      	ldr	r3, [pc, #140]	@ (8003320 <EXTI15_10_IRQHandler+0x9c>)
 8003292:	6a9b      	ldr	r3, [r3, #40]	@ 0x28
 8003294:	4798      	blx	r3
 8003296:	f44f 6080 	mov.w	r0, #1024	@ 0x400
 800329a:	f000 fabd 	bl	8003818 <EXTI_ClearITPendingBit>
 800329e:	f44f 6000 	mov.w	r0, #2048	@ 0x800
 80032a2:	f000 faaf 	bl	8003804 <EXTI_GetITStatus>
 80032a6:	b130      	cbz	r0, 80032b6 <EXTI15_10_IRQHandler+0x32>
 80032a8:	4b1d      	ldr	r3, [pc, #116]	@ (8003320 <EXTI15_10_IRQHandler+0x9c>)
 80032aa:	6adb      	ldr	r3, [r3, #44]	@ 0x2c
 80032ac:	4798      	blx	r3
 80032ae:	f44f 6000 	mov.w	r0, #2048	@ 0x800
 80032b2:	f000 fab1 	bl	8003818 <EXTI_ClearITPendingBit>
 80032b6:	f44f 5080 	mov.w	r0, #4096	@ 0x1000
 80032ba:	f000 faa3 	bl	8003804 <EXTI_GetITStatus>
 80032be:	b130      	cbz	r0, 80032ce <EXTI15_10_IRQHandler+0x4a>
 80032c0:	4b17      	ldr	r3, [pc, #92]	@ (8003320 <EXTI15_10_IRQHandler+0x9c>)
 80032c2:	6b1b      	ldr	r3, [r3, #48]	@ 0x30
 80032c4:	4798      	blx	r3
 80032c6:	f44f 5080 	mov.w	r0, #4096	@ 0x1000
 80032ca:	f000 faa5 	bl	8003818 <EXTI_ClearITPendingBit>
 80032ce:	f44f 5000 	mov.w	r0, #8192	@ 0x2000
 80032d2:	f000 fa97 	bl	8003804 <EXTI_GetITStatus>
 80032d6:	b130      	cbz	r0, 80032e6 <EXTI15_10_IRQHandler+0x62>
 80032d8:	4b11      	ldr	r3, [pc, #68]	@ (8003320 <EXTI15_10_IRQHandler+0x9c>)
 80032da:	6b5b      	ldr	r3, [r3, #52]	@ 0x34
 80032dc:	4798      	blx	r3
 80032de:	f44f 5000 	mov.w	r0, #8192	@ 0x2000
 80032e2:	f000 fa99 	bl	8003818 <EXTI_ClearITPendingBit>
 80032e6:	f44f 4080 	mov.w	r0, #16384	@ 0x4000
 80032ea:	f000 fa8b 	bl	8003804 <EXTI_GetITStatus>
 80032ee:	b130      	cbz	r0, 80032fe <EXTI15_10_IRQHandler+0x7a>
 80032f0:	4b0b      	ldr	r3, [pc, #44]	@ (8003320 <EXTI15_10_IRQHandler+0x9c>)
 80032f2:	6b9b      	ldr	r3, [r3, #56]	@ 0x38
 80032f4:	4798      	blx	r3
 80032f6:	f44f 4080 	mov.w	r0, #16384	@ 0x4000
 80032fa:	f000 fa8d 	bl	8003818 <EXTI_ClearITPendingBit>
 80032fe:	f44f 4000 	mov.w	r0, #32768	@ 0x8000
 8003302:	f000 fa7f 	bl	8003804 <EXTI_GetITStatus>
 8003306:	b140      	cbz	r0, 800331a <EXTI15_10_IRQHandler+0x96>
 8003308:	4b05      	ldr	r3, [pc, #20]	@ (8003320 <EXTI15_10_IRQHandler+0x9c>)
 800330a:	6bdb      	ldr	r3, [r3, #60]	@ 0x3c
 800330c:	4798      	blx	r3
 800330e:	f85d eb04 	ldr.w	lr, [sp], #4
 8003312:	f44f 4000 	mov.w	r0, #32768	@ 0x8000
 8003316:	f000 ba7f 	b.w	8003818 <EXTI_ClearITPendingBit>
 800331a:	f85d fb04 	ldr.w	pc, [sp], #4
 800331e:	bf00      	nop
 8003320:	20001378 	.word	0x20001378

08003324 <gpio_ll_int_attach>:
 8003324:	b5f0      	push	{r4, r5, r6, r7, lr}
 8003326:	461d      	mov	r5, r3
 8003328:	b086      	sub	sp, #24
 800332a:	460c      	mov	r4, r1
 800332c:	4606      	mov	r6, r0
 800332e:	2101      	movs	r1, #1
 8003330:	f44f 4080 	mov.w	r0, #16384	@ 0x4000
 8003334:	4617      	mov	r7, r2
 8003336:	f7fe f813 	bl	8001360 <RCC_APB2PeriphClockCmd>
 800333a:	2d03      	cmp	r5, #3
 800333c:	d06c      	beq.n	8003418 <gpio_ll_int_attach+0xf4>
 800333e:	2d04      	cmp	r5, #4
 8003340:	d005      	beq.n	800334e <gpio_ll_int_attach+0x2a>
 8003342:	2d02      	cmp	r5, #2
 8003344:	d066      	beq.n	8003414 <gpio_ll_int_attach+0xf0>
 8003346:	f04f 30ff 	mov.w	r0, #4294967295	@ 0xffffffff
 800334a:	b006      	add	sp, #24
 800334c:	bdf0      	pop	{r4, r5, r6, r7, pc}
 800334e:	2210      	movs	r2, #16
 8003350:	7830      	ldrb	r0, [r6, #0]
 8003352:	9204      	str	r2, [sp, #16]
 8003354:	2301      	movs	r3, #1
 8003356:	2100      	movs	r1, #0
 8003358:	9305      	str	r3, [sp, #20]
 800335a:	9301      	str	r3, [sp, #4]
 800335c:	2801      	cmp	r0, #1
 800335e:	f240 1301 	movw	r3, #257	@ 0x101
 8003362:	9103      	str	r1, [sp, #12]
 8003364:	f8ad 3001 	strh.w	r3, [sp, #1]
 8003368:	f000 8087 	beq.w	800347a <gpio_ll_int_attach+0x156>
 800336c:	2802      	cmp	r0, #2
 800336e:	f000 80d7 	beq.w	8003520 <gpio_ll_int_attach+0x1fc>
 8003372:	2800      	cmp	r0, #0
 8003374:	d1e7      	bne.n	8003346 <gpio_ll_int_attach+0x22>
 8003376:	f5b4 7f80 	cmp.w	r4, #256	@ 0x100
 800337a:	f000 8147 	beq.w	800360c <gpio_ll_int_attach+0x2e8>
 800337e:	dc65      	bgt.n	800344c <gpio_ll_int_attach+0x128>
 8003380:	2c20      	cmp	r4, #32
 8003382:	dc4b      	bgt.n	800341c <gpio_ll_int_attach+0xf8>
 8003384:	428c      	cmp	r4, r1
 8003386:	ddde      	ble.n	8003346 <gpio_ll_int_attach+0x22>
 8003388:	3c01      	subs	r4, #1
 800338a:	2c1f      	cmp	r4, #31
 800338c:	d8db      	bhi.n	8003346 <gpio_ll_int_attach+0x22>
 800338e:	a301      	add	r3, pc, #4	@ (adr r3, 8003394 <gpio_ll_int_attach+0x70>)
 8003390:	f853 f024 	ldr.w	pc, [r3, r4, lsl #2]
 8003394:	08003699 	.word	0x08003699
 8003398:	08003681 	.word	0x08003681
 800339c:	08003347 	.word	0x08003347
 80033a0:	08003669 	.word	0x08003669
 80033a4:	08003347 	.word	0x08003347
 80033a8:	08003347 	.word	0x08003347
 80033ac:	08003347 	.word	0x08003347
 80033b0:	08003651 	.word	0x08003651
 80033b4:	08003347 	.word	0x08003347
 80033b8:	08003347 	.word	0x08003347
 80033bc:	08003347 	.word	0x08003347
 80033c0:	08003347 	.word	0x08003347
 80033c4:	08003347 	.word	0x08003347
 80033c8:	08003347 	.word	0x08003347
 80033cc:	08003347 	.word	0x08003347
 80033d0:	08003639 	.word	0x08003639
 80033d4:	08003347 	.word	0x08003347
 80033d8:	08003347 	.word	0x08003347
 80033dc:	08003347 	.word	0x08003347
 80033e0:	08003347 	.word	0x08003347
 80033e4:	08003347 	.word	0x08003347
 80033e8:	08003347 	.word	0x08003347
 80033ec:	08003347 	.word	0x08003347
 80033f0:	08003347 	.word	0x08003347
 80033f4:	08003347 	.word	0x08003347
 80033f8:	08003347 	.word	0x08003347
 80033fc:	08003347 	.word	0x08003347
 8003400:	08003347 	.word	0x08003347
 8003404:	08003347 	.word	0x08003347
 8003408:	08003347 	.word	0x08003347
 800340c:	08003347 	.word	0x08003347
 8003410:	08003621 	.word	0x08003621
 8003414:	2208      	movs	r2, #8
 8003416:	e79b      	b.n	8003350 <gpio_ll_int_attach+0x2c>
 8003418:	220c      	movs	r2, #12
 800341a:	e799      	b.n	8003350 <gpio_ll_int_attach+0x2c>
 800341c:	2c40      	cmp	r4, #64	@ 0x40
 800341e:	f000 8163 	beq.w	80036e8 <gpio_ll_int_attach+0x3c4>
 8003422:	2c80      	cmp	r4, #128	@ 0x80
 8003424:	d18f      	bne.n	8003346 <gpio_ll_int_attach+0x22>
 8003426:	2107      	movs	r1, #7
 8003428:	f000 fa7a 	bl	8003920 <SYSCFG_EXTILineConfig>
 800342c:	4bb8      	ldr	r3, [pc, #736]	@ (8003710 <gpio_ll_int_attach+0x3ec>)
 800342e:	9402      	str	r4, [sp, #8]
 8003430:	2217      	movs	r2, #23
 8003432:	f88d 2000 	strb.w	r2, [sp]
 8003436:	61df      	str	r7, [r3, #28]
 8003438:	a802      	add	r0, sp, #8
 800343a:	f000 f9a7 	bl	800378c <EXTI_Init>
 800343e:	48b5      	ldr	r0, [pc, #724]	@ (8003714 <gpio_ll_int_attach+0x3f0>)
 8003440:	4669      	mov	r1, sp
 8003442:	f7fd f919 	bl	8000678 <syscall>
 8003446:	2000      	movs	r0, #0
 8003448:	b006      	add	sp, #24
 800344a:	bdf0      	pop	{r4, r5, r6, r7, pc}
 800344c:	f5b4 5f80 	cmp.w	r4, #4096	@ 0x1000
 8003450:	f000 8140 	beq.w	80036d4 <gpio_ll_int_attach+0x3b0>
 8003454:	dd78      	ble.n	8003548 <gpio_ll_int_attach+0x224>
 8003456:	f5b4 4f80 	cmp.w	r4, #16384	@ 0x4000
 800345a:	f000 80cd 	beq.w	80035f8 <gpio_ll_int_attach+0x2d4>
 800345e:	f5b4 4f00 	cmp.w	r4, #32768	@ 0x8000
 8003462:	f040 8082 	bne.w	800356a <gpio_ll_int_attach+0x246>
 8003466:	210f      	movs	r1, #15
 8003468:	f000 fa5a 	bl	8003920 <SYSCFG_EXTILineConfig>
 800346c:	4ba8      	ldr	r3, [pc, #672]	@ (8003710 <gpio_ll_int_attach+0x3ec>)
 800346e:	9402      	str	r4, [sp, #8]
 8003470:	2228      	movs	r2, #40	@ 0x28
 8003472:	f88d 2000 	strb.w	r2, [sp]
 8003476:	63df      	str	r7, [r3, #60]	@ 0x3c
 8003478:	e7de      	b.n	8003438 <gpio_ll_int_attach+0x114>
 800347a:	f5b4 7f80 	cmp.w	r4, #256	@ 0x100
 800347e:	f000 80c5 	beq.w	800360c <gpio_ll_int_attach+0x2e8>
 8003482:	f300 8083 	bgt.w	800358c <gpio_ll_int_attach+0x268>
 8003486:	2c20      	cmp	r4, #32
 8003488:	dcc8      	bgt.n	800341c <gpio_ll_int_attach+0xf8>
 800348a:	2c00      	cmp	r4, #0
 800348c:	f77f af5b 	ble.w	8003346 <gpio_ll_int_attach+0x22>
 8003490:	3c01      	subs	r4, #1
 8003492:	2c1f      	cmp	r4, #31
 8003494:	f63f af57 	bhi.w	8003346 <gpio_ll_int_attach+0x22>
 8003498:	a301      	add	r3, pc, #4	@ (adr r3, 80034a0 <gpio_ll_int_attach+0x17c>)
 800349a:	f853 f024 	ldr.w	pc, [r3, r4, lsl #2]
 800349e:	bf00      	nop
 80034a0:	080036cf 	.word	0x080036cf
 80034a4:	080036c9 	.word	0x080036c9
 80034a8:	08003347 	.word	0x08003347
 80034ac:	080036c3 	.word	0x080036c3
 80034b0:	08003347 	.word	0x08003347
 80034b4:	08003347 	.word	0x08003347
 80034b8:	08003347 	.word	0x08003347
 80034bc:	080036bd 	.word	0x080036bd
 80034c0:	08003347 	.word	0x08003347
 80034c4:	08003347 	.word	0x08003347
 80034c8:	08003347 	.word	0x08003347
 80034cc:	08003347 	.word	0x08003347
 80034d0:	08003347 	.word	0x08003347
 80034d4:	08003347 	.word	0x08003347
 80034d8:	08003347 	.word	0x08003347
 80034dc:	080036b7 	.word	0x080036b7
 80034e0:	08003347 	.word	0x08003347
 80034e4:	08003347 	.word	0x08003347
 80034e8:	08003347 	.word	0x08003347
 80034ec:	08003347 	.word	0x08003347
 80034f0:	08003347 	.word	0x08003347
 80034f4:	08003347 	.word	0x08003347
 80034f8:	08003347 	.word	0x08003347
 80034fc:	08003347 	.word	0x08003347
 8003500:	08003347 	.word	0x08003347
 8003504:	08003347 	.word	0x08003347
 8003508:	08003347 	.word	0x08003347
 800350c:	08003347 	.word	0x08003347
 8003510:	08003347 	.word	0x08003347
 8003514:	08003347 	.word	0x08003347
 8003518:	08003347 	.word	0x08003347
 800351c:	080036b1 	.word	0x080036b1
 8003520:	f5b4 4f80 	cmp.w	r4, #16384	@ 0x4000
 8003524:	d068      	beq.n	80035f8 <gpio_ll_int_attach+0x2d4>
 8003526:	f5b4 4f00 	cmp.w	r4, #32768	@ 0x8000
 800352a:	d09c      	beq.n	8003466 <gpio_ll_int_attach+0x142>
 800352c:	f5b4 5f00 	cmp.w	r4, #8192	@ 0x2000
 8003530:	f47f af09 	bne.w	8003346 <gpio_ll_int_attach+0x22>
 8003534:	210d      	movs	r1, #13
 8003536:	f000 f9f3 	bl	8003920 <SYSCFG_EXTILineConfig>
 800353a:	4b75      	ldr	r3, [pc, #468]	@ (8003710 <gpio_ll_int_attach+0x3ec>)
 800353c:	9402      	str	r4, [sp, #8]
 800353e:	2228      	movs	r2, #40	@ 0x28
 8003540:	f88d 2000 	strb.w	r2, [sp]
 8003544:	635f      	str	r7, [r3, #52]	@ 0x34
 8003546:	e777      	b.n	8003438 <gpio_ll_int_attach+0x114>
 8003548:	f5b4 6f80 	cmp.w	r4, #1024	@ 0x400
 800354c:	f000 80d6 	beq.w	80036fc <gpio_ll_int_attach+0x3d8>
 8003550:	f5b4 6f00 	cmp.w	r4, #2048	@ 0x800
 8003554:	d12a      	bne.n	80035ac <gpio_ll_int_attach+0x288>
 8003556:	210b      	movs	r1, #11
 8003558:	f000 f9e2 	bl	8003920 <SYSCFG_EXTILineConfig>
 800355c:	4b6c      	ldr	r3, [pc, #432]	@ (8003710 <gpio_ll_int_attach+0x3ec>)
 800355e:	9402      	str	r4, [sp, #8]
 8003560:	2228      	movs	r2, #40	@ 0x28
 8003562:	f88d 2000 	strb.w	r2, [sp]
 8003566:	62df      	str	r7, [r3, #44]	@ 0x2c
 8003568:	e766      	b.n	8003438 <gpio_ll_int_attach+0x114>
 800356a:	f5b4 5f00 	cmp.w	r4, #8192	@ 0x2000
 800356e:	f47f aeea 	bne.w	8003346 <gpio_ll_int_attach+0x22>
 8003572:	210d      	movs	r1, #13
 8003574:	2000      	movs	r0, #0
 8003576:	f000 f9d3 	bl	8003920 <SYSCFG_EXTILineConfig>
 800357a:	4b65      	ldr	r3, [pc, #404]	@ (8003710 <gpio_ll_int_attach+0x3ec>)
 800357c:	f44f 5100 	mov.w	r1, #8192	@ 0x2000
 8003580:	2228      	movs	r2, #40	@ 0x28
 8003582:	9102      	str	r1, [sp, #8]
 8003584:	f88d 2000 	strb.w	r2, [sp]
 8003588:	635f      	str	r7, [r3, #52]	@ 0x34
 800358a:	e755      	b.n	8003438 <gpio_ll_int_attach+0x114>
 800358c:	f5b4 5f80 	cmp.w	r4, #4096	@ 0x1000
 8003590:	f000 80a0 	beq.w	80036d4 <gpio_ll_int_attach+0x3b0>
 8003594:	dd1b      	ble.n	80035ce <gpio_ll_int_attach+0x2aa>
 8003596:	f5b4 4f80 	cmp.w	r4, #16384	@ 0x4000
 800359a:	d02d      	beq.n	80035f8 <gpio_ll_int_attach+0x2d4>
 800359c:	f5b4 4f00 	cmp.w	r4, #32768	@ 0x8000
 80035a0:	f43f af61 	beq.w	8003466 <gpio_ll_int_attach+0x142>
 80035a4:	f5b4 5f00 	cmp.w	r4, #8192	@ 0x2000
 80035a8:	d0c4      	beq.n	8003534 <gpio_ll_int_attach+0x210>
 80035aa:	e6cc      	b.n	8003346 <gpio_ll_int_attach+0x22>
 80035ac:	f5b4 7f00 	cmp.w	r4, #512	@ 0x200
 80035b0:	f47f aec9 	bne.w	8003346 <gpio_ll_int_attach+0x22>
 80035b4:	2109      	movs	r1, #9
 80035b6:	2000      	movs	r0, #0
 80035b8:	f000 f9b2 	bl	8003920 <SYSCFG_EXTILineConfig>
 80035bc:	4b54      	ldr	r3, [pc, #336]	@ (8003710 <gpio_ll_int_attach+0x3ec>)
 80035be:	f44f 7100 	mov.w	r1, #512	@ 0x200
 80035c2:	2217      	movs	r2, #23
 80035c4:	9102      	str	r1, [sp, #8]
 80035c6:	f88d 2000 	strb.w	r2, [sp]
 80035ca:	625f      	str	r7, [r3, #36]	@ 0x24
 80035cc:	e734      	b.n	8003438 <gpio_ll_int_attach+0x114>
 80035ce:	f5b4 6f80 	cmp.w	r4, #1024	@ 0x400
 80035d2:	f000 8093 	beq.w	80036fc <gpio_ll_int_attach+0x3d8>
 80035d6:	f5b4 6f00 	cmp.w	r4, #2048	@ 0x800
 80035da:	d0bc      	beq.n	8003556 <gpio_ll_int_attach+0x232>
 80035dc:	f5b4 7f00 	cmp.w	r4, #512	@ 0x200
 80035e0:	f47f aeb1 	bne.w	8003346 <gpio_ll_int_attach+0x22>
 80035e4:	2109      	movs	r1, #9
 80035e6:	f000 f99b 	bl	8003920 <SYSCFG_EXTILineConfig>
 80035ea:	4b49      	ldr	r3, [pc, #292]	@ (8003710 <gpio_ll_int_attach+0x3ec>)
 80035ec:	9402      	str	r4, [sp, #8]
 80035ee:	2217      	movs	r2, #23
 80035f0:	f88d 2000 	strb.w	r2, [sp]
 80035f4:	625f      	str	r7, [r3, #36]	@ 0x24
 80035f6:	e71f      	b.n	8003438 <gpio_ll_int_attach+0x114>
 80035f8:	210e      	movs	r1, #14
 80035fa:	f000 f991 	bl	8003920 <SYSCFG_EXTILineConfig>
 80035fe:	4b44      	ldr	r3, [pc, #272]	@ (8003710 <gpio_ll_int_attach+0x3ec>)
 8003600:	9402      	str	r4, [sp, #8]
 8003602:	2228      	movs	r2, #40	@ 0x28
 8003604:	f88d 2000 	strb.w	r2, [sp]
 8003608:	639f      	str	r7, [r3, #56]	@ 0x38
 800360a:	e715      	b.n	8003438 <gpio_ll_int_attach+0x114>
 800360c:	2108      	movs	r1, #8
 800360e:	f000 f987 	bl	8003920 <SYSCFG_EXTILineConfig>
 8003612:	4b3f      	ldr	r3, [pc, #252]	@ (8003710 <gpio_ll_int_attach+0x3ec>)
 8003614:	9402      	str	r4, [sp, #8]
 8003616:	2217      	movs	r2, #23
 8003618:	f88d 2000 	strb.w	r2, [sp]
 800361c:	621f      	str	r7, [r3, #32]
 800361e:	e70b      	b.n	8003438 <gpio_ll_int_attach+0x114>
 8003620:	2105      	movs	r1, #5
 8003622:	2000      	movs	r0, #0
 8003624:	f000 f97c 	bl	8003920 <SYSCFG_EXTILineConfig>
 8003628:	4b39      	ldr	r3, [pc, #228]	@ (8003710 <gpio_ll_int_attach+0x3ec>)
 800362a:	2120      	movs	r1, #32
 800362c:	2217      	movs	r2, #23
 800362e:	9102      	str	r1, [sp, #8]
 8003630:	f88d 2000 	strb.w	r2, [sp]
 8003634:	615f      	str	r7, [r3, #20]
 8003636:	e6ff      	b.n	8003438 <gpio_ll_int_attach+0x114>
 8003638:	2104      	movs	r1, #4
 800363a:	2000      	movs	r0, #0
 800363c:	f000 f970 	bl	8003920 <SYSCFG_EXTILineConfig>
 8003640:	4b33      	ldr	r3, [pc, #204]	@ (8003710 <gpio_ll_int_attach+0x3ec>)
 8003642:	2110      	movs	r1, #16
 8003644:	220a      	movs	r2, #10
 8003646:	9102      	str	r1, [sp, #8]
 8003648:	f88d 2000 	strb.w	r2, [sp]
 800364c:	611f      	str	r7, [r3, #16]
 800364e:	e6f3      	b.n	8003438 <gpio_ll_int_attach+0x114>
 8003650:	2103      	movs	r1, #3
 8003652:	2000      	movs	r0, #0
 8003654:	f000 f964 	bl	8003920 <SYSCFG_EXTILineConfig>
 8003658:	4b2d      	ldr	r3, [pc, #180]	@ (8003710 <gpio_ll_int_attach+0x3ec>)
 800365a:	2108      	movs	r1, #8
 800365c:	2209      	movs	r2, #9
 800365e:	9102      	str	r1, [sp, #8]
 8003660:	f88d 2000 	strb.w	r2, [sp]
 8003664:	60df      	str	r7, [r3, #12]
 8003666:	e6e7      	b.n	8003438 <gpio_ll_int_attach+0x114>
 8003668:	2102      	movs	r1, #2
 800366a:	2000      	movs	r0, #0
 800366c:	f000 f958 	bl	8003920 <SYSCFG_EXTILineConfig>
 8003670:	4b27      	ldr	r3, [pc, #156]	@ (8003710 <gpio_ll_int_attach+0x3ec>)
 8003672:	2104      	movs	r1, #4
 8003674:	2208      	movs	r2, #8
 8003676:	9102      	str	r1, [sp, #8]
 8003678:	f88d 2000 	strb.w	r2, [sp]
 800367c:	609f      	str	r7, [r3, #8]
 800367e:	e6db      	b.n	8003438 <gpio_ll_int_attach+0x114>
 8003680:	2101      	movs	r1, #1
 8003682:	2000      	movs	r0, #0
 8003684:	f000 f94c 	bl	8003920 <SYSCFG_EXTILineConfig>
 8003688:	4b21      	ldr	r3, [pc, #132]	@ (8003710 <gpio_ll_int_attach+0x3ec>)
 800368a:	2102      	movs	r1, #2
 800368c:	2207      	movs	r2, #7
 800368e:	9102      	str	r1, [sp, #8]
 8003690:	f88d 2000 	strb.w	r2, [sp]
 8003694:	605f      	str	r7, [r3, #4]
 8003696:	e6cf      	b.n	8003438 <gpio_ll_int_attach+0x114>
 8003698:	2100      	movs	r1, #0
 800369a:	4608      	mov	r0, r1
 800369c:	f000 f940 	bl	8003920 <SYSCFG_EXTILineConfig>
 80036a0:	4b1b      	ldr	r3, [pc, #108]	@ (8003710 <gpio_ll_int_attach+0x3ec>)
 80036a2:	2101      	movs	r1, #1
 80036a4:	2206      	movs	r2, #6
 80036a6:	9102      	str	r1, [sp, #8]
 80036a8:	f88d 2000 	strb.w	r2, [sp]
 80036ac:	601f      	str	r7, [r3, #0]
 80036ae:	e6c3      	b.n	8003438 <gpio_ll_int_attach+0x114>
 80036b0:	2105      	movs	r1, #5
 80036b2:	2001      	movs	r0, #1
 80036b4:	e7b6      	b.n	8003624 <gpio_ll_int_attach+0x300>
 80036b6:	2104      	movs	r1, #4
 80036b8:	2001      	movs	r0, #1
 80036ba:	e7bf      	b.n	800363c <gpio_ll_int_attach+0x318>
 80036bc:	2103      	movs	r1, #3
 80036be:	2001      	movs	r0, #1
 80036c0:	e7c8      	b.n	8003654 <gpio_ll_int_attach+0x330>
 80036c2:	2102      	movs	r1, #2
 80036c4:	2001      	movs	r0, #1
 80036c6:	e7d1      	b.n	800366c <gpio_ll_int_attach+0x348>
 80036c8:	2101      	movs	r1, #1
 80036ca:	4608      	mov	r0, r1
 80036cc:	e7da      	b.n	8003684 <gpio_ll_int_attach+0x360>
 80036ce:	2100      	movs	r1, #0
 80036d0:	2001      	movs	r0, #1
 80036d2:	e7e3      	b.n	800369c <gpio_ll_int_attach+0x378>
 80036d4:	210c      	movs	r1, #12
 80036d6:	f000 f923 	bl	8003920 <SYSCFG_EXTILineConfig>
 80036da:	4b0d      	ldr	r3, [pc, #52]	@ (8003710 <gpio_ll_int_attach+0x3ec>)
 80036dc:	9402      	str	r4, [sp, #8]
 80036de:	2228      	movs	r2, #40	@ 0x28
 80036e0:	f88d 2000 	strb.w	r2, [sp]
 80036e4:	631f      	str	r7, [r3, #48]	@ 0x30
 80036e6:	e6a7      	b.n	8003438 <gpio_ll_int_attach+0x114>
 80036e8:	2106      	movs	r1, #6
 80036ea:	f000 f919 	bl	8003920 <SYSCFG_EXTILineConfig>
 80036ee:	4b08      	ldr	r3, [pc, #32]	@ (8003710 <gpio_ll_int_attach+0x3ec>)
 80036f0:	9402      	str	r4, [sp, #8]
 80036f2:	2217      	movs	r2, #23
 80036f4:	f88d 2000 	strb.w	r2, [sp]
 80036f8:	619f      	str	r7, [r3, #24]
 80036fa:	e69d      	b.n	8003438 <gpio_ll_int_attach+0x114>
 80036fc:	210a      	movs	r1, #10
 80036fe:	f000 f90f 	bl	8003920 <SYSCFG_EXTILineConfig>
 8003702:	4b03      	ldr	r3, [pc, #12]	@ (8003710 <gpio_ll_int_attach+0x3ec>)
 8003704:	9402      	str	r4, [sp, #8]
 8003706:	2228      	movs	r2, #40	@ 0x28
 8003708:	f88d 2000 	strb.w	r2, [sp]
 800370c:	629f      	str	r7, [r3, #40]	@ 0x28
 800370e:	e693      	b.n	8003438 <gpio_ll_int_attach+0x114>
 8003710:	20001378 	.word	0x20001378
 8003714:	0800372d 	.word	0x0800372d

08003718 <NVIC_PriorityGroupConfig>:
 8003718:	4b03      	ldr	r3, [pc, #12]	@ (8003728 <NVIC_PriorityGroupConfig+0x10>)
 800371a:	f040 60bf 	orr.w	r0, r0, #100139008	@ 0x5f80000
 800371e:	f440 3000 	orr.w	r0, r0, #131072	@ 0x20000
 8003722:	60d8      	str	r0, [r3, #12]
 8003724:	4770      	bx	lr
 8003726:	bf00      	nop
 8003728:	e000ed00 	.word	0xe000ed00

0800372c <NVIC_Init>:
 800372c:	b510      	push	{r4, lr}
 800372e:	7802      	ldrb	r2, [r0, #0]
 8003730:	6843      	ldr	r3, [r0, #4]
 8003732:	2101      	movs	r1, #1
 8003734:	f002 041f 	and.w	r4, r2, #31
 8003738:	ea4f 1e52 	mov.w	lr, r2, lsr #5
 800373c:	40a1      	lsls	r1, r4
 800373e:	b1db      	cbz	r3, 8003778 <NVIC_Init+0x4c>
 8003740:	4b10      	ldr	r3, [pc, #64]	@ (8003784 <NVIC_Init+0x58>)
 8003742:	7844      	ldrb	r4, [r0, #1]
 8003744:	68db      	ldr	r3, [r3, #12]
 8003746:	ea6f 0c03 	mvn.w	ip, r3
 800374a:	f3cc 2c02 	ubfx	ip, ip, #8, #3
 800374e:	7883      	ldrb	r3, [r0, #2]
 8003750:	f1cc 0004 	rsb	r0, ip, #4
 8003754:	b2c0      	uxtb	r0, r0
 8003756:	fa04 f000 	lsl.w	r0, r4, r0
 800375a:	240f      	movs	r4, #15
 800375c:	fa44 f40c 	asr.w	r4, r4, ip
 8003760:	b2c0      	uxtb	r0, r0
 8003762:	4023      	ands	r3, r4
 8003764:	4303      	orrs	r3, r0
 8003766:	4808      	ldr	r0, [pc, #32]	@ (8003788 <NVIC_Init+0x5c>)
 8003768:	011b      	lsls	r3, r3, #4
 800376a:	4402      	add	r2, r0
 800376c:	b2db      	uxtb	r3, r3
 800376e:	f882 3300 	strb.w	r3, [r2, #768]	@ 0x300
 8003772:	f840 102e 	str.w	r1, [r0, lr, lsl #2]
 8003776:	bd10      	pop	{r4, pc}
 8003778:	4b03      	ldr	r3, [pc, #12]	@ (8003788 <NVIC_Init+0x5c>)
 800377a:	f10e 0e20 	add.w	lr, lr, #32
 800377e:	f843 102e 	str.w	r1, [r3, lr, lsl #2]
 8003782:	bd10      	pop	{r4, pc}
 8003784:	e000ed00 	.word	0xe000ed00
 8003788:	e000e100 	.word	0xe000e100

0800378c <EXTI_Init>:
 800378c:	6843      	ldr	r3, [r0, #4]
 800378e:	68c2      	ldr	r2, [r0, #12]
 8003790:	b430      	push	{r4, r5}
 8003792:	6804      	ldr	r4, [r0, #0]
 8003794:	f103 4380 	add.w	r3, r3, #1073741824	@ 0x40000000
 8003798:	f503 339e 	add.w	r3, r3, #80896	@ 0x13c00
 800379c:	ea6f 0c04 	mvn.w	ip, r4
 80037a0:	b302      	cbz	r2, 80037e4 <EXTI_Init+0x58>
 80037a2:	4a17      	ldr	r2, [pc, #92]	@ (8003800 <EXTI_Init+0x74>)
 80037a4:	6881      	ldr	r1, [r0, #8]
 80037a6:	6815      	ldr	r5, [r2, #0]
 80037a8:	ea05 050c 	and.w	r5, r5, ip
 80037ac:	6015      	str	r5, [r2, #0]
 80037ae:	6855      	ldr	r5, [r2, #4]
 80037b0:	ea05 050c 	and.w	r5, r5, ip
 80037b4:	6055      	str	r5, [r2, #4]
 80037b6:	681d      	ldr	r5, [r3, #0]
 80037b8:	432c      	orrs	r4, r5
 80037ba:	601c      	str	r4, [r3, #0]
 80037bc:	6803      	ldr	r3, [r0, #0]
 80037be:	6894      	ldr	r4, [r2, #8]
 80037c0:	ea24 0403 	bic.w	r4, r4, r3
 80037c4:	6094      	str	r4, [r2, #8]
 80037c6:	68d0      	ldr	r0, [r2, #12]
 80037c8:	2910      	cmp	r1, #16
 80037ca:	ea20 0003 	bic.w	r0, r0, r3
 80037ce:	60d0      	str	r0, [r2, #12]
 80037d0:	d00e      	beq.n	80037f0 <EXTI_Init+0x64>
 80037d2:	f101 4280 	add.w	r2, r1, #1073741824	@ 0x40000000
 80037d6:	f502 329e 	add.w	r2, r2, #80896	@ 0x13c00
 80037da:	bc30      	pop	{r4, r5}
 80037dc:	6811      	ldr	r1, [r2, #0]
 80037de:	430b      	orrs	r3, r1
 80037e0:	6013      	str	r3, [r2, #0]
 80037e2:	4770      	bx	lr
 80037e4:	681a      	ldr	r2, [r3, #0]
 80037e6:	ea02 020c 	and.w	r2, r2, ip
 80037ea:	bc30      	pop	{r4, r5}
 80037ec:	601a      	str	r2, [r3, #0]
 80037ee:	4770      	bx	lr
 80037f0:	6891      	ldr	r1, [r2, #8]
 80037f2:	4319      	orrs	r1, r3
 80037f4:	6091      	str	r1, [r2, #8]
 80037f6:	68d1      	ldr	r1, [r2, #12]
 80037f8:	430b      	orrs	r3, r1
 80037fa:	bc30      	pop	{r4, r5}
 80037fc:	60d3      	str	r3, [r2, #12]
 80037fe:	4770      	bx	lr
 8003800:	40013c00 	.word	0x40013c00

08003804 <EXTI_GetITStatus>:
 8003804:	4b03      	ldr	r3, [pc, #12]	@ (8003814 <EXTI_GetITStatus+0x10>)
 8003806:	695b      	ldr	r3, [r3, #20]
 8003808:	4218      	tst	r0, r3
 800380a:	bf14      	ite	ne
 800380c:	2001      	movne	r0, #1
 800380e:	2000      	moveq	r0, #0
 8003810:	4770      	bx	lr
 8003812:	bf00      	nop
 8003814:	40013c00 	.word	0x40013c00

08003818 <EXTI_ClearITPendingBit>:
 8003818:	4b01      	ldr	r3, [pc, #4]	@ (8003820 <EXTI_ClearITPendingBit+0x8>)
 800381a:	6158      	str	r0, [r3, #20]
 800381c:	4770      	bx	lr
 800381e:	bf00      	nop
 8003820:	40013c00 	.word	0x40013c00

08003824 <GPIO_Init>:
 8003824:	2200      	movs	r2, #0
 8003826:	e92d 47f0 	stmdb	sp!, {r4, r5, r6, r7, r8, r9, sl, lr}
 800382a:	4613      	mov	r3, r2
 800382c:	680d      	ldr	r5, [r1, #0]
 800382e:	f04f 0e01 	mov.w	lr, #1
 8003832:	2603      	movs	r6, #3
 8003834:	e004      	b.n	8003840 <GPIO_Init+0x1c>
 8003836:	3301      	adds	r3, #1
 8003838:	2b10      	cmp	r3, #16
 800383a:	f102 0202 	add.w	r2, r2, #2
 800383e:	d045      	beq.n	80038cc <GPIO_Init+0xa8>
 8003840:	fa0e fc03 	lsl.w	ip, lr, r3
 8003844:	ea3c 0405 	bics.w	r4, ip, r5
 8003848:	d1f5      	bne.n	8003836 <GPIO_Init+0x12>
 800384a:	6807      	ldr	r7, [r0, #0]
 800384c:	f8d1 8004 	ldr.w	r8, [r1, #4]
 8003850:	fa06 f402 	lsl.w	r4, r6, r2
 8003854:	ea27 0704 	bic.w	r7, r7, r4
 8003858:	6007      	str	r7, [r0, #0]
 800385a:	f8d0 a000 	ldr.w	sl, [r0]
 800385e:	fa08 f902 	lsl.w	r9, r8, r2
 8003862:	f108 38ff 	add.w	r8, r8, #4294967295	@ 0xffffffff
 8003866:	ea49 090a 	orr.w	r9, r9, sl
 800386a:	f1b8 0f01 	cmp.w	r8, #1
 800386e:	4627      	mov	r7, r4
 8003870:	f8c0 9000 	str.w	r9, [r0]
 8003874:	ea6f 0404 	mvn.w	r4, r4
 8003878:	d819      	bhi.n	80038ae <GPIO_Init+0x8a>
 800387a:	f8d0 8008 	ldr.w	r8, [r0, #8]
 800387e:	ea04 0408 	and.w	r4, r4, r8
 8003882:	6084      	str	r4, [r0, #8]
 8003884:	688c      	ldr	r4, [r1, #8]
 8003886:	f8d0 8008 	ldr.w	r8, [r0, #8]
 800388a:	4094      	lsls	r4, r2
 800388c:	ea44 0408 	orr.w	r4, r4, r8
 8003890:	6084      	str	r4, [r0, #8]
 8003892:	f8d0 8004 	ldr.w	r8, [r0, #4]
 8003896:	898c      	ldrh	r4, [r1, #12]
 8003898:	ea28 0c0c 	bic.w	ip, r8, ip
 800389c:	f8c0 c004 	str.w	ip, [r0, #4]
 80038a0:	f8d0 c004 	ldr.w	ip, [r0, #4]
 80038a4:	409c      	lsls	r4, r3
 80038a6:	b2a4      	uxth	r4, r4
 80038a8:	ea44 040c 	orr.w	r4, r4, ip
 80038ac:	6044      	str	r4, [r0, #4]
 80038ae:	f8d0 c00c 	ldr.w	ip, [r0, #12]
 80038b2:	690c      	ldr	r4, [r1, #16]
 80038b4:	ea2c 0707 	bic.w	r7, ip, r7
 80038b8:	60c7      	str	r7, [r0, #12]
 80038ba:	68c7      	ldr	r7, [r0, #12]
 80038bc:	4094      	lsls	r4, r2
 80038be:	3301      	adds	r3, #1
 80038c0:	433c      	orrs	r4, r7
 80038c2:	2b10      	cmp	r3, #16
 80038c4:	60c4      	str	r4, [r0, #12]
 80038c6:	f102 0202 	add.w	r2, r2, #2
 80038ca:	d1b9      	bne.n	8003840 <GPIO_Init+0x1c>
 80038cc:	e8bd 87f0 	ldmia.w	sp!, {r4, r5, r6, r7, r8, r9, sl, pc}

080038d0 <GPIO_ReadInputData>:
 80038d0:	6900      	ldr	r0, [r0, #16]
 80038d2:	b280      	uxth	r0, r0
 80038d4:	4770      	bx	lr
 80038d6:	bf00      	nop

080038d8 <GPIO_SetBits>:
 80038d8:	b289      	uxth	r1, r1
 80038da:	6181      	str	r1, [r0, #24]
 80038dc:	4770      	bx	lr
 80038de:	bf00      	nop

080038e0 <GPIO_ResetBits>:
 80038e0:	0409      	lsls	r1, r1, #16
 80038e2:	6181      	str	r1, [r0, #24]
 80038e4:	4770      	bx	lr
 80038e6:	bf00      	nop

080038e8 <GPIO_ToggleBits>:
 80038e8:	6943      	ldr	r3, [r0, #20]
 80038ea:	b289      	uxth	r1, r1
 80038ec:	4059      	eors	r1, r3
 80038ee:	6141      	str	r1, [r0, #20]
 80038f0:	4770      	bx	lr
 80038f2:	bf00      	nop

080038f4 <GPIO_PinAFConfig>:
 80038f4:	f3c1 03cc 	ubfx	r3, r1, #3, #13
 80038f8:	eb00 0083 	add.w	r0, r0, r3, lsl #2
 80038fc:	f001 0107 	and.w	r1, r1, #7
 8003900:	6a03      	ldr	r3, [r0, #32]
 8003902:	0089      	lsls	r1, r1, #2
 8003904:	f04f 0c0f 	mov.w	ip, #15
 8003908:	fa0c fc01 	lsl.w	ip, ip, r1
 800390c:	ea23 030c 	bic.w	r3, r3, ip
 8003910:	6203      	str	r3, [r0, #32]
 8003912:	6a03      	ldr	r3, [r0, #32]
 8003914:	b2d2      	uxtb	r2, r2
 8003916:	408a      	lsls	r2, r1
 8003918:	431a      	orrs	r2, r3
 800391a:	6202      	str	r2, [r0, #32]
 800391c:	4770      	bx	lr
 800391e:	bf00      	nop

08003920 <SYSCFG_EXTILineConfig>:
 8003920:	f001 03fc 	and.w	r3, r1, #252	@ 0xfc
 8003924:	f103 4380 	add.w	r3, r3, #1073741824	@ 0x40000000
 8003928:	f503 339c 	add.w	r3, r3, #79872	@ 0x13800
 800392c:	f001 0103 	and.w	r1, r1, #3
 8003930:	689a      	ldr	r2, [r3, #8]
 8003932:	0089      	lsls	r1, r1, #2
 8003934:	f04f 0c0f 	mov.w	ip, #15
 8003938:	fa0c fc01 	lsl.w	ip, ip, r1
 800393c:	ea22 020c 	bic.w	r2, r2, ip
 8003940:	609a      	str	r2, [r3, #8]
 8003942:	689a      	ldr	r2, [r3, #8]
 8003944:	b2c0      	uxtb	r0, r0
 8003946:	4088      	lsls	r0, r1
 8003948:	4310      	orrs	r0, r2
 800394a:	6098      	str	r0, [r3, #8]
 800394c:	4770      	bx	lr
 800394e:	bf00      	nop

08003950 <USART_Init>:
 8003950:	6902      	ldr	r2, [r0, #16]
 8003952:	88cb      	ldrh	r3, [r1, #6]
 8003954:	f422 5240 	bic.w	r2, r2, #12288	@ 0x3000
 8003958:	4313      	orrs	r3, r2
 800395a:	b29b      	uxth	r3, r3
 800395c:	b530      	push	{r4, r5, lr}
 800395e:	898a      	ldrh	r2, [r1, #12]
 8003960:	6103      	str	r3, [r0, #16]
 8003962:	4604      	mov	r4, r0
 8003964:	888b      	ldrh	r3, [r1, #4]
 8003966:	8908      	ldrh	r0, [r1, #8]
 8003968:	460d      	mov	r5, r1
 800396a:	4303      	orrs	r3, r0
 800396c:	68e1      	ldr	r1, [r4, #12]
 800396e:	8968      	ldrh	r0, [r5, #10]
 8003970:	f421 51b0 	bic.w	r1, r1, #5632	@ 0x1600
 8003974:	4303      	orrs	r3, r0
 8003976:	f021 010c 	bic.w	r1, r1, #12
 800397a:	b29b      	uxth	r3, r3
 800397c:	430b      	orrs	r3, r1
 800397e:	b29b      	uxth	r3, r3
 8003980:	60e3      	str	r3, [r4, #12]
 8003982:	6963      	ldr	r3, [r4, #20]
 8003984:	f423 7340 	bic.w	r3, r3, #768	@ 0x300
 8003988:	4313      	orrs	r3, r2
 800398a:	b29b      	uxth	r3, r3
 800398c:	b084      	sub	sp, #16
 800398e:	6163      	str	r3, [r4, #20]
 8003990:	4668      	mov	r0, sp
 8003992:	f7fd fc7b 	bl	800128c <RCC_GetClocksFreq>
 8003996:	4b1c      	ldr	r3, [pc, #112]	@ (8003a08 <USART_Init+0xb8>)
 8003998:	429c      	cmp	r4, r3
 800399a:	d005      	beq.n	80039a8 <USART_Init+0x58>
 800399c:	f503 6380 	add.w	r3, r3, #1024	@ 0x400
 80039a0:	429c      	cmp	r4, r3
 80039a2:	d001      	beq.n	80039a8 <USART_Init+0x58>
 80039a4:	9b02      	ldr	r3, [sp, #8]
 80039a6:	e000      	b.n	80039aa <USART_Init+0x5a>
 80039a8:	9b03      	ldr	r3, [sp, #12]
 80039aa:	68e1      	ldr	r1, [r4, #12]
 80039ac:	682a      	ldr	r2, [r5, #0]
 80039ae:	68e5      	ldr	r5, [r4, #12]
 80039b0:	0408      	lsls	r0, r1, #16
 80039b2:	4816      	ldr	r0, [pc, #88]	@ (8003a0c <USART_Init+0xbc>)
 80039b4:	eb03 0383 	add.w	r3, r3, r3, lsl #2
 80039b8:	bf4c      	ite	mi
 80039ba:	0052      	lslmi	r2, r2, #1
 80039bc:	0092      	lslpl	r2, r2, #2
 80039be:	eb03 0383 	add.w	r3, r3, r3, lsl #2
 80039c2:	fbb3 f3f2 	udiv	r3, r3, r2
 80039c6:	fba0 2103 	umull	r2, r1, r0, r3
 80039ca:	0949      	lsrs	r1, r1, #5
 80039cc:	f04f 0c64 	mov.w	ip, #100	@ 0x64
 80039d0:	010a      	lsls	r2, r1, #4
 80039d2:	fb0c 3311 	mls	r3, ip, r1, r3
 80039d6:	0429      	lsls	r1, r5, #16
 80039d8:	d50a      	bpl.n	80039f0 <USART_Init+0xa0>
 80039da:	00db      	lsls	r3, r3, #3
 80039dc:	3332      	adds	r3, #50	@ 0x32
 80039de:	fba0 0303 	umull	r0, r3, r0, r3
 80039e2:	f3c3 1342 	ubfx	r3, r3, #5, #3
 80039e6:	4313      	orrs	r3, r2
 80039e8:	b29b      	uxth	r3, r3
 80039ea:	60a3      	str	r3, [r4, #8]
 80039ec:	b004      	add	sp, #16
 80039ee:	bd30      	pop	{r4, r5, pc}
 80039f0:	011b      	lsls	r3, r3, #4
 80039f2:	3332      	adds	r3, #50	@ 0x32
 80039f4:	fba0 0303 	umull	r0, r3, r0, r3
 80039f8:	f3c3 1343 	ubfx	r3, r3, #5, #4
 80039fc:	4313      	orrs	r3, r2
 80039fe:	b29b      	uxth	r3, r3
 8003a00:	60a3      	str	r3, [r4, #8]
 8003a02:	b004      	add	sp, #16
 8003a04:	bd30      	pop	{r4, r5, pc}
 8003a06:	bf00      	nop
 8003a08:	40011000 	.word	0x40011000
 8003a0c:	51eb851f 	.word	0x51eb851f

08003a10 <USART_Cmd>:
 8003a10:	68c3      	ldr	r3, [r0, #12]
 8003a12:	b119      	cbz	r1, 8003a1c <USART_Cmd+0xc>
 8003a14:	f443 5300 	orr.w	r3, r3, #8192	@ 0x2000
 8003a18:	60c3      	str	r3, [r0, #12]
 8003a1a:	4770      	bx	lr
 8003a1c:	f64d 72ff 	movw	r2, #57343	@ 0xdfff
 8003a20:	4013      	ands	r3, r2
 8003a22:	60c3      	str	r3, [r0, #12]
 8003a24:	4770      	bx	lr
 8003a26:	bf00      	nop

08003a28 <USART_SendData>:
 8003a28:	f3c1 0108 	ubfx	r1, r1, #0, #9
 8003a2c:	6041      	str	r1, [r0, #4]
 8003a2e:	4770      	bx	lr

08003a30 <USART_ReceiveData>:
 8003a30:	6840      	ldr	r0, [r0, #4]
 8003a32:	f3c0 0008 	ubfx	r0, r0, #0, #9
 8003a36:	4770      	bx	lr

08003a38 <USART_ITConfig>:
 8003a38:	f001 0c1f 	and.w	ip, r1, #31
 8003a3c:	f3c1 1142 	ubfx	r1, r1, #5, #3
 8003a40:	2301      	movs	r3, #1
 8003a42:	2901      	cmp	r1, #1
 8003a44:	fa03 f30c 	lsl.w	r3, r3, ip
 8003a48:	d00d      	beq.n	8003a66 <USART_ITConfig+0x2e>
 8003a4a:	2902      	cmp	r1, #2
 8003a4c:	bf0c      	ite	eq
 8003a4e:	3010      	addeq	r0, #16
 8003a50:	3014      	addne	r0, #20
 8003a52:	b11a      	cbz	r2, 8003a5c <USART_ITConfig+0x24>
 8003a54:	6802      	ldr	r2, [r0, #0]
 8003a56:	4313      	orrs	r3, r2
 8003a58:	6003      	str	r3, [r0, #0]
 8003a5a:	4770      	bx	lr
 8003a5c:	6802      	ldr	r2, [r0, #0]
 8003a5e:	ea22 0303 	bic.w	r3, r2, r3
 8003a62:	6003      	str	r3, [r0, #0]
 8003a64:	4770      	bx	lr
 8003a66:	300c      	adds	r0, #12
 8003a68:	e7f3      	b.n	8003a52 <USART_ITConfig+0x1a>
 8003a6a:	bf00      	nop

08003a6c <USART_GetFlagStatus>:
 8003a6c:	6803      	ldr	r3, [r0, #0]
 8003a6e:	b289      	uxth	r1, r1
 8003a70:	4219      	tst	r1, r3
 8003a72:	bf14      	ite	ne
 8003a74:	2001      	movne	r0, #1
 8003a76:	2000      	moveq	r0, #0
 8003a78:	4770      	bx	lr
 8003a7a:	bf00      	nop

08003a7c <USART_GetITStatus>:
 8003a7c:	f3c1 1c42 	ubfx	ip, r1, #5, #3
 8003a80:	b500      	push	{lr}
 8003a82:	2301      	movs	r3, #1
 8003a84:	f001 0e1f 	and.w	lr, r1, #31
 8003a88:	f1bc 0f01 	cmp.w	ip, #1
 8003a8c:	4602      	mov	r2, r0
 8003a8e:	b289      	uxth	r1, r1
 8003a90:	fa03 f30e 	lsl.w	r3, r3, lr
 8003a94:	d010      	beq.n	8003ab8 <USART_GetITStatus+0x3c>
 8003a96:	f1bc 0f02 	cmp.w	ip, #2
 8003a9a:	bf0c      	ite	eq
 8003a9c:	6900      	ldreq	r0, [r0, #16]
 8003a9e:	6950      	ldrne	r0, [r2, #20]
 8003aa0:	4018      	ands	r0, r3
 8003aa2:	6812      	ldr	r2, [r2, #0]
 8003aa4:	b130      	cbz	r0, 8003ab4 <USART_GetITStatus+0x38>
 8003aa6:	0a09      	lsrs	r1, r1, #8
 8003aa8:	2301      	movs	r3, #1
 8003aaa:	408b      	lsls	r3, r1
 8003aac:	4213      	tst	r3, r2
 8003aae:	bf14      	ite	ne
 8003ab0:	2001      	movne	r0, #1
 8003ab2:	2000      	moveq	r0, #0
 8003ab4:	f85d fb04 	ldr.w	pc, [sp], #4
 8003ab8:	68c0      	ldr	r0, [r0, #12]
 8003aba:	4018      	ands	r0, r3
 8003abc:	e7f1      	b.n	8003aa2 <USART_GetITStatus+0x26>
 8003abe:	bf00      	nop

08003ac0 <USB_OTG_BSP_Init>:
 8003ac0:	b530      	push	{r4, r5, lr}
 8003ac2:	2101      	movs	r1, #1
 8003ac4:	b086      	sub	sp, #24
 8003ac6:	4c21      	ldr	r4, [pc, #132]	@ (8003b4c <USB_OTG_BSP_Init+0x8c>)
 8003ac8:	4608      	mov	r0, r1
 8003aca:	f7fd fc25 	bl	8001318 <RCC_AHB1PeriphClockCmd>
 8003ace:	f44f 50d8 	mov.w	r0, #6912	@ 0x1b00
 8003ad2:	2300      	movs	r3, #0
 8003ad4:	2202      	movs	r2, #2
 8003ad6:	a901      	add	r1, sp, #4
 8003ad8:	9001      	str	r0, [sp, #4]
 8003ada:	4620      	mov	r0, r4
 8003adc:	9304      	str	r3, [sp, #16]
 8003ade:	9305      	str	r3, [sp, #20]
 8003ae0:	9203      	str	r2, [sp, #12]
 8003ae2:	9202      	str	r2, [sp, #8]
 8003ae4:	f7ff fe9e 	bl	8003824 <GPIO_Init>
 8003ae8:	4620      	mov	r0, r4
 8003aea:	220a      	movs	r2, #10
 8003aec:	2108      	movs	r1, #8
 8003aee:	f7ff ff01 	bl	80038f4 <GPIO_PinAFConfig>
 8003af2:	4620      	mov	r0, r4
 8003af4:	220a      	movs	r2, #10
 8003af6:	2109      	movs	r1, #9
 8003af8:	f7ff fefc 	bl	80038f4 <GPIO_PinAFConfig>
 8003afc:	4620      	mov	r0, r4
 8003afe:	220a      	movs	r2, #10
 8003b00:	210b      	movs	r1, #11
 8003b02:	f7ff fef7 	bl	80038f4 <GPIO_PinAFConfig>
 8003b06:	4620      	mov	r0, r4
 8003b08:	220a      	movs	r2, #10
 8003b0a:	210c      	movs	r1, #12
 8003b0c:	f7ff fef2 	bl	80038f4 <GPIO_PinAFConfig>
 8003b10:	f44f 6380 	mov.w	r3, #1024	@ 0x400
 8003b14:	2501      	movs	r5, #1
 8003b16:	a901      	add	r1, sp, #4
 8003b18:	9301      	str	r3, [sp, #4]
 8003b1a:	2202      	movs	r2, #2
 8003b1c:	2301      	movs	r3, #1
 8003b1e:	4620      	mov	r0, r4
 8003b20:	9203      	str	r2, [sp, #12]
 8003b22:	9304      	str	r3, [sp, #16]
 8003b24:	9505      	str	r5, [sp, #20]
 8003b26:	f7ff fe7d 	bl	8003824 <GPIO_Init>
 8003b2a:	220a      	movs	r2, #10
 8003b2c:	4611      	mov	r1, r2
 8003b2e:	4620      	mov	r0, r4
 8003b30:	f7ff fee0 	bl	80038f4 <GPIO_PinAFConfig>
 8003b34:	4629      	mov	r1, r5
 8003b36:	2080      	movs	r0, #128	@ 0x80
 8003b38:	f7fd fbfa 	bl	8001330 <RCC_AHB2PeriphClockCmd>
 8003b3c:	4629      	mov	r1, r5
 8003b3e:	f04f 5080 	mov.w	r0, #268435456	@ 0x10000000
 8003b42:	f7fd fc19 	bl	8001378 <RCC_APB1PeriphResetCmd>
 8003b46:	b006      	add	sp, #24
 8003b48:	bd30      	pop	{r4, r5, pc}
 8003b4a:	bf00      	nop
 8003b4c:	40020000 	.word	0x40020000

08003b50 <USB_OTG_BSP_EnableInterrupt>:
 8003b50:	b500      	push	{lr}
 8003b52:	f44f 60c0 	mov.w	r0, #1536	@ 0x600
 8003b56:	b082      	sub	sp, #8
 8003b58:	f7ff fdde 	bl	8003718 <NVIC_PriorityGroupConfig>
 8003b5c:	f240 1143 	movw	r1, #323	@ 0x143
 8003b60:	2203      	movs	r2, #3
 8003b62:	2301      	movs	r3, #1
 8003b64:	4668      	mov	r0, sp
 8003b66:	f8ad 1000 	strh.w	r1, [sp]
 8003b6a:	f88d 2002 	strb.w	r2, [sp, #2]
 8003b6e:	9301      	str	r3, [sp, #4]
 8003b70:	f7ff fddc 	bl	800372c <NVIC_Init>
 8003b74:	b002      	add	sp, #8
 8003b76:	f85d fb04 	ldr.w	pc, [sp], #4
 8003b7a:	bf00      	nop

08003b7c <USB_OTG_BSP_uDelay>:
 8003b7c:	4770      	bx	lr
 8003b7e:	bf00      	nop

08003b80 <USB_OTG_BSP_mDelay>:
 8003b80:	4770      	bx	lr
 8003b82:	bf00      	nop

08003b84 <OTG_FS_IRQHandler>:
 8003b84:	4801      	ldr	r0, [pc, #4]	@ (8003b8c <OTG_FS_IRQHandler+0x8>)
 8003b86:	f000 bc57 	b.w	8004438 <USBD_OTG_ISR_Handler>
 8003b8a:	bf00      	nop
 8003b8c:	20000454 	.word	0x20000454

08003b90 <USB_OTG_CoreReset.isra.0>:
 8003b90:	b530      	push	{r4, r5, lr}
 8003b92:	b082      	sub	sp, #8
 8003b94:	2300      	movs	r3, #0
 8003b96:	4c12      	ldr	r4, [pc, #72]	@ (8003be0 <USB_OTG_CoreReset.isra.0+0x50>)
 8003b98:	9301      	str	r3, [sp, #4]
 8003b9a:	4605      	mov	r5, r0
 8003b9c:	2003      	movs	r0, #3
 8003b9e:	f7ff ffed 	bl	8003b7c <USB_OTG_BSP_uDelay>
 8003ba2:	68eb      	ldr	r3, [r5, #12]
 8003ba4:	3c01      	subs	r4, #1
 8003ba6:	691a      	ldr	r2, [r3, #16]
 8003ba8:	9201      	str	r2, [sp, #4]
 8003baa:	d016      	beq.n	8003bda <USB_OTG_CoreReset.isra.0+0x4a>
 8003bac:	9a01      	ldr	r2, [sp, #4]
 8003bae:	2a00      	cmp	r2, #0
 8003bb0:	daf4      	bge.n	8003b9c <USB_OTG_CoreReset.isra.0+0xc>
 8003bb2:	9901      	ldr	r1, [sp, #4]
 8003bb4:	4a0a      	ldr	r2, [pc, #40]	@ (8003be0 <USB_OTG_CoreReset.isra.0+0x50>)
 8003bb6:	f041 0101 	orr.w	r1, r1, #1
 8003bba:	9101      	str	r1, [sp, #4]
 8003bbc:	9901      	ldr	r1, [sp, #4]
 8003bbe:	6119      	str	r1, [r3, #16]
 8003bc0:	6919      	ldr	r1, [r3, #16]
 8003bc2:	9101      	str	r1, [sp, #4]
 8003bc4:	3a01      	subs	r2, #1
 8003bc6:	d002      	beq.n	8003bce <USB_OTG_CoreReset.isra.0+0x3e>
 8003bc8:	9901      	ldr	r1, [sp, #4]
 8003bca:	07c9      	lsls	r1, r1, #31
 8003bcc:	d4f8      	bmi.n	8003bc0 <USB_OTG_CoreReset.isra.0+0x30>
 8003bce:	2003      	movs	r0, #3
 8003bd0:	b002      	add	sp, #8
 8003bd2:	e8bd 4030 	ldmia.w	sp!, {r4, r5, lr}
 8003bd6:	f7ff bfd1 	b.w	8003b7c <USB_OTG_BSP_uDelay>
 8003bda:	b002      	add	sp, #8
 8003bdc:	bd30      	pop	{r4, r5, pc}
 8003bde:	bf00      	nop
 8003be0:	00030d41 	.word	0x00030d41

08003be4 <USB_OTG_WritePacket>:
 8003be4:	b430      	push	{r4, r5}
 8003be6:	78c4      	ldrb	r4, [r0, #3]
 8003be8:	b2d2      	uxtb	r2, r2
 8003bea:	b29b      	uxth	r3, r3
 8003bec:	b96c      	cbnz	r4, 8003c0a <USB_OTG_WritePacket+0x26>
 8003bee:	f102 0534 	add.w	r5, r2, #52	@ 0x34
 8003bf2:	1cda      	adds	r2, r3, #3
 8003bf4:	1092      	asrs	r2, r2, #2
 8003bf6:	f850 5025 	ldr.w	r5, [r0, r5, lsl #2]
 8003bfa:	d006      	beq.n	8003c0a <USB_OTG_WritePacket+0x26>
 8003bfc:	4623      	mov	r3, r4
 8003bfe:	3301      	adds	r3, #1
 8003c00:	f851 0b04 	ldr.w	r0, [r1], #4
 8003c04:	6028      	str	r0, [r5, #0]
 8003c06:	429a      	cmp	r2, r3
 8003c08:	d1f9      	bne.n	8003bfe <USB_OTG_WritePacket+0x1a>
 8003c0a:	2000      	movs	r0, #0
 8003c0c:	bc30      	pop	{r4, r5}
 8003c0e:	4770      	bx	lr

08003c10 <USB_OTG_ReadPacket>:
 8003c10:	fa1f fc82 	uxth.w	ip, r2
 8003c14:	f10c 0c03 	add.w	ip, ip, #3
 8003c18:	ea5f 0cac 	movs.w	ip, ip, asr #2
 8003c1c:	b430      	push	{r4, r5}
 8003c1e:	f8d0 50d0 	ldr.w	r5, [r0, #208]	@ 0xd0
 8003c22:	d00b      	beq.n	8003c3c <USB_OTG_ReadPacket+0x2c>
 8003c24:	460a      	mov	r2, r1
 8003c26:	2300      	movs	r3, #0
 8003c28:	3301      	adds	r3, #1
 8003c2a:	682c      	ldr	r4, [r5, #0]
 8003c2c:	f842 4b04 	str.w	r4, [r2], #4
 8003c30:	459c      	cmp	ip, r3
 8003c32:	d1f9      	bne.n	8003c28 <USB_OTG_ReadPacket+0x18>
 8003c34:	eb01 008c 	add.w	r0, r1, ip, lsl #2
 8003c38:	bc30      	pop	{r4, r5}
 8003c3a:	4770      	bx	lr
 8003c3c:	4608      	mov	r0, r1
 8003c3e:	bc30      	pop	{r4, r5}
 8003c40:	4770      	bx	lr
 8003c42:	bf00      	nop

08003c44 <USB_OTG_SelectCore>:
 8003c44:	2201      	movs	r2, #1
 8003c46:	2340      	movs	r3, #64	@ 0x40
 8003c48:	4291      	cmp	r1, r2
 8003c4a:	e92d 41f0 	stmdb	sp!, {r4, r5, r6, r7, r8, lr}
 8003c4e:	8042      	strh	r2, [r0, #2]
 8003c50:	8083      	strh	r3, [r0, #4]
 8003c52:	d057      	beq.n	8003d04 <USB_OTG_SelectCore+0xc0>
 8003c54:	2900      	cmp	r1, #0
 8003c56:	d041      	beq.n	8003cdc <USB_OTG_SelectCore+0x98>
 8003c58:	7843      	ldrb	r3, [r0, #1]
 8003c5a:	7806      	ldrb	r6, [r0, #0]
 8003c5c:	2200      	movs	r2, #0
 8003c5e:	f44f 6100 	mov.w	r1, #2048	@ 0x800
 8003c62:	60c2      	str	r2, [r0, #12]
 8003c64:	6101      	str	r1, [r0, #16]
 8003c66:	2b00      	cmp	r3, #0
 8003c68:	d061      	beq.n	8003d2e <USB_OTG_SelectCore+0xea>
 8003c6a:	469e      	mov	lr, r3
 8003c6c:	f44f 6560 	mov.w	r5, #3584	@ 0xe00
 8003c70:	f44f 6788 	mov.w	r7, #1088	@ 0x440
 8003c74:	f44f 6880 	mov.w	r8, #1024	@ 0x400
 8003c78:	f502 6310 	add.w	r3, r2, #2304	@ 0x900
 8003c7c:	f100 0c14 	add.w	ip, r0, #20
 8003c80:	2100      	movs	r1, #0
 8003c82:	f84c 3f04 	str.w	r3, [ip, #4]!
 8003c86:	3101      	adds	r1, #1
 8003c88:	f503 7400 	add.w	r4, r3, #512	@ 0x200
 8003c8c:	4571      	cmp	r1, lr
 8003c8e:	f8cc 403c 	str.w	r4, [ip, #60]	@ 0x3c
 8003c92:	f103 0320 	add.w	r3, r3, #32
 8003c96:	d3f4      	bcc.n	8003c82 <USB_OTG_SelectCore+0x3e>
 8003c98:	f8c0 8014 	str.w	r8, [r0, #20]
 8003c9c:	f8c0 70cc 	str.w	r7, [r0, #204]	@ 0xcc
 8003ca0:	b1be      	cbz	r6, 8003cd2 <USB_OTG_SelectCore+0x8e>
 8003ca2:	f100 038c 	add.w	r3, r0, #140	@ 0x8c
 8003ca6:	f502 61a0 	add.w	r1, r2, #1280	@ 0x500
 8003caa:	00b4      	lsls	r4, r6, #2
 8003cac:	eb03 0c86 	add.w	ip, r3, r6, lsl #2
 8003cb0:	f843 1f04 	str.w	r1, [r3, #4]!
 8003cb4:	459c      	cmp	ip, r3
 8003cb6:	f101 0120 	add.w	r1, r1, #32
 8003cba:	d1f9      	bne.n	8003cb0 <USB_OTG_SelectCore+0x6c>
 8003cbc:	f100 03cc 	add.w	r3, r0, #204	@ 0xcc
 8003cc0:	f502 5280 	add.w	r2, r2, #4096	@ 0x1000
 8003cc4:	1919      	adds	r1, r3, r4
 8003cc6:	f843 2f04 	str.w	r2, [r3, #4]!
 8003cca:	4299      	cmp	r1, r3
 8003ccc:	f502 5280 	add.w	r2, r2, #4096	@ 0x1000
 8003cd0:	d1f9      	bne.n	8003cc6 <USB_OTG_SelectCore+0x82>
 8003cd2:	f8c0 510c 	str.w	r5, [r0, #268]	@ 0x10c
 8003cd6:	2000      	movs	r0, #0
 8003cd8:	e8bd 81f0 	ldmia.w	sp!, {r4, r5, r6, r7, r8, pc}
 8003cdc:	f44f 63a0 	mov.w	r3, #1280	@ 0x500
 8003ce0:	80c3      	strh	r3, [r0, #6]
 8003ce2:	4b17      	ldr	r3, [pc, #92]	@ (8003d40 <USB_OTG_SelectCore+0xfc>)
 8003ce4:	72c1      	strb	r1, [r0, #11]
 8003ce6:	f240 620c 	movw	r2, #1548	@ 0x60c
 8003cea:	4d16      	ldr	r5, [pc, #88]	@ (8003d44 <USB_OTG_SelectCore+0x100>)
 8003cec:	4f16      	ldr	r7, [pc, #88]	@ (8003d48 <USB_OTG_SelectCore+0x104>)
 8003cee:	f8df 805c 	ldr.w	r8, [pc, #92]	@ 8003d4c <USB_OTG_SelectCore+0x108>
 8003cf2:	4917      	ldr	r1, [pc, #92]	@ (8003d50 <USB_OTG_SelectCore+0x10c>)
 8003cf4:	8002      	strh	r2, [r0, #0]
 8003cf6:	f04f 0e06 	mov.w	lr, #6
 8003cfa:	260c      	movs	r6, #12
 8003cfc:	461a      	mov	r2, r3
 8003cfe:	60c3      	str	r3, [r0, #12]
 8003d00:	6101      	str	r1, [r0, #16]
 8003d02:	e7b9      	b.n	8003c78 <USB_OTG_SelectCore+0x34>
 8003d04:	2302      	movs	r3, #2
 8003d06:	f44f 72a0 	mov.w	r2, #320	@ 0x140
 8003d0a:	f44f 6481 	mov.w	r4, #1032	@ 0x408
 8003d0e:	7203      	strb	r3, [r0, #8]
 8003d10:	f04f 43a0 	mov.w	r3, #1342177280	@ 0x50000000
 8003d14:	72c1      	strb	r1, [r0, #11]
 8003d16:	80c2      	strh	r2, [r0, #6]
 8003d18:	4d0e      	ldr	r5, [pc, #56]	@ (8003d54 <USB_OTG_SelectCore+0x110>)
 8003d1a:	4f0f      	ldr	r7, [pc, #60]	@ (8003d58 <USB_OTG_SelectCore+0x114>)
 8003d1c:	f8df 803c 	ldr.w	r8, [pc, #60]	@ 8003d5c <USB_OTG_SelectCore+0x118>
 8003d20:	490f      	ldr	r1, [pc, #60]	@ (8003d60 <USB_OTG_SelectCore+0x11c>)
 8003d22:	8004      	strh	r4, [r0, #0]
 8003d24:	f04f 0e04 	mov.w	lr, #4
 8003d28:	2608      	movs	r6, #8
 8003d2a:	461a      	mov	r2, r3
 8003d2c:	e7e7      	b.n	8003cfe <USB_OTG_SelectCore+0xba>
 8003d2e:	f44f 6560 	mov.w	r5, #3584	@ 0xe00
 8003d32:	f44f 6788 	mov.w	r7, #1088	@ 0x440
 8003d36:	461a      	mov	r2, r3
 8003d38:	f44f 6880 	mov.w	r8, #1024	@ 0x400
 8003d3c:	e7ac      	b.n	8003c98 <USB_OTG_SelectCore+0x54>
 8003d3e:	bf00      	nop
 8003d40:	40040000 	.word	0x40040000
 8003d44:	40040e00 	.word	0x40040e00
 8003d48:	40040440 	.word	0x40040440
 8003d4c:	40040400 	.word	0x40040400
 8003d50:	40040800 	.word	0x40040800
 8003d54:	50000e00 	.word	0x50000e00
 8003d58:	50000440 	.word	0x50000440
 8003d5c:	50000400 	.word	0x50000400
 8003d60:	50000800 	.word	0x50000800

08003d64 <USB_OTG_CoreInit>:
 8003d64:	b530      	push	{r4, r5, lr}
 8003d66:	7a03      	ldrb	r3, [r0, #8]
 8003d68:	68c2      	ldr	r2, [r0, #12]
 8003d6a:	2b01      	cmp	r3, #1
 8003d6c:	4604      	mov	r4, r0
 8003d6e:	f04f 0500 	mov.w	r5, #0
 8003d72:	d11a      	bne.n	8003daa <USB_OTG_CoreInit+0x46>
 8003d74:	6b95      	ldr	r5, [r2, #56]	@ 0x38
 8003d76:	7a41      	ldrb	r1, [r0, #9]
 8003d78:	f36f 4510 	bfc	r5, #16, #1
 8003d7c:	b191      	cbz	r1, 8003da4 <USB_OTG_CoreInit+0x40>
 8003d7e:	f363 5514 	bfi	r5, r3, #20, #1
 8003d82:	6395      	str	r5, [r2, #56]	@ 0x38
 8003d84:	68d3      	ldr	r3, [r2, #12]
 8003d86:	f423 0394 	bic.w	r3, r3, #4849664	@ 0x4a0000
 8003d8a:	f023 03d8 	bic.w	r3, r3, #216	@ 0xd8
 8003d8e:	f043 0310 	orr.w	r3, r3, #16
 8003d92:	60d3      	str	r3, [r2, #12]
 8003d94:	4620      	mov	r0, r4
 8003d96:	f7ff fefb 	bl	8003b90 <USB_OTG_CoreReset.isra.0>
 8003d9a:	78e3      	ldrb	r3, [r4, #3]
 8003d9c:	2b01      	cmp	r3, #1
 8003d9e:	d02c      	beq.n	8003dfa <USB_OTG_CoreInit+0x96>
 8003da0:	2000      	movs	r0, #0
 8003da2:	bd30      	pop	{r4, r5, pc}
 8003da4:	f3c5 5300 	ubfx	r3, r5, #20, #1
 8003da8:	e7e9      	b.n	8003d7e <USB_OTG_CoreInit+0x1a>
 8003daa:	68d3      	ldr	r3, [r2, #12]
 8003dac:	f043 0340 	orr.w	r3, r3, #64	@ 0x40
 8003db0:	60d3      	str	r3, [r2, #12]
 8003db2:	f7ff feed 	bl	8003b90 <USB_OTG_CoreReset.isra.0>
 8003db6:	7a23      	ldrb	r3, [r4, #8]
 8003db8:	7a62      	ldrb	r2, [r4, #9]
 8003dba:	68e1      	ldr	r1, [r4, #12]
 8003dbc:	f1a3 0303 	sub.w	r3, r3, #3
 8003dc0:	fab3 f383 	clz	r3, r3
 8003dc4:	095b      	lsrs	r3, r3, #5
 8003dc6:	3a00      	subs	r2, #0
 8003dc8:	ea4f 0343 	mov.w	r3, r3, lsl #1
 8003dcc:	bf18      	it	ne
 8003dce:	2201      	movne	r2, #1
 8003dd0:	f043 030d 	orr.w	r3, r3, #13
 8003dd4:	ea43 1302 	orr.w	r3, r3, r2, lsl #4
 8003dd8:	f363 4517 	bfi	r5, r3, #16, #8
 8003ddc:	638d      	str	r5, [r1, #56]	@ 0x38
 8003dde:	2014      	movs	r0, #20
 8003de0:	f7ff fece 	bl	8003b80 <USB_OTG_BSP_mDelay>
 8003de4:	7a21      	ldrb	r1, [r4, #8]
 8003de6:	68e2      	ldr	r2, [r4, #12]
 8003de8:	2903      	cmp	r1, #3
 8003dea:	68d3      	ldr	r3, [r2, #12]
 8003dec:	d012      	beq.n	8003e14 <USB_OTG_CoreInit+0xb0>
 8003dee:	60d3      	str	r3, [r2, #12]
 8003df0:	78e3      	ldrb	r3, [r4, #3]
 8003df2:	2b01      	cmp	r3, #1
 8003df4:	d1d4      	bne.n	8003da0 <USB_OTG_CoreInit+0x3c>
 8003df6:	68e1      	ldr	r1, [r4, #12]
 8003df8:	e002      	b.n	8003e00 <USB_OTG_CoreInit+0x9c>
 8003dfa:	68e1      	ldr	r1, [r4, #12]
 8003dfc:	232a      	movs	r3, #42	@ 0x2a
 8003dfe:	608b      	str	r3, [r1, #8]
 8003e00:	688b      	ldr	r3, [r1, #8]
 8003e02:	f023 023e 	bic.w	r2, r3, #62	@ 0x3e
 8003e06:	f042 022a 	orr.w	r2, r2, #42	@ 0x2a
 8003e0a:	f362 0307 	bfi	r3, r2, #0, #8
 8003e0e:	608b      	str	r3, [r1, #8]
 8003e10:	2000      	movs	r0, #0
 8003e12:	bd30      	pop	{r4, r5, pc}
 8003e14:	f443 3380 	orr.w	r3, r3, #65536	@ 0x10000
 8003e18:	60d3      	str	r3, [r2, #12]
 8003e1a:	6b15      	ldr	r5, [r2, #48]	@ 0x30
 8003e1c:	4b0a      	ldr	r3, [pc, #40]	@ (8003e48 <USB_OTG_CoreInit+0xe4>)
 8003e1e:	ea03 4315 	and.w	r3, r3, r5, lsr #16
 8003e22:	f443 53a1 	orr.w	r3, r3, #5152	@ 0x1420
 8003e26:	f043 030d 	orr.w	r3, r3, #13
 8003e2a:	f363 451f 	bfi	r5, r3, #16, #16
 8003e2e:	6315      	str	r5, [r2, #48]	@ 0x30
 8003e30:	20c8      	movs	r0, #200	@ 0xc8
 8003e32:	f7ff fea5 	bl	8003b80 <USB_OTG_BSP_mDelay>
 8003e36:	68e3      	ldr	r3, [r4, #12]
 8003e38:	f445 0500 	orr.w	r5, r5, #8388608	@ 0x800000
 8003e3c:	631d      	str	r5, [r3, #48]	@ 0x30
 8003e3e:	20c8      	movs	r0, #200	@ 0xc8
 8003e40:	f7ff fe9e 	bl	8003b80 <USB_OTG_BSP_mDelay>
 8003e44:	e7d4      	b.n	8003df0 <USB_OTG_CoreInit+0x8c>
 8003e46:	bf00      	nop
 8003e48:	ffffe300 	.word	0xffffe300

08003e4c <USB_OTG_EnableGlobalInt>:
 8003e4c:	4603      	mov	r3, r0
 8003e4e:	2000      	movs	r0, #0
 8003e50:	68da      	ldr	r2, [r3, #12]
 8003e52:	6893      	ldr	r3, [r2, #8]
 8003e54:	f043 0301 	orr.w	r3, r3, #1
 8003e58:	6093      	str	r3, [r2, #8]
 8003e5a:	4770      	bx	lr

08003e5c <USB_OTG_DisableGlobalInt>:
 8003e5c:	4603      	mov	r3, r0
 8003e5e:	2000      	movs	r0, #0
 8003e60:	68da      	ldr	r2, [r3, #12]
 8003e62:	6893      	ldr	r3, [r2, #8]
 8003e64:	f023 0301 	bic.w	r3, r3, #1
 8003e68:	6093      	str	r3, [r2, #8]
 8003e6a:	4770      	bx	lr

08003e6c <USB_OTG_FlushTxFifo>:
 8003e6c:	b500      	push	{lr}
 8003e6e:	b082      	sub	sp, #8
 8003e70:	2300      	movs	r3, #0
 8003e72:	9301      	str	r3, [sp, #4]
 8003e74:	9b01      	ldr	r3, [sp, #4]
 8003e76:	f043 0320 	orr.w	r3, r3, #32
 8003e7a:	9301      	str	r3, [sp, #4]
 8003e7c:	9b01      	ldr	r3, [sp, #4]
 8003e7e:	f361 138a 	bfi	r3, r1, #6, #5
 8003e82:	9301      	str	r3, [sp, #4]
 8003e84:	68c1      	ldr	r1, [r0, #12]
 8003e86:	9a01      	ldr	r2, [sp, #4]
 8003e88:	4b07      	ldr	r3, [pc, #28]	@ (8003ea8 <USB_OTG_FlushTxFifo+0x3c>)
 8003e8a:	610a      	str	r2, [r1, #16]
 8003e8c:	690a      	ldr	r2, [r1, #16]
 8003e8e:	9201      	str	r2, [sp, #4]
 8003e90:	3b01      	subs	r3, #1
 8003e92:	d002      	beq.n	8003e9a <USB_OTG_FlushTxFifo+0x2e>
 8003e94:	9a01      	ldr	r2, [sp, #4]
 8003e96:	0692      	lsls	r2, r2, #26
 8003e98:	d4f8      	bmi.n	8003e8c <USB_OTG_FlushTxFifo+0x20>
 8003e9a:	2003      	movs	r0, #3
 8003e9c:	f7ff fe6e 	bl	8003b7c <USB_OTG_BSP_uDelay>
 8003ea0:	2000      	movs	r0, #0
 8003ea2:	b002      	add	sp, #8
 8003ea4:	f85d fb04 	ldr.w	pc, [sp], #4
 8003ea8:	00030d41 	.word	0x00030d41

08003eac <USB_OTG_SetCurrentMode>:
 8003eac:	b510      	push	{r4, lr}
 8003eae:	68c4      	ldr	r4, [r0, #12]
 8003eb0:	68e3      	ldr	r3, [r4, #12]
 8003eb2:	b2c9      	uxtb	r1, r1
 8003eb4:	f3c3 6207 	ubfx	r2, r3, #24, #8
 8003eb8:	f022 0260 	bic.w	r2, r2, #96	@ 0x60
 8003ebc:	2901      	cmp	r1, #1
 8003ebe:	f362 631f 	bfi	r3, r2, #24, #8
 8003ec2:	d008      	beq.n	8003ed6 <USB_OTG_SetCurrentMode+0x2a>
 8003ec4:	b909      	cbnz	r1, 8003eca <USB_OTG_SetCurrentMode+0x1e>
 8003ec6:	f043 4380 	orr.w	r3, r3, #1073741824	@ 0x40000000
 8003eca:	2032      	movs	r0, #50	@ 0x32
 8003ecc:	60e3      	str	r3, [r4, #12]
 8003ece:	f7ff fe57 	bl	8003b80 <USB_OTG_BSP_mDelay>
 8003ed2:	2000      	movs	r0, #0
 8003ed4:	bd10      	pop	{r4, pc}
 8003ed6:	f043 5300 	orr.w	r3, r3, #536870912	@ 0x20000000
 8003eda:	e7f6      	b.n	8003eca <USB_OTG_SetCurrentMode+0x1e>

08003edc <USB_OTG_IsDeviceMode>:
 8003edc:	68c3      	ldr	r3, [r0, #12]
 8003ede:	6958      	ldr	r0, [r3, #20]
 8003ee0:	43c0      	mvns	r0, r0
 8003ee2:	f000 0001 	and.w	r0, r0, #1
 8003ee6:	4770      	bx	lr

08003ee8 <USB_OTG_ReadCoreItr>:
 8003ee8:	68c3      	ldr	r3, [r0, #12]
 8003eea:	6958      	ldr	r0, [r3, #20]
 8003eec:	699b      	ldr	r3, [r3, #24]
 8003eee:	4018      	ands	r0, r3
 8003ef0:	4770      	bx	lr
 8003ef2:	bf00      	nop

08003ef4 <USB_OTG_EnableDevInt>:
 8003ef4:	b410      	push	{r4}
 8003ef6:	68c3      	ldr	r3, [r0, #12]
 8003ef8:	4c0a      	ldr	r4, [pc, #40]	@ (8003f24 <USB_OTG_EnableDevInt+0x30>)
 8003efa:	f04f 31ff 	mov.w	r1, #4294967295	@ 0xffffffff
 8003efe:	4602      	mov	r2, r0
 8003f00:	2000      	movs	r0, #0
 8003f02:	6198      	str	r0, [r3, #24]
 8003f04:	6159      	str	r1, [r3, #20]
 8003f06:	6059      	str	r1, [r3, #4]
 8003f08:	6159      	str	r1, [r3, #20]
 8003f0a:	619c      	str	r4, [r3, #24]
 8003f0c:	78d1      	ldrb	r1, [r2, #3]
 8003f0e:	4a06      	ldr	r2, [pc, #24]	@ (8003f28 <USB_OTG_EnableDevInt+0x34>)
 8003f10:	699c      	ldr	r4, [r3, #24]
 8003f12:	fab1 f181 	clz	r1, r1
 8003f16:	0949      	lsrs	r1, r1, #5
 8003f18:	ea42 1201 	orr.w	r2, r2, r1, lsl #4
 8003f1c:	4322      	orrs	r2, r4
 8003f1e:	619a      	str	r2, [r3, #24]
 8003f20:	bc10      	pop	{r4}
 8003f22:	4770      	bx	lr
 8003f24:	80000800 	.word	0x80000800
 8003f28:	403c380c 	.word	0x403c380c

08003f2c <USB_OTG_CoreInitDev>:
 8003f2c:	b5f0      	push	{r4, r5, r6, r7, lr}
 8003f2e:	4604      	mov	r4, r0
 8003f30:	2000      	movs	r0, #0
 8003f32:	f8d4 310c 	ldr.w	r3, [r4, #268]	@ 0x10c
 8003f36:	6922      	ldr	r2, [r4, #16]
 8003f38:	6018      	str	r0, [r3, #0]
 8003f3a:	6813      	ldr	r3, [r2, #0]
 8003f3c:	68e1      	ldr	r1, [r4, #12]
 8003f3e:	f360 23cc 	bfi	r3, r0, #11, #2
 8003f42:	6013      	str	r3, [r2, #0]
 8003f44:	7ae3      	ldrb	r3, [r4, #11]
 8003f46:	2b01      	cmp	r3, #1
 8003f48:	b082      	sub	sp, #8
 8003f4a:	d111      	bne.n	8003f70 <USB_OTG_CoreInitDev+0x44>
 8003f4c:	6813      	ldr	r3, [r2, #0]
 8003f4e:	483e      	ldr	r0, [pc, #248]	@ (8004048 <USB_OTG_CoreInitDev+0x11c>)
 8003f50:	f043 0303 	orr.w	r3, r3, #3
 8003f54:	6013      	str	r3, [r2, #0]
 8003f56:	2580      	movs	r5, #128	@ 0x80
 8003f58:	4b3c      	ldr	r3, [pc, #240]	@ (800404c <USB_OTG_CoreInitDev+0x120>)
 8003f5a:	624d      	str	r5, [r1, #36]	@ 0x24
 8003f5c:	4a3c      	ldr	r2, [pc, #240]	@ (8004050 <USB_OTG_CoreInitDev+0x124>)
 8003f5e:	6288      	str	r0, [r1, #40]	@ 0x28
 8003f60:	f8c1 3104 	str.w	r3, [r1, #260]	@ 0x104
 8003f64:	f44f 73a0 	mov.w	r3, #320	@ 0x140
 8003f68:	f8c1 2108 	str.w	r2, [r1, #264]	@ 0x108
 8003f6c:	f8c1 310c 	str.w	r3, [r1, #268]	@ 0x10c
 8003f70:	2300      	movs	r3, #0
 8003f72:	9301      	str	r3, [sp, #4]
 8003f74:	9b01      	ldr	r3, [sp, #4]
 8003f76:	f043 0320 	orr.w	r3, r3, #32
 8003f7a:	9301      	str	r3, [sp, #4]
 8003f7c:	9a01      	ldr	r2, [sp, #4]
 8003f7e:	4b35      	ldr	r3, [pc, #212]	@ (8004054 <USB_OTG_CoreInitDev+0x128>)
 8003f80:	2010      	movs	r0, #16
 8003f82:	f360 128a 	bfi	r2, r0, #6, #5
 8003f86:	9201      	str	r2, [sp, #4]
 8003f88:	9a01      	ldr	r2, [sp, #4]
 8003f8a:	610a      	str	r2, [r1, #16]
 8003f8c:	690a      	ldr	r2, [r1, #16]
 8003f8e:	9201      	str	r2, [sp, #4]
 8003f90:	3b01      	subs	r3, #1
 8003f92:	d002      	beq.n	8003f9a <USB_OTG_CoreInitDev+0x6e>
 8003f94:	9a01      	ldr	r2, [sp, #4]
 8003f96:	0690      	lsls	r0, r2, #26
 8003f98:	d4f8      	bmi.n	8003f8c <USB_OTG_CoreInitDev+0x60>
 8003f9a:	2003      	movs	r0, #3
 8003f9c:	f7ff fdee 	bl	8003b7c <USB_OTG_BSP_uDelay>
 8003fa0:	2300      	movs	r3, #0
 8003fa2:	9300      	str	r3, [sp, #0]
 8003fa4:	9b00      	ldr	r3, [sp, #0]
 8003fa6:	68e1      	ldr	r1, [r4, #12]
 8003fa8:	f043 0310 	orr.w	r3, r3, #16
 8003fac:	9300      	str	r3, [sp, #0]
 8003fae:	9a00      	ldr	r2, [sp, #0]
 8003fb0:	4b28      	ldr	r3, [pc, #160]	@ (8004054 <USB_OTG_CoreInitDev+0x128>)
 8003fb2:	610a      	str	r2, [r1, #16]
 8003fb4:	690a      	ldr	r2, [r1, #16]
 8003fb6:	9200      	str	r2, [sp, #0]
 8003fb8:	3b01      	subs	r3, #1
 8003fba:	d002      	beq.n	8003fc2 <USB_OTG_CoreInitDev+0x96>
 8003fbc:	9a00      	ldr	r2, [sp, #0]
 8003fbe:	06d2      	lsls	r2, r2, #27
 8003fc0:	d4f8      	bmi.n	8003fb4 <USB_OTG_CoreInitDev+0x88>
 8003fc2:	2003      	movs	r0, #3
 8003fc4:	f7ff fdda 	bl	8003b7c <USB_OTG_BSP_uDelay>
 8003fc8:	6926      	ldr	r6, [r4, #16]
 8003fca:	2500      	movs	r5, #0
 8003fcc:	f04f 33ff 	mov.w	r3, #4294967295	@ 0xffffffff
 8003fd0:	6135      	str	r5, [r6, #16]
 8003fd2:	6175      	str	r5, [r6, #20]
 8003fd4:	61b3      	str	r3, [r6, #24]
 8003fd6:	61f5      	str	r5, [r6, #28]
 8003fd8:	7860      	ldrb	r0, [r4, #1]
 8003fda:	b330      	cbz	r0, 800402a <USB_OTG_CoreInitDev+0xfe>
 8003fdc:	f104 0214 	add.w	r2, r4, #20
 8003fe0:	ea4f 0c80 	mov.w	ip, r0, lsl #2
 8003fe4:	27ff      	movs	r7, #255	@ 0xff
 8003fe6:	eb02 0080 	add.w	r0, r2, r0, lsl #2
 8003fea:	f852 3f04 	ldr.w	r3, [r2, #4]!
 8003fee:	6819      	ldr	r1, [r3, #0]
 8003ff0:	2900      	cmp	r1, #0
 8003ff2:	bfb4      	ite	lt
 8003ff4:	f04f 4190 	movlt.w	r1, #1207959552	@ 0x48000000
 8003ff8:	2100      	movge	r1, #0
 8003ffa:	4282      	cmp	r2, r0
 8003ffc:	6019      	str	r1, [r3, #0]
 8003ffe:	611d      	str	r5, [r3, #16]
 8004000:	609f      	str	r7, [r3, #8]
 8004002:	d1f2      	bne.n	8003fea <USB_OTG_CoreInitDev+0xbe>
 8004004:	f104 0250 	add.w	r2, r4, #80	@ 0x50
 8004008:	eb02 000c 	add.w	r0, r2, ip
 800400c:	2700      	movs	r7, #0
 800400e:	25ff      	movs	r5, #255	@ 0xff
 8004010:	f852 3f04 	ldr.w	r3, [r2, #4]!
 8004014:	6819      	ldr	r1, [r3, #0]
 8004016:	2900      	cmp	r1, #0
 8004018:	bfb4      	ite	lt
 800401a:	f04f 4190 	movlt.w	r1, #1207959552	@ 0x48000000
 800401e:	2100      	movge	r1, #0
 8004020:	4290      	cmp	r0, r2
 8004022:	6019      	str	r1, [r3, #0]
 8004024:	611f      	str	r7, [r3, #16]
 8004026:	609d      	str	r5, [r3, #8]
 8004028:	d1f2      	bne.n	8004010 <USB_OTG_CoreInitDev+0xe4>
 800402a:	6933      	ldr	r3, [r6, #16]
 800402c:	f443 7380 	orr.w	r3, r3, #256	@ 0x100
 8004030:	6133      	str	r3, [r6, #16]
 8004032:	78e3      	ldrb	r3, [r4, #3]
 8004034:	2b01      	cmp	r3, #1
 8004036:	d101      	bne.n	800403c <USB_OTG_CoreInitDev+0x110>
 8004038:	4b07      	ldr	r3, [pc, #28]	@ (8004058 <USB_OTG_CoreInitDev+0x12c>)
 800403a:	6333      	str	r3, [r6, #48]	@ 0x30
 800403c:	4620      	mov	r0, r4
 800403e:	f7ff ff59 	bl	8003ef4 <USB_OTG_EnableDevInt>
 8004042:	2000      	movs	r0, #0
 8004044:	b002      	add	sp, #8
 8004046:	bdf0      	pop	{r4, r5, r6, r7, pc}
 8004048:	00200080 	.word	0x00200080
 800404c:	008000a0 	.word	0x008000a0
 8004050:	00200120 	.word	0x00200120
 8004054:	00030d41 	.word	0x00030d41
 8004058:	00810103 	.word	0x00810103

0800405c <USB_OTG_GetDeviceSpeed>:
 800405c:	6903      	ldr	r3, [r0, #16]
 800405e:	6898      	ldr	r0, [r3, #8]
 8004060:	f3c0 0041 	ubfx	r0, r0, #1, #2
 8004064:	2802      	cmp	r0, #2
 8004066:	bf1a      	itte	ne
 8004068:	f000 0001 	andne.w	r0, r0, #1
 800406c:	f1c0 0003 	rsbne	r0, r0, #3
 8004070:	2001      	moveq	r0, #1
 8004072:	4770      	bx	lr

08004074 <USB_OTG_EP0Activate>:
 8004074:	6903      	ldr	r3, [r0, #16]
 8004076:	6981      	ldr	r1, [r0, #24]
 8004078:	689a      	ldr	r2, [r3, #8]
 800407a:	6808      	ldr	r0, [r1, #0]
 800407c:	f3c2 0241 	ubfx	r2, r2, #1, #2
 8004080:	2a02      	cmp	r2, #2
 8004082:	bf0c      	ite	eq
 8004084:	2203      	moveq	r2, #3
 8004086:	2200      	movne	r2, #0
 8004088:	f362 000a 	bfi	r0, r2, #0, #11
 800408c:	6008      	str	r0, [r1, #0]
 800408e:	685a      	ldr	r2, [r3, #4]
 8004090:	f442 7280 	orr.w	r2, r2, #256	@ 0x100
 8004094:	2000      	movs	r0, #0
 8004096:	605a      	str	r2, [r3, #4]
 8004098:	4770      	bx	lr
 800409a:	bf00      	nop

0800409c <USB_OTG_EPActivate>:
 800409c:	b430      	push	{r4, r5}
 800409e:	784c      	ldrb	r4, [r1, #1]
 80040a0:	f891 c000 	ldrb.w	ip, [r1]
 80040a4:	2c01      	cmp	r4, #1
 80040a6:	f04f 0301 	mov.w	r3, #1
 80040aa:	fa03 f30c 	lsl.w	r3, r3, ip
 80040ae:	bf0c      	ite	eq
 80040b0:	f10c 0c06 	addeq.w	ip, ip, #6
 80040b4:	f10c 0c15 	addne.w	ip, ip, #21
 80040b8:	b29b      	uxth	r3, r3
 80040ba:	f850 402c 	ldr.w	r4, [r0, ip, lsl #2]
 80040be:	6825      	ldr	r5, [r4, #0]
 80040c0:	f04f 0200 	mov.w	r2, #0
 80040c4:	bf0c      	ite	eq
 80040c6:	f363 020f 	bfieq	r2, r3, #0, #16
 80040ca:	f363 421f 	bfine	r2, r3, #16, #16
 80040ce:	042b      	lsls	r3, r5, #16
 80040d0:	d415      	bmi.n	80040fe <USB_OTG_EPActivate+0x62>
 80040d2:	688b      	ldr	r3, [r1, #8]
 80040d4:	f891 c003 	ldrb.w	ip, [r1, #3]
 80040d8:	88c9      	ldrh	r1, [r1, #6]
 80040da:	f3c3 030a 	ubfx	r3, r3, #0, #11
 80040de:	f043 5380 	orr.w	r3, r3, #268435456	@ 0x10000000
 80040e2:	f443 4300 	orr.w	r3, r3, #32768	@ 0x8000
 80040e6:	f00c 0c03 	and.w	ip, ip, #3
 80040ea:	f001 010f 	and.w	r1, r1, #15
 80040ee:	ea43 438c 	orr.w	r3, r3, ip, lsl #18
 80040f2:	ea43 5381 	orr.w	r3, r3, r1, lsl #22
 80040f6:	4905      	ldr	r1, [pc, #20]	@ (800410c <USB_OTG_EPActivate+0x70>)
 80040f8:	4029      	ands	r1, r5
 80040fa:	430b      	orrs	r3, r1
 80040fc:	6023      	str	r3, [r4, #0]
 80040fe:	6903      	ldr	r3, [r0, #16]
 8004100:	69d9      	ldr	r1, [r3, #28]
 8004102:	430a      	orrs	r2, r1
 8004104:	2000      	movs	r0, #0
 8004106:	bc30      	pop	{r4, r5}
 8004108:	61da      	str	r2, [r3, #28]
 800410a:	4770      	bx	lr
 800410c:	ec337800 	.word	0xec337800

08004110 <USB_OTG_EPDeactivate>:
 8004110:	f891 c001 	ldrb.w	ip, [r1, #1]
 8004114:	780a      	ldrb	r2, [r1, #0]
 8004116:	f1bc 0f01 	cmp.w	ip, #1
 800411a:	f04f 0301 	mov.w	r3, #1
 800411e:	fa03 f302 	lsl.w	r3, r3, r2
 8004122:	bf0c      	ite	eq
 8004124:	3206      	addeq	r2, #6
 8004126:	3215      	addne	r2, #21
 8004128:	f04f 0100 	mov.w	r1, #0
 800412c:	b29b      	uxth	r3, r3
 800412e:	bf0c      	ite	eq
 8004130:	f363 010f 	bfieq	r1, r3, #0, #16
 8004134:	f363 411f 	bfine	r1, r3, #16, #16
 8004138:	f850 3022 	ldr.w	r3, [r0, r2, lsl #2]
 800413c:	6902      	ldr	r2, [r0, #16]
 800413e:	2000      	movs	r0, #0
 8004140:	6018      	str	r0, [r3, #0]
 8004142:	69d3      	ldr	r3, [r2, #28]
 8004144:	ea23 0301 	bic.w	r3, r3, r1
 8004148:	61d3      	str	r3, [r2, #28]
 800414a:	4770      	bx	lr

0800414c <USB_OTG_EPStartXfer>:
 800414c:	e92d 47f0 	stmdb	sp!, {r4, r5, r6, r7, r8, r9, sl, lr}
 8004150:	784d      	ldrb	r5, [r1, #1]
 8004152:	780a      	ldrb	r2, [r1, #0]
 8004154:	694b      	ldr	r3, [r1, #20]
 8004156:	f891 c003 	ldrb.w	ip, [r1, #3]
 800415a:	2d01      	cmp	r5, #1
 800415c:	d02c      	beq.n	80041b8 <USB_OTG_EPStartXfer+0x6c>
 800415e:	3215      	adds	r2, #21
 8004160:	688f      	ldr	r7, [r1, #8]
 8004162:	f850 5022 	ldr.w	r5, [r0, r2, lsl #2]
 8004166:	f3c7 0212 	ubfx	r2, r7, #0, #19
 800416a:	682c      	ldr	r4, [r5, #0]
 800416c:	692e      	ldr	r6, [r5, #16]
 800416e:	b30b      	cbz	r3, 80041b4 <USB_OTG_EPStartXfer+0x68>
 8004170:	443b      	add	r3, r7
 8004172:	3b01      	subs	r3, #1
 8004174:	fbb3 f3f7 	udiv	r3, r3, r7
 8004178:	f3c3 0709 	ubfx	r7, r3, #0, #10
 800417c:	fb07 f202 	mul.w	r2, r7, r2
 8004180:	463b      	mov	r3, r7
 8004182:	f3c2 0212 	ubfx	r2, r2, #0, #19
 8004186:	ea42 42c3 	orr.w	r2, r2, r3, lsl #19
 800418a:	f362 061c 	bfi	r6, r2, #0, #29
 800418e:	612e      	str	r6, [r5, #16]
 8004190:	78c3      	ldrb	r3, [r0, #3]
 8004192:	2b01      	cmp	r3, #1
 8004194:	bf04      	itt	eq
 8004196:	690b      	ldreq	r3, [r1, #16]
 8004198:	616b      	streq	r3, [r5, #20]
 800419a:	f1bc 0f01 	cmp.w	ip, #1
 800419e:	d03c      	beq.n	800421a <USB_OTG_EPStartXfer+0xce>
 80041a0:	f3c4 6307 	ubfx	r3, r4, #24, #8
 80041a4:	f063 037b 	orn	r3, r3, #123	@ 0x7b
 80041a8:	f363 641f 	bfi	r4, r3, #24, #8
 80041ac:	602c      	str	r4, [r5, #0]
 80041ae:	2000      	movs	r0, #0
 80041b0:	e8bd 87f0 	ldmia.w	sp!, {r4, r5, r6, r7, r8, r9, sl, pc}
 80041b4:	2301      	movs	r3, #1
 80041b6:	e7e6      	b.n	8004186 <USB_OTG_EPStartXfer+0x3a>
 80041b8:	eb00 0882 	add.w	r8, r0, r2, lsl #2
 80041bc:	f8d8 7018 	ldr.w	r7, [r8, #24]
 80041c0:	683c      	ldr	r4, [r7, #0]
 80041c2:	693e      	ldr	r6, [r7, #16]
 80041c4:	bb73      	cbnz	r3, 8004224 <USB_OTG_EPStartXfer+0xd8>
 80041c6:	f006 4660 	and.w	r6, r6, #3758096384	@ 0xe0000000
 80041ca:	f446 2600 	orr.w	r6, r6, #524288	@ 0x80000
 80041ce:	613e      	str	r6, [r7, #16]
 80041d0:	78c2      	ldrb	r2, [r0, #3]
 80041d2:	2a01      	cmp	r2, #1
 80041d4:	d05e      	beq.n	8004294 <USB_OTG_EPStartXfer+0x148>
 80041d6:	f1bc 0f01 	cmp.w	ip, #1
 80041da:	d144      	bne.n	8004266 <USB_OTG_EPStartXfer+0x11a>
 80041dc:	6900      	ldr	r0, [r0, #16]
 80041de:	6880      	ldr	r0, [r0, #8]
 80041e0:	f410 7f80 	tst.w	r0, #256	@ 0x100
 80041e4:	f3c4 6007 	ubfx	r0, r4, #24, #8
 80041e8:	bf0c      	ite	eq
 80041ea:	f060 005b 	orneq	r0, r0, #91	@ 0x5b
 80041ee:	f060 006b 	ornne	r0, r0, #107	@ 0x6b
 80041f2:	f360 641f 	bfi	r4, r0, #24, #8
 80041f6:	603c      	str	r4, [r7, #0]
 80041f8:	2a00      	cmp	r2, #0
 80041fa:	d1d8      	bne.n	80041ae <USB_OTG_EPStartXfer+0x62>
 80041fc:	b298      	uxth	r0, r3
 80041fe:	3003      	adds	r0, #3
 8004200:	1080      	asrs	r0, r0, #2
 8004202:	f8d8 40d0 	ldr.w	r4, [r8, #208]	@ 0xd0
 8004206:	d0d2      	beq.n	80041ae <USB_OTG_EPStartXfer+0x62>
 8004208:	68c9      	ldr	r1, [r1, #12]
 800420a:	4613      	mov	r3, r2
 800420c:	3301      	adds	r3, #1
 800420e:	f851 2b04 	ldr.w	r2, [r1], #4
 8004212:	6022      	str	r2, [r4, #0]
 8004214:	4298      	cmp	r0, r3
 8004216:	d1f9      	bne.n	800420c <USB_OTG_EPStartXfer+0xc0>
 8004218:	e7c9      	b.n	80041ae <USB_OTG_EPStartXfer+0x62>
 800421a:	794b      	ldrb	r3, [r1, #5]
 800421c:	b36b      	cbz	r3, 800427a <USB_OTG_EPStartXfer+0x12e>
 800421e:	f044 5400 	orr.w	r4, r4, #536870912	@ 0x20000000
 8004222:	e7bd      	b.n	80041a0 <USB_OTG_EPStartXfer+0x54>
 8004224:	f8d1 a008 	ldr.w	sl, [r1, #8]
 8004228:	f006 4960 	and.w	r9, r6, #3758096384	@ 0xe0000000
 800422c:	4e1e      	ldr	r6, [pc, #120]	@ (80042a8 <USB_OTG_EPStartXfer+0x15c>)
 800422e:	eb0a 0e03 	add.w	lr, sl, r3
 8004232:	f10e 3eff 	add.w	lr, lr, #4294967295	@ 0xffffffff
 8004236:	fbbe fefa 	udiv	lr, lr, sl
 800423a:	ea06 4ece 	and.w	lr, r6, lr, lsl #19
 800423e:	f3c3 0612 	ubfx	r6, r3, #0, #19
 8004242:	ea4e 0e06 	orr.w	lr, lr, r6
 8004246:	ea4e 0e09 	orr.w	lr, lr, r9
 800424a:	f1bc 0f01 	cmp.w	ip, #1
 800424e:	4676      	mov	r6, lr
 8004250:	d016      	beq.n	8004280 <USB_OTG_EPStartXfer+0x134>
 8004252:	f8c7 e010 	str.w	lr, [r7, #16]
 8004256:	78c3      	ldrb	r3, [r0, #3]
 8004258:	2b01      	cmp	r3, #1
 800425a:	d021      	beq.n	80042a0 <USB_OTG_EPStartXfer+0x154>
 800425c:	6903      	ldr	r3, [r0, #16]
 800425e:	4095      	lsls	r5, r2
 8004260:	6b5a      	ldr	r2, [r3, #52]	@ 0x34
 8004262:	4315      	orrs	r5, r2
 8004264:	635d      	str	r5, [r3, #52]	@ 0x34
 8004266:	f3c4 6307 	ubfx	r3, r4, #24, #8
 800426a:	f063 037b 	orn	r3, r3, #123	@ 0x7b
 800426e:	f363 641f 	bfi	r4, r3, #24, #8
 8004272:	603c      	str	r4, [r7, #0]
 8004274:	2000      	movs	r0, #0
 8004276:	e8bd 87f0 	ldmia.w	sp!, {r4, r5, r6, r7, r8, r9, sl, pc}
 800427a:	f044 5480 	orr.w	r4, r4, #268435456	@ 0x10000000
 800427e:	e78f      	b.n	80041a0 <USB_OTG_EPStartXfer+0x54>
 8004280:	f36c 765e 	bfi	r6, ip, #29, #2
 8004284:	613e      	str	r6, [r7, #16]
 8004286:	78c2      	ldrb	r2, [r0, #3]
 8004288:	2a01      	cmp	r2, #1
 800428a:	d1a7      	bne.n	80041dc <USB_OTG_EPStartXfer+0x90>
 800428c:	690a      	ldr	r2, [r1, #16]
 800428e:	617a      	str	r2, [r7, #20]
 8004290:	2201      	movs	r2, #1
 8004292:	e7a3      	b.n	80041dc <USB_OTG_EPStartXfer+0x90>
 8004294:	690a      	ldr	r2, [r1, #16]
 8004296:	617a      	str	r2, [r7, #20]
 8004298:	f1bc 0f01 	cmp.w	ip, #1
 800429c:	d0f8      	beq.n	8004290 <USB_OTG_EPStartXfer+0x144>
 800429e:	e7e2      	b.n	8004266 <USB_OTG_EPStartXfer+0x11a>
 80042a0:	690b      	ldr	r3, [r1, #16]
 80042a2:	617b      	str	r3, [r7, #20]
 80042a4:	e7df      	b.n	8004266 <USB_OTG_EPStartXfer+0x11a>
 80042a6:	bf00      	nop
 80042a8:	1ff80000 	.word	0x1ff80000

080042ac <USB_OTG_EP0StartXfer>:
 80042ac:	b470      	push	{r4, r5, r6}
 80042ae:	784b      	ldrb	r3, [r1, #1]
 80042b0:	694d      	ldr	r5, [r1, #20]
 80042b2:	2b01      	cmp	r3, #1
 80042b4:	d022      	beq.n	80042fc <USB_OTG_EP0StartXfer+0x50>
 80042b6:	780b      	ldrb	r3, [r1, #0]
 80042b8:	688a      	ldr	r2, [r1, #8]
 80042ba:	3315      	adds	r3, #21
 80042bc:	f850 6023 	ldr.w	r6, [r0, r3, lsl #2]
 80042c0:	6834      	ldr	r4, [r6, #0]
 80042c2:	6933      	ldr	r3, [r6, #16]
 80042c4:	b9c5      	cbnz	r5, 80042f8 <USB_OTG_EP0StartXfer+0x4c>
 80042c6:	f423 13c0 	bic.w	r3, r3, #1572864	@ 0x180000
 80042ca:	f002 027f 	and.w	r2, r2, #127	@ 0x7f
 80042ce:	f442 2200 	orr.w	r2, r2, #524288	@ 0x80000
 80042d2:	f023 037f 	bic.w	r3, r3, #127	@ 0x7f
 80042d6:	4313      	orrs	r3, r2
 80042d8:	6133      	str	r3, [r6, #16]
 80042da:	78c3      	ldrb	r3, [r0, #3]
 80042dc:	2b01      	cmp	r3, #1
 80042de:	bf04      	itt	eq
 80042e0:	690b      	ldreq	r3, [r1, #16]
 80042e2:	6173      	streq	r3, [r6, #20]
 80042e4:	f3c4 6307 	ubfx	r3, r4, #24, #8
 80042e8:	f063 037b 	orn	r3, r3, #123	@ 0x7b
 80042ec:	f363 641f 	bfi	r4, r3, #24, #8
 80042f0:	6034      	str	r4, [r6, #0]
 80042f2:	2000      	movs	r0, #0
 80042f4:	bc70      	pop	{r4, r5, r6}
 80042f6:	4770      	bx	lr
 80042f8:	614a      	str	r2, [r1, #20]
 80042fa:	e7e4      	b.n	80042c6 <USB_OTG_EP0StartXfer+0x1a>
 80042fc:	6982      	ldr	r2, [r0, #24]
 80042fe:	6814      	ldr	r4, [r2, #0]
 8004300:	6913      	ldr	r3, [r2, #16]
 8004302:	b9f5      	cbnz	r5, 8004342 <USB_OTG_EP0StartXfer+0x96>
 8004304:	f423 13c0 	bic.w	r3, r3, #1572864	@ 0x180000
 8004308:	f023 037f 	bic.w	r3, r3, #127	@ 0x7f
 800430c:	f445 2500 	orr.w	r5, r5, #524288	@ 0x80000
 8004310:	432b      	orrs	r3, r5
 8004312:	6113      	str	r3, [r2, #16]
 8004314:	78c3      	ldrb	r3, [r0, #3]
 8004316:	2b01      	cmp	r3, #1
 8004318:	d01c      	beq.n	8004354 <USB_OTG_EP0StartXfer+0xa8>
 800431a:	f3c4 6507 	ubfx	r5, r4, #24, #8
 800431e:	f065 057b 	orn	r5, r5, #123	@ 0x7b
 8004322:	f365 641f 	bfi	r4, r5, #24, #8
 8004326:	6014      	str	r4, [r2, #0]
 8004328:	2b00      	cmp	r3, #0
 800432a:	d1e2      	bne.n	80042f2 <USB_OTG_EP0StartXfer+0x46>
 800432c:	694b      	ldr	r3, [r1, #20]
 800432e:	2b00      	cmp	r3, #0
 8004330:	d0df      	beq.n	80042f2 <USB_OTG_EP0StartXfer+0x46>
 8004332:	6902      	ldr	r2, [r0, #16]
 8004334:	7808      	ldrb	r0, [r1, #0]
 8004336:	6b51      	ldr	r1, [r2, #52]	@ 0x34
 8004338:	2301      	movs	r3, #1
 800433a:	4083      	lsls	r3, r0
 800433c:	430b      	orrs	r3, r1
 800433e:	6353      	str	r3, [r2, #52]	@ 0x34
 8004340:	e7d7      	b.n	80042f2 <USB_OTG_EP0StartXfer+0x46>
 8004342:	688e      	ldr	r6, [r1, #8]
 8004344:	42ae      	cmp	r6, r5
 8004346:	bf3a      	itte	cc
 8004348:	614e      	strcc	r6, [r1, #20]
 800434a:	f006 057f 	andcc.w	r5, r6, #127	@ 0x7f
 800434e:	f005 057f 	andcs.w	r5, r5, #127	@ 0x7f
 8004352:	e7d7      	b.n	8004304 <USB_OTG_EP0StartXfer+0x58>
 8004354:	780b      	ldrb	r3, [r1, #0]
 8004356:	690d      	ldr	r5, [r1, #16]
 8004358:	3306      	adds	r3, #6
 800435a:	f850 1023 	ldr.w	r1, [r0, r3, lsl #2]
 800435e:	f3c4 6307 	ubfx	r3, r4, #24, #8
 8004362:	f063 037b 	orn	r3, r3, #123	@ 0x7b
 8004366:	f363 641f 	bfi	r4, r3, #24, #8
 800436a:	614d      	str	r5, [r1, #20]
 800436c:	2000      	movs	r0, #0
 800436e:	6014      	str	r4, [r2, #0]
 8004370:	bc70      	pop	{r4, r5, r6}
 8004372:	4770      	bx	lr

08004374 <USB_OTG_EPSetStall>:
 8004374:	784b      	ldrb	r3, [r1, #1]
 8004376:	780a      	ldrb	r2, [r1, #0]
 8004378:	2b01      	cmp	r3, #1
 800437a:	d008      	beq.n	800438e <USB_OTG_EPSetStall+0x1a>
 800437c:	3215      	adds	r2, #21
 800437e:	f850 2022 	ldr.w	r2, [r0, r2, lsl #2]
 8004382:	6813      	ldr	r3, [r2, #0]
 8004384:	f443 1300 	orr.w	r3, r3, #2097152	@ 0x200000
 8004388:	6013      	str	r3, [r2, #0]
 800438a:	2000      	movs	r0, #0
 800438c:	4770      	bx	lr
 800438e:	3206      	adds	r2, #6
 8004390:	4909      	ldr	r1, [pc, #36]	@ (80043b8 <USB_OTG_EPSetStall+0x44>)
 8004392:	f850 0022 	ldr.w	r0, [r0, r2, lsl #2]
 8004396:	6802      	ldr	r2, [r0, #0]
 8004398:	2a00      	cmp	r2, #0
 800439a:	bfa8      	it	ge
 800439c:	f3c2 7380 	ubfxge	r3, r2, #30, #1
 80043a0:	039b      	lsls	r3, r3, #14
 80043a2:	ea01 4112 	and.w	r1, r1, r2, lsr #16
 80043a6:	f043 0320 	orr.w	r3, r3, #32
 80043aa:	430b      	orrs	r3, r1
 80043ac:	f363 421f 	bfi	r2, r3, #16, #16
 80043b0:	6002      	str	r2, [r0, #0]
 80043b2:	2000      	movs	r0, #0
 80043b4:	4770      	bx	lr
 80043b6:	bf00      	nop
 80043b8:	ffffbfdf 	.word	0xffffbfdf

080043bc <USB_OTG_EPClearStall>:
 80043bc:	784a      	ldrb	r2, [r1, #1]
 80043be:	780b      	ldrb	r3, [r1, #0]
 80043c0:	2a01      	cmp	r2, #1
 80043c2:	bf0c      	ite	eq
 80043c4:	3306      	addeq	r3, #6
 80043c6:	3315      	addne	r3, #21
 80043c8:	78ca      	ldrb	r2, [r1, #3]
 80043ca:	f850 0023 	ldr.w	r0, [r0, r3, lsl #2]
 80043ce:	6803      	ldr	r3, [r0, #0]
 80043d0:	3a02      	subs	r2, #2
 80043d2:	2a01      	cmp	r2, #1
 80043d4:	f36f 5355 	bfc	r3, #21, #1
 80043d8:	bf8c      	ite	hi
 80043da:	f3c3 7200 	ubfxhi	r2, r3, #28, #1
 80043de:	2201      	movls	r2, #1
 80043e0:	f362 731c 	bfi	r3, r2, #28, #1
 80043e4:	6003      	str	r3, [r0, #0]
 80043e6:	2000      	movs	r0, #0
 80043e8:	4770      	bx	lr
 80043ea:	bf00      	nop

080043ec <USB_OTG_ReadDevAllOutEp_itr>:
 80043ec:	6903      	ldr	r3, [r0, #16]
 80043ee:	6998      	ldr	r0, [r3, #24]
 80043f0:	69db      	ldr	r3, [r3, #28]
 80043f2:	4018      	ands	r0, r3
 80043f4:	0c00      	lsrs	r0, r0, #16
 80043f6:	4770      	bx	lr

080043f8 <USB_OTG_ReadDevOutEP_itr>:
 80043f8:	b2c9      	uxtb	r1, r1
 80043fa:	3115      	adds	r1, #21
 80043fc:	6903      	ldr	r3, [r0, #16]
 80043fe:	f850 2021 	ldr.w	r2, [r0, r1, lsl #2]
 8004402:	6890      	ldr	r0, [r2, #8]
 8004404:	695b      	ldr	r3, [r3, #20]
 8004406:	4018      	ands	r0, r3
 8004408:	4770      	bx	lr
 800440a:	bf00      	nop

0800440c <USB_OTG_ReadDevAllInEPItr>:
 800440c:	6903      	ldr	r3, [r0, #16]
 800440e:	6998      	ldr	r0, [r3, #24]
 8004410:	69db      	ldr	r3, [r3, #28]
 8004412:	4018      	ands	r0, r3
 8004414:	b280      	uxth	r0, r0
 8004416:	4770      	bx	lr

08004418 <USB_OTG_EP0_OutStart>:
 8004418:	6d43      	ldr	r3, [r0, #84]	@ 0x54
 800441a:	4a06      	ldr	r2, [pc, #24]	@ (8004434 <USB_OTG_EP0_OutStart+0x1c>)
 800441c:	611a      	str	r2, [r3, #16]
 800441e:	78c2      	ldrb	r2, [r0, #3]
 8004420:	2a01      	cmp	r2, #1
 8004422:	d106      	bne.n	8004432 <USB_OTG_EP0_OutStart+0x1a>
 8004424:	f500 60b9 	add.w	r0, r0, #1480	@ 0x5c8
 8004428:	6158      	str	r0, [r3, #20]
 800442a:	f04f 2280 	mov.w	r2, #2147516416	@ 0x80008000
 800442e:	6819      	ldr	r1, [r3, #0]
 8004430:	601a      	str	r2, [r3, #0]
 8004432:	4770      	bx	lr
 8004434:	c0080018 	.word	0xc0080018

08004438 <USBD_OTG_ISR_Handler>:
 8004438:	e92d 4ff0 	stmdb	sp!, {r4, r5, r6, r7, r8, r9, sl, fp, lr}
 800443c:	b082      	sub	sp, #8
 800443e:	4604      	mov	r4, r0
 8004440:	f7ff fd4c 	bl	8003edc <USB_OTG_IsDeviceMode>
 8004444:	b918      	cbnz	r0, 800444e <USBD_OTG_ISR_Handler+0x16>
 8004446:	2000      	movs	r0, #0
 8004448:	b002      	add	sp, #8
 800444a:	e8bd 8ff0 	ldmia.w	sp!, {r4, r5, r6, r7, r8, r9, sl, fp, pc}
 800444e:	4620      	mov	r0, r4
 8004450:	f7ff fd4a 	bl	8003ee8 <USB_OTG_ReadCoreItr>
 8004454:	4680      	mov	r8, r0
 8004456:	2800      	cmp	r0, #0
 8004458:	d0f5      	beq.n	8004446 <USBD_OTG_ISR_Handler+0xe>
 800445a:	f3c0 4a07 	ubfx	sl, r0, #16, #8
 800445e:	f01a 0008 	ands.w	r0, sl, #8
 8004462:	f040 80ca 	bne.w	80045fa <USBD_OTG_ISR_Handler+0x1c2>
 8004466:	f01a 0f04 	tst.w	sl, #4
 800446a:	d172      	bne.n	8004552 <USBD_OTG_ISR_Handler+0x11a>
 800446c:	f018 0f02 	tst.w	r8, #2
 8004470:	fa5f f588 	uxtb.w	r5, r8
 8004474:	d002      	beq.n	800447c <USBD_OTG_ISR_Handler+0x44>
 8004476:	68e3      	ldr	r3, [r4, #12]
 8004478:	2202      	movs	r2, #2
 800447a:	615a      	str	r2, [r3, #20]
 800447c:	f1b8 0f00 	cmp.w	r8, #0
 8004480:	ea4f 6718 	mov.w	r7, r8, lsr #24
 8004484:	f2c0 817e 	blt.w	8004784 <USBD_OTG_ISR_Handler+0x34c>
 8004488:	f418 6f00 	tst.w	r8, #2048	@ 0x800
 800448c:	f3c8 2607 	ubfx	r6, r8, #8, #8
 8004490:	f040 8117 	bne.w	80046c2 <USBD_OTG_ISR_Handler+0x28a>
 8004494:	072b      	lsls	r3, r5, #28
 8004496:	d508      	bpl.n	80044aa <USBD_OTG_ISR_Handler+0x72>
 8004498:	4b9a      	ldr	r3, [pc, #616]	@ (8004704 <USBD_OTG_ISR_Handler+0x2cc>)
 800449a:	681b      	ldr	r3, [r3, #0]
 800449c:	4620      	mov	r0, r4
 800449e:	68db      	ldr	r3, [r3, #12]
 80044a0:	4798      	blx	r3
 80044a2:	68e3      	ldr	r3, [r4, #12]
 80044a4:	2208      	movs	r2, #8
 80044a6:	615a      	str	r2, [r3, #20]
 80044a8:	2001      	movs	r0, #1
 80044aa:	06e9      	lsls	r1, r5, #27
 80044ac:	d43a      	bmi.n	8004524 <USBD_OTG_ISR_Handler+0xec>
 80044ae:	06f2      	lsls	r2, r6, #27
 80044b0:	f100 812c 	bmi.w	800470c <USBD_OTG_ISR_Handler+0x2d4>
 80044b4:	06b3      	lsls	r3, r6, #26
 80044b6:	f100 80e6 	bmi.w	8004686 <USBD_OTG_ISR_Handler+0x24e>
 80044ba:	f01a 0f10 	tst.w	sl, #16
 80044be:	d009      	beq.n	80044d4 <USBD_OTG_ISR_Handler+0x9c>
 80044c0:	4b90      	ldr	r3, [pc, #576]	@ (8004704 <USBD_OTG_ISR_Handler+0x2cc>)
 80044c2:	681b      	ldr	r3, [r3, #0]
 80044c4:	4620      	mov	r0, r4
 80044c6:	69db      	ldr	r3, [r3, #28]
 80044c8:	4798      	blx	r3
 80044ca:	68e3      	ldr	r3, [r4, #12]
 80044cc:	f44f 1280 	mov.w	r2, #1048576	@ 0x100000
 80044d0:	615a      	str	r2, [r3, #20]
 80044d2:	2001      	movs	r0, #1
 80044d4:	f01a 0f20 	tst.w	sl, #32
 80044d8:	d009      	beq.n	80044ee <USBD_OTG_ISR_Handler+0xb6>
 80044da:	4b8a      	ldr	r3, [pc, #552]	@ (8004704 <USBD_OTG_ISR_Handler+0x2cc>)
 80044dc:	681b      	ldr	r3, [r3, #0]
 80044de:	4620      	mov	r0, r4
 80044e0:	6a1b      	ldr	r3, [r3, #32]
 80044e2:	4798      	blx	r3
 80044e4:	68e3      	ldr	r3, [r4, #12]
 80044e6:	f44f 1200 	mov.w	r2, #2097152	@ 0x200000
 80044ea:	615a      	str	r2, [r3, #20]
 80044ec:	2001      	movs	r0, #1
 80044ee:	067e      	lsls	r6, r7, #25
 80044f0:	d509      	bpl.n	8004506 <USBD_OTG_ISR_Handler+0xce>
 80044f2:	4b84      	ldr	r3, [pc, #528]	@ (8004704 <USBD_OTG_ISR_Handler+0x2cc>)
 80044f4:	681b      	ldr	r3, [r3, #0]
 80044f6:	4620      	mov	r0, r4
 80044f8:	6a5b      	ldr	r3, [r3, #36]	@ 0x24
 80044fa:	4798      	blx	r3
 80044fc:	68e3      	ldr	r3, [r4, #12]
 80044fe:	f04f 4280 	mov.w	r2, #1073741824	@ 0x40000000
 8004502:	615a      	str	r2, [r3, #20]
 8004504:	2001      	movs	r0, #1
 8004506:	0769      	lsls	r1, r5, #29
 8004508:	d59e      	bpl.n	8004448 <USBD_OTG_ISR_Handler+0x10>
 800450a:	68e3      	ldr	r3, [r4, #12]
 800450c:	685d      	ldr	r5, [r3, #4]
 800450e:	076a      	lsls	r2, r5, #29
 8004510:	d505      	bpl.n	800451e <USBD_OTG_ISR_Handler+0xe6>
 8004512:	4b7c      	ldr	r3, [pc, #496]	@ (8004704 <USBD_OTG_ISR_Handler+0x2cc>)
 8004514:	681b      	ldr	r3, [r3, #0]
 8004516:	4620      	mov	r0, r4
 8004518:	6a9b      	ldr	r3, [r3, #40]	@ 0x28
 800451a:	4798      	blx	r3
 800451c:	68e3      	ldr	r3, [r4, #12]
 800451e:	605d      	str	r5, [r3, #4]
 8004520:	2001      	movs	r0, #1
 8004522:	e791      	b.n	8004448 <USBD_OTG_ISR_Handler+0x10>
 8004524:	68e3      	ldr	r3, [r4, #12]
 8004526:	699a      	ldr	r2, [r3, #24]
 8004528:	f022 0210 	bic.w	r2, r2, #16
 800452c:	619a      	str	r2, [r3, #24]
 800452e:	f8d3 8020 	ldr.w	r8, [r3, #32]
 8004532:	f3c8 4243 	ubfx	r2, r8, #17, #4
 8004536:	2a02      	cmp	r2, #2
 8004538:	f008 090f 	and.w	r9, r8, #15
 800453c:	f000 81c5 	beq.w	80048ca <USBD_OTG_ISR_Handler+0x492>
 8004540:	2a06      	cmp	r2, #6
 8004542:	f000 81af 	beq.w	80048a4 <USBD_OTG_ISR_Handler+0x46c>
 8004546:	699a      	ldr	r2, [r3, #24]
 8004548:	f042 0210 	orr.w	r2, r2, #16
 800454c:	619a      	str	r2, [r3, #24]
 800454e:	2001      	movs	r0, #1
 8004550:	e7ad      	b.n	80044ae <USBD_OTG_ISR_Handler+0x76>
 8004552:	4620      	mov	r0, r4
 8004554:	f7ff ff5a 	bl	800440c <USB_OTG_ReadDevAllInEPItr>
 8004558:	4681      	mov	r9, r0
 800455a:	2800      	cmp	r0, #0
 800455c:	d04b      	beq.n	80045f6 <USBD_OTG_ISR_Handler+0x1be>
 800455e:	f04f 0b00 	mov.w	fp, #0
 8004562:	e88d 0500 	stmia.w	sp, {r8, sl}
 8004566:	4625      	mov	r5, r4
 8004568:	f104 0718 	add.w	r7, r4, #24
 800456c:	46a2      	mov	sl, r4
 800456e:	465c      	mov	r4, fp
 8004570:	f019 0f01 	tst.w	r9, #1
 8004574:	d031      	beq.n	80045da <USBD_OTG_ISR_Handler+0x1a2>
 8004576:	f8da 1010 	ldr.w	r1, [sl, #16]
 800457a:	fa5f fb84 	uxtb.w	fp, r4
 800457e:	6908      	ldr	r0, [r1, #16]
 8004580:	6b4e      	ldr	r6, [r1, #52]	@ 0x34
 8004582:	f10b 0206 	add.w	r2, fp, #6
 8004586:	fa26 f60b 	lsr.w	r6, r6, fp
 800458a:	f85a 2022 	ldr.w	r2, [sl, r2, lsl #2]
 800458e:	01f6      	lsls	r6, r6, #7
 8004590:	6892      	ldr	r2, [r2, #8]
 8004592:	b2f6      	uxtb	r6, r6
 8004594:	4306      	orrs	r6, r0
 8004596:	4016      	ands	r6, r2
 8004598:	b2f2      	uxtb	r2, r6
 800459a:	f016 0601 	ands.w	r6, r6, #1
 800459e:	f000 810c 	beq.w	80047ba <USBD_OTG_ISR_Handler+0x382>
 80045a2:	4a58      	ldr	r2, [pc, #352]	@ (8004704 <USBD_OTG_ISR_Handler+0x2cc>)
 80045a4:	6b48      	ldr	r0, [r1, #52]	@ 0x34
 80045a6:	683b      	ldr	r3, [r7, #0]
 80045a8:	6812      	ldr	r2, [r2, #0]
 80045aa:	f04f 0c01 	mov.w	ip, #1
 80045ae:	fa0c f804 	lsl.w	r8, ip, r4
 80045b2:	ea20 0008 	bic.w	r0, r0, r8
 80045b6:	6852      	ldr	r2, [r2, #4]
 80045b8:	6348      	str	r0, [r1, #52]	@ 0x34
 80045ba:	f8c3 c008 	str.w	ip, [r3, #8]
 80045be:	4659      	mov	r1, fp
 80045c0:	4650      	mov	r0, sl
 80045c2:	4790      	blx	r2
 80045c4:	f89a 2003 	ldrb.w	r2, [sl, #3]
 80045c8:	2a01      	cmp	r2, #1
 80045ca:	f000 819c 	beq.w	8004906 <USBD_OTG_ISR_Handler+0x4ce>
 80045ce:	0673      	lsls	r3, r6, #25
 80045d0:	f140 80f9 	bpl.w	80047c6 <USBD_OTG_ISR_Handler+0x38e>
 80045d4:	683a      	ldr	r2, [r7, #0]
 80045d6:	2140      	movs	r1, #64	@ 0x40
 80045d8:	6091      	str	r1, [r2, #8]
 80045da:	ea5f 0959 	movs.w	r9, r9, lsr #1
 80045de:	f104 0401 	add.w	r4, r4, #1
 80045e2:	f105 0528 	add.w	r5, r5, #40	@ 0x28
 80045e6:	f107 0704 	add.w	r7, r7, #4
 80045ea:	d1c1      	bne.n	8004570 <USBD_OTG_ISR_Handler+0x138>
 80045ec:	4654      	mov	r4, sl
 80045ee:	f8dd 8000 	ldr.w	r8, [sp]
 80045f2:	f8dd a004 	ldr.w	sl, [sp, #4]
 80045f6:	2001      	movs	r0, #1
 80045f8:	e738      	b.n	800446c <USBD_OTG_ISR_Handler+0x34>
 80045fa:	4620      	mov	r0, r4
 80045fc:	f7ff fef6 	bl	80043ec <USB_OTG_ReadDevAllOutEp_itr>
 8004600:	4605      	mov	r5, r0
 8004602:	2800      	cmp	r0, #0
 8004604:	f000 8141 	beq.w	800488a <USBD_OTG_ISR_Handler+0x452>
 8004608:	4f3e      	ldr	r7, [pc, #248]	@ (8004704 <USBD_OTG_ISR_Handler+0x2cc>)
 800460a:	f8cd 8000 	str.w	r8, [sp]
 800460e:	f104 0654 	add.w	r6, r4, #84	@ 0x54
 8004612:	46a3      	mov	fp, r4
 8004614:	f04f 0900 	mov.w	r9, #0
 8004618:	e008      	b.n	800462c <USBD_OTG_ISR_Handler+0x1f4>
 800461a:	086d      	lsrs	r5, r5, #1
 800461c:	f109 0901 	add.w	r9, r9, #1
 8004620:	f106 0604 	add.w	r6, r6, #4
 8004624:	f10b 0b28 	add.w	fp, fp, #40	@ 0x28
 8004628:	f000 812d 	beq.w	8004886 <USBD_OTG_ISR_Handler+0x44e>
 800462c:	07e9      	lsls	r1, r5, #31
 800462e:	d5f4      	bpl.n	800461a <USBD_OTG_ISR_Handler+0x1e2>
 8004630:	fa5f f889 	uxtb.w	r8, r9
 8004634:	4641      	mov	r1, r8
 8004636:	4620      	mov	r0, r4
 8004638:	f7ff fede 	bl	80043f8 <USB_OTG_ReadDevOutEP_itr>
 800463c:	07c2      	lsls	r2, r0, #31
 800463e:	b2c3      	uxtb	r3, r0
 8004640:	f140 80c7 	bpl.w	80047d2 <USBD_OTG_ISR_Handler+0x39a>
 8004644:	6833      	ldr	r3, [r6, #0]
 8004646:	2201      	movs	r2, #1
 8004648:	609a      	str	r2, [r3, #8]
 800464a:	78e2      	ldrb	r2, [r4, #3]
 800464c:	2a01      	cmp	r2, #1
 800464e:	d107      	bne.n	8004660 <USBD_OTG_ISR_Handler+0x228>
 8004650:	691a      	ldr	r2, [r3, #16]
 8004652:	f8db 3378 	ldr.w	r3, [fp, #888]	@ 0x378
 8004656:	f3c2 0212 	ubfx	r2, r2, #0, #19
 800465a:	1a9b      	subs	r3, r3, r2
 800465c:	f8cb 3388 	str.w	r3, [fp, #904]	@ 0x388
 8004660:	683b      	ldr	r3, [r7, #0]
 8004662:	4641      	mov	r1, r8
 8004664:	681b      	ldr	r3, [r3, #0]
 8004666:	4620      	mov	r0, r4
 8004668:	4798      	blx	r3
 800466a:	78e3      	ldrb	r3, [r4, #3]
 800466c:	2b01      	cmp	r3, #1
 800466e:	d1d4      	bne.n	800461a <USBD_OTG_ISR_Handler+0x1e2>
 8004670:	f1b9 0f00 	cmp.w	r9, #0
 8004674:	d1d1      	bne.n	800461a <USBD_OTG_ISR_Handler+0x1e2>
 8004676:	f894 3111 	ldrb.w	r3, [r4, #273]	@ 0x111
 800467a:	2b05      	cmp	r3, #5
 800467c:	d1cd      	bne.n	800461a <USBD_OTG_ISR_Handler+0x1e2>
 800467e:	4620      	mov	r0, r4
 8004680:	f7ff feca 	bl	8004418 <USB_OTG_EP0_OutStart>
 8004684:	e7c9      	b.n	800461a <USBD_OTG_ISR_Handler+0x1e2>
 8004686:	4620      	mov	r0, r4
 8004688:	f7ff fcf4 	bl	8004074 <USB_OTG_EP0Activate>
 800468c:	68e3      	ldr	r3, [r4, #12]
 800468e:	4620      	mov	r0, r4
 8004690:	68de      	ldr	r6, [r3, #12]
 8004692:	f7ff fce3 	bl	800405c <USB_OTG_GetDeviceSpeed>
 8004696:	2803      	cmp	r0, #3
 8004698:	bf0c      	ite	eq
 800469a:	2209      	moveq	r2, #9
 800469c:	2205      	movne	r2, #5
 800469e:	f362 268d 	bfi	r6, r2, #10, #4
 80046a2:	bf0c      	ite	eq
 80046a4:	2200      	moveq	r2, #0
 80046a6:	2201      	movne	r2, #1
 80046a8:	70a2      	strb	r2, [r4, #2]
 80046aa:	68e3      	ldr	r3, [r4, #12]
 80046ac:	bf0c      	ite	eq
 80046ae:	f44f 7200 	moveq.w	r2, #512	@ 0x200
 80046b2:	2240      	movne	r2, #64	@ 0x40
 80046b4:	80a2      	strh	r2, [r4, #4]
 80046b6:	f44f 5200 	mov.w	r2, #8192	@ 0x2000
 80046ba:	60de      	str	r6, [r3, #12]
 80046bc:	2001      	movs	r0, #1
 80046be:	615a      	str	r2, [r3, #20]
 80046c0:	e6fb      	b.n	80044ba <USBD_OTG_ISR_Handler+0x82>
 80046c2:	4b10      	ldr	r3, [pc, #64]	@ (8004704 <USBD_OTG_ISR_Handler+0x2cc>)
 80046c4:	681b      	ldr	r3, [r3, #0]
 80046c6:	4620      	mov	r0, r4
 80046c8:	695b      	ldr	r3, [r3, #20]
 80046ca:	4798      	blx	r3
 80046cc:	6923      	ldr	r3, [r4, #16]
 80046ce:	6899      	ldr	r1, [r3, #8]
 80046d0:	68e3      	ldr	r3, [r4, #12]
 80046d2:	f44f 6200 	mov.w	r2, #2048	@ 0x800
 80046d6:	615a      	str	r2, [r3, #20]
 80046d8:	7aa3      	ldrb	r3, [r4, #10]
 80046da:	b183      	cbz	r3, 80046fe <USBD_OTG_ISR_Handler+0x2c6>
 80046dc:	07ca      	lsls	r2, r1, #31
 80046de:	d50e      	bpl.n	80046fe <USBD_OTG_ISR_Handler+0x2c6>
 80046e0:	f8d4 310c 	ldr.w	r3, [r4, #268]	@ 0x10c
 80046e4:	4908      	ldr	r1, [pc, #32]	@ (8004708 <USBD_OTG_ISR_Handler+0x2d0>)
 80046e6:	681a      	ldr	r2, [r3, #0]
 80046e8:	f042 0201 	orr.w	r2, r2, #1
 80046ec:	601a      	str	r2, [r3, #0]
 80046ee:	681a      	ldr	r2, [r3, #0]
 80046f0:	f042 0203 	orr.w	r2, r2, #3
 80046f4:	601a      	str	r2, [r3, #0]
 80046f6:	690b      	ldr	r3, [r1, #16]
 80046f8:	f043 0306 	orr.w	r3, r3, #6
 80046fc:	610b      	str	r3, [r1, #16]
 80046fe:	2001      	movs	r0, #1
 8004700:	e6c8      	b.n	8004494 <USBD_OTG_ISR_Handler+0x5c>
 8004702:	bf00      	nop
 8004704:	20000164 	.word	0x20000164
 8004708:	e000ed00 	.word	0xe000ed00
 800470c:	6922      	ldr	r2, [r4, #16]
 800470e:	6853      	ldr	r3, [r2, #4]
 8004710:	f04f 0800 	mov.w	r8, #0
 8004714:	f023 0301 	bic.w	r3, r3, #1
 8004718:	6053      	str	r3, [r2, #4]
 800471a:	4641      	mov	r1, r8
 800471c:	4620      	mov	r0, r4
 800471e:	f7ff fba5 	bl	8003e6c <USB_OTG_FlushTxFifo>
 8004722:	7862      	ldrb	r2, [r4, #1]
 8004724:	4641      	mov	r1, r8
 8004726:	b15a      	cbz	r2, 8004740 <USBD_OTG_ISR_Handler+0x308>
 8004728:	f104 0314 	add.w	r3, r4, #20
 800472c:	eb03 0c82 	add.w	ip, r3, r2, lsl #2
 8004730:	22ff      	movs	r2, #255	@ 0xff
 8004732:	f853 0f04 	ldr.w	r0, [r3, #4]!
 8004736:	6082      	str	r2, [r0, #8]
 8004738:	6bd8      	ldr	r0, [r3, #60]	@ 0x3c
 800473a:	4563      	cmp	r3, ip
 800473c:	6082      	str	r2, [r0, #8]
 800473e:	d1f8      	bne.n	8004732 <USBD_OTG_ISR_Handler+0x2fa>
 8004740:	220f      	movs	r2, #15
 8004742:	6923      	ldr	r3, [r4, #16]
 8004744:	f362 0807 	bfi	r8, r2, #0, #8
 8004748:	222f      	movs	r2, #47	@ 0x2f
 800474a:	f362 0107 	bfi	r1, r2, #0, #8
 800474e:	f04f 32ff 	mov.w	r2, #4294967295	@ 0xffffffff
 8004752:	619a      	str	r2, [r3, #24]
 8004754:	f04f 1201 	mov.w	r2, #65537	@ 0x10001
 8004758:	61da      	str	r2, [r3, #28]
 800475a:	f8c3 8014 	str.w	r8, [r3, #20]
 800475e:	6119      	str	r1, [r3, #16]
 8004760:	681a      	ldr	r2, [r3, #0]
 8004762:	f36f 120a 	bfc	r2, #4, #7
 8004766:	601a      	str	r2, [r3, #0]
 8004768:	4620      	mov	r0, r4
 800476a:	f7ff fe55 	bl	8004418 <USB_OTG_EP0_OutStart>
 800476e:	4b76      	ldr	r3, [pc, #472]	@ (8004948 <USBD_OTG_ISR_Handler+0x510>)
 8004770:	68e2      	ldr	r2, [r4, #12]
 8004772:	681b      	ldr	r3, [r3, #0]
 8004774:	f44f 5180 	mov.w	r1, #4096	@ 0x1000
 8004778:	691b      	ldr	r3, [r3, #16]
 800477a:	6151      	str	r1, [r2, #20]
 800477c:	4620      	mov	r0, r4
 800477e:	4798      	blx	r3
 8004780:	2001      	movs	r0, #1
 8004782:	e697      	b.n	80044b4 <USBD_OTG_ISR_Handler+0x7c>
 8004784:	7aa3      	ldrb	r3, [r4, #10]
 8004786:	b143      	cbz	r3, 800479a <USBD_OTG_ISR_Handler+0x362>
 8004788:	f8d4 310c 	ldr.w	r3, [r4, #268]	@ 0x10c
 800478c:	f8d4 210c 	ldr.w	r2, [r4, #268]	@ 0x10c
 8004790:	f023 0103 	bic.w	r1, r3, #3
 8004794:	f361 0307 	bfi	r3, r1, #0, #8
 8004798:	6013      	str	r3, [r2, #0]
 800479a:	4b6b      	ldr	r3, [pc, #428]	@ (8004948 <USBD_OTG_ISR_Handler+0x510>)
 800479c:	6922      	ldr	r2, [r4, #16]
 800479e:	681b      	ldr	r3, [r3, #0]
 80047a0:	6999      	ldr	r1, [r3, #24]
 80047a2:	6853      	ldr	r3, [r2, #4]
 80047a4:	f023 0301 	bic.w	r3, r3, #1
 80047a8:	6053      	str	r3, [r2, #4]
 80047aa:	4620      	mov	r0, r4
 80047ac:	4788      	blx	r1
 80047ae:	68e3      	ldr	r3, [r4, #12]
 80047b0:	f04f 4200 	mov.w	r2, #2147483648	@ 0x80000000
 80047b4:	615a      	str	r2, [r3, #20]
 80047b6:	2001      	movs	r0, #1
 80047b8:	e666      	b.n	8004488 <USBD_OTG_ISR_Handler+0x50>
 80047ba:	0753      	lsls	r3, r2, #29
 80047bc:	d50f      	bpl.n	80047de <USBD_OTG_ISR_Handler+0x3a6>
 80047be:	683a      	ldr	r2, [r7, #0]
 80047c0:	2304      	movs	r3, #4
 80047c2:	6093      	str	r3, [r2, #8]
 80047c4:	461e      	mov	r6, r3
 80047c6:	07b0      	lsls	r0, r6, #30
 80047c8:	d50e      	bpl.n	80047e8 <USBD_OTG_ISR_Handler+0x3b0>
 80047ca:	683a      	ldr	r2, [r7, #0]
 80047cc:	2102      	movs	r1, #2
 80047ce:	6091      	str	r1, [r2, #8]
 80047d0:	e703      	b.n	80045da <USBD_OTG_ISR_Handler+0x1a2>
 80047d2:	0798      	lsls	r0, r3, #30
 80047d4:	d551      	bpl.n	800487a <USBD_OTG_ISR_Handler+0x442>
 80047d6:	6833      	ldr	r3, [r6, #0]
 80047d8:	2202      	movs	r2, #2
 80047da:	609a      	str	r2, [r3, #8]
 80047dc:	e71d      	b.n	800461a <USBD_OTG_ISR_Handler+0x1e2>
 80047de:	0716      	lsls	r6, r2, #28
 80047e0:	d545      	bpl.n	800486e <USBD_OTG_ISR_Handler+0x436>
 80047e2:	683a      	ldr	r2, [r7, #0]
 80047e4:	2608      	movs	r6, #8
 80047e6:	6096      	str	r6, [r2, #8]
 80047e8:	0631      	lsls	r1, r6, #24
 80047ea:	f57f aef6 	bpl.w	80045da <USBD_OTG_ISR_Handler+0x1a2>
 80047ee:	683b      	ldr	r3, [r7, #0]
 80047f0:	f8d5 012c 	ldr.w	r0, [r5, #300]	@ 0x12c
 80047f4:	699e      	ldr	r6, [r3, #24]
 80047f6:	f8d5 1130 	ldr.w	r1, [r5, #304]	@ 0x130
 80047fa:	f8d5 2120 	ldr.w	r2, [r5, #288]	@ 0x120
 80047fe:	fa1f fe86 	uxth.w	lr, r6
 8004802:	1a46      	subs	r6, r0, r1
 8004804:	42b2      	cmp	r2, r6
 8004806:	bf28      	it	cs
 8004808:	4632      	movcs	r2, r6
 800480a:	3203      	adds	r2, #3
 800480c:	ebbe 0f92 	cmp.w	lr, r2, lsr #2
 8004810:	461e      	mov	r6, r3
 8004812:	d824      	bhi.n	800485e <USBD_OTG_ISR_Handler+0x426>
 8004814:	e028      	b.n	8004868 <USBD_OTG_ISR_Handler+0x430>
 8004816:	f8d5 3120 	ldr.w	r3, [r5, #288]	@ 0x120
 800481a:	f8d5 1124 	ldr.w	r1, [r5, #292]	@ 0x124
 800481e:	429e      	cmp	r6, r3
 8004820:	bf28      	it	cs
 8004822:	461e      	movcs	r6, r3
 8004824:	b2b3      	uxth	r3, r6
 8004826:	465a      	mov	r2, fp
 8004828:	4650      	mov	r0, sl
 800482a:	f7ff f9db 	bl	8003be4 <USB_OTG_WritePacket>
 800482e:	f8d5 1130 	ldr.w	r1, [r5, #304]	@ 0x130
 8004832:	f8d5 3124 	ldr.w	r3, [r5, #292]	@ 0x124
 8004836:	f8d5 012c 	ldr.w	r0, [r5, #300]	@ 0x12c
 800483a:	4431      	add	r1, r6
 800483c:	f106 0803 	add.w	r8, r6, #3
 8004840:	4433      	add	r3, r6
 8004842:	4281      	cmp	r1, r0
 8004844:	ea4f 0898 	mov.w	r8, r8, lsr #2
 8004848:	f8c5 3124 	str.w	r3, [r5, #292]	@ 0x124
 800484c:	f8c5 1130 	str.w	r1, [r5, #304]	@ 0x130
 8004850:	d265      	bcs.n	800491e <USBD_OTG_ISR_Handler+0x4e6>
 8004852:	683b      	ldr	r3, [r7, #0]
 8004854:	699a      	ldr	r2, [r3, #24]
 8004856:	b292      	uxth	r2, r2
 8004858:	4590      	cmp	r8, r2
 800485a:	461e      	mov	r6, r3
 800485c:	d204      	bcs.n	8004868 <USBD_OTG_ISR_Handler+0x430>
 800485e:	4281      	cmp	r1, r0
 8004860:	eba0 0601 	sub.w	r6, r0, r1
 8004864:	d3d7      	bcc.n	8004816 <USBD_OTG_ISR_Handler+0x3de>
 8004866:	461e      	mov	r6, r3
 8004868:	2280      	movs	r2, #128	@ 0x80
 800486a:	60b2      	str	r2, [r6, #8]
 800486c:	e6b5      	b.n	80045da <USBD_OTG_ISR_Handler+0x1a2>
 800486e:	06d0      	lsls	r0, r2, #27
 8004870:	d561      	bpl.n	8004936 <USBD_OTG_ISR_Handler+0x4fe>
 8004872:	683a      	ldr	r2, [r7, #0]
 8004874:	2110      	movs	r1, #16
 8004876:	6091      	str	r1, [r2, #8]
 8004878:	e6af      	b.n	80045da <USBD_OTG_ISR_Handler+0x1a2>
 800487a:	0759      	lsls	r1, r3, #29
 800487c:	d507      	bpl.n	800488e <USBD_OTG_ISR_Handler+0x456>
 800487e:	6833      	ldr	r3, [r6, #0]
 8004880:	2204      	movs	r2, #4
 8004882:	609a      	str	r2, [r3, #8]
 8004884:	e6c9      	b.n	800461a <USBD_OTG_ISR_Handler+0x1e2>
 8004886:	f8dd 8000 	ldr.w	r8, [sp]
 800488a:	2001      	movs	r0, #1
 800488c:	e5eb      	b.n	8004466 <USBD_OTG_ISR_Handler+0x2e>
 800488e:	071a      	lsls	r2, r3, #28
 8004890:	f57f aec3 	bpl.w	800461a <USBD_OTG_ISR_Handler+0x1e2>
 8004894:	683b      	ldr	r3, [r7, #0]
 8004896:	4620      	mov	r0, r4
 8004898:	689b      	ldr	r3, [r3, #8]
 800489a:	4798      	blx	r3
 800489c:	6833      	ldr	r3, [r6, #0]
 800489e:	2208      	movs	r2, #8
 80048a0:	609a      	str	r2, [r3, #8]
 80048a2:	e6ba      	b.n	800461a <USBD_OTG_ISR_Handler+0x1e2>
 80048a4:	eb09 0989 	add.w	r9, r9, r9, lsl #2
 80048a8:	eb04 09c9 	add.w	r9, r4, r9, lsl #3
 80048ac:	2208      	movs	r2, #8
 80048ae:	f504 61b9 	add.w	r1, r4, #1480	@ 0x5c8
 80048b2:	4620      	mov	r0, r4
 80048b4:	f7ff f9ac 	bl	8003c10 <USB_OTG_ReadPacket>
 80048b8:	f8d9 3388 	ldr.w	r3, [r9, #904]	@ 0x388
 80048bc:	f3c8 180a 	ubfx	r8, r8, #4, #11
 80048c0:	4443      	add	r3, r8
 80048c2:	f8c9 3388 	str.w	r3, [r9, #904]	@ 0x388
 80048c6:	68e3      	ldr	r3, [r4, #12]
 80048c8:	e63d      	b.n	8004546 <USBD_OTG_ISR_Handler+0x10e>
 80048ca:	f647 72f0 	movw	r2, #32752	@ 0x7ff0
 80048ce:	ea12 0f08 	tst.w	r2, r8
 80048d2:	f43f ae38 	beq.w	8004546 <USBD_OTG_ISR_Handler+0x10e>
 80048d6:	eb09 0989 	add.w	r9, r9, r9, lsl #2
 80048da:	eb04 09c9 	add.w	r9, r4, r9, lsl #3
 80048de:	f3c8 180a 	ubfx	r8, r8, #4, #11
 80048e2:	f8d9 137c 	ldr.w	r1, [r9, #892]	@ 0x37c
 80048e6:	4642      	mov	r2, r8
 80048e8:	4620      	mov	r0, r4
 80048ea:	f7ff f991 	bl	8003c10 <USB_OTG_ReadPacket>
 80048ee:	f8d9 337c 	ldr.w	r3, [r9, #892]	@ 0x37c
 80048f2:	4443      	add	r3, r8
 80048f4:	f8c9 337c 	str.w	r3, [r9, #892]	@ 0x37c
 80048f8:	f8d9 3388 	ldr.w	r3, [r9, #904]	@ 0x388
 80048fc:	4443      	add	r3, r8
 80048fe:	f8c9 3388 	str.w	r3, [r9, #904]	@ 0x388
 8004902:	68e3      	ldr	r3, [r4, #12]
 8004904:	e61f      	b.n	8004546 <USBD_OTG_ISR_Handler+0x10e>
 8004906:	2c00      	cmp	r4, #0
 8004908:	f47f ae61 	bne.w	80045ce <USBD_OTG_ISR_Handler+0x196>
 800490c:	f89a 2111 	ldrb.w	r2, [sl, #273]	@ 0x111
 8004910:	2a04      	cmp	r2, #4
 8004912:	f47f ae5c 	bne.w	80045ce <USBD_OTG_ISR_Handler+0x196>
 8004916:	4650      	mov	r0, sl
 8004918:	f7ff fd7e 	bl	8004418 <USB_OTG_EP0_OutStart>
 800491c:	e657      	b.n	80045ce <USBD_OTG_ISR_Handler+0x196>
 800491e:	f8da 0010 	ldr.w	r0, [sl, #16]
 8004922:	f895 6118 	ldrb.w	r6, [r5, #280]	@ 0x118
 8004926:	6b42      	ldr	r2, [r0, #52]	@ 0x34
 8004928:	2101      	movs	r1, #1
 800492a:	40b1      	lsls	r1, r6
 800492c:	ea22 0201 	bic.w	r2, r2, r1
 8004930:	683e      	ldr	r6, [r7, #0]
 8004932:	6342      	str	r2, [r0, #52]	@ 0x34
 8004934:	e798      	b.n	8004868 <USBD_OTG_ISR_Handler+0x430>
 8004936:	0691      	lsls	r1, r2, #26
 8004938:	bf58      	it	pl
 800493a:	4616      	movpl	r6, r2
 800493c:	f57f ae47 	bpl.w	80045ce <USBD_OTG_ISR_Handler+0x196>
 8004940:	683a      	ldr	r2, [r7, #0]
 8004942:	2120      	movs	r1, #32
 8004944:	6091      	str	r1, [r2, #8]
 8004946:	e648      	b.n	80045da <USBD_OTG_ISR_Handler+0x1a2>
 8004948:	20000164 	.word	0x20000164
 800494c:	5f424c53 	.word	0x5f424c53
 8004950:	4554494c 	.word	0x4554494c
 8004954:	7067203a 	.word	0x7067203a
 8004958:	635f6f69 	.word	0x635f6f69
 800495c:	69666e6f 	.word	0x69666e6f
 8004960:	6e697067 	.word	0x6e697067
 8004964:	0a292873 	.word	0x0a292873
 8004968:	00000000 	.word	0x00000000
 800496c:	5f424c53 	.word	0x5f424c53
 8004970:	4554494c 	.word	0x4554494c
 8004974:	6174203a 	.word	0x6174203a
 8004978:	28306b73 	.word	0x28306b73
 800497c:	00000a29 	.word	0x00000a29
 8004980:	5f424c53 	.word	0x5f424c53
 8004984:	4554494c 	.word	0x4554494c
 8004988:	6174203a 	.word	0x6174203a
 800498c:	28306b73 	.word	0x28306b73
 8004990:	202d2029 	.word	0x202d2029
 8004994:	5b667562 	.word	0x5b667562
 8004998:	3d205d30 	.word	0x3d205d30
 800499c:	2c642520 	.word	0x2c642520
 80049a0:	000a6425 	.word	0x000a6425
 80049a4:	64626c73 	.word	0x64626c73
 80049a8:	63697665 	.word	0x63697665
 80049ac:	00000065 	.word	0x00000065
 80049b0:	6f697067 	.word	0x6f697067
 80049b4:	7665645f 	.word	0x7665645f
 80049b8:	00656369 	.word	0x00656369

080049bc <slb_device>:
 80049bc:	080049a4 080049d0 20000284 20000024     .I...I..... $.. 
 80049cc:	00000000                                ....

080049d0 <slb_config>:
 80049d0:	00000021 00000000 00000000 0800023d     !...........=...
 80049e0:	080001e5                                ....

080049e4 <gpio_device>:
 80049e4:	080049b0 080049f8 00000000 00000000     .I...I..........
 80049f4:	2000000c                                ... 

080049f8 <gpio_config>:
 80049f8:	00800001 00008000 00000000 2a2a2a0a     .............***
 8004a08:	73617420 6425206b 7473202c 3a6b6361      task %d, stack:
 8004a18:	25783020 73282070 20657a69 0a296425      0x%p (size %d).
 8004a28:	00000000 4c554e3c 00003e4c 33323130     ....<NULL>..0123
 8004a38:	37363534 62613938 66656463 00000000     456789abcdef....
 8004a48:	204d5241 74726f43 4d207865 73282034     ARM Cortex M4 (s
 8004a58:	32336d74 78783466 00000029 37392e30     tm32f4xx)...0.97
 8004a68:	00000000 2f584355 7620534f 62207325     ....UCX/OS v%s b
 8004a78:	20746f6f 25206e6f 00000a73 70616568     oot on %s...heap
 8004a88:	696e695f 2c292874 20642520 65747962     _init(), %d byte
 8004a98:	72662073 000a6565 00000a41 00000a42     s free..A...B...
 8004aa8:	74696873 25202c31 00000a64 00000a43     shit1, %d...C...
 8004ab8:	74696873 00000a32 73736170 0000000a     shit2...pass....
 8004ac8:	00000a46 252c6264 64252c64 0000000a     F...db,%d,%d....
 8004ad8:	00000a5a 00000a58 2a2a2a0a 4c414820     Z...X....*** HAL
 8004ae8:	25282054 00002964 25202d20 00000a73     T (%d).. - %s...
 8004af8:	6b736174 3a642520 25783020 73202c70     task %d: 0x%p, s
 8004b08:	6b636174 7830203a 202c7025 657a6973     tack: 0x%p, size
 8004b18:	0a642520 00000000 334d5453 69562032      %d.....STM32 Vi
 8004b28:	61757472 6f43206c 726f506d 00000074     rtual ComPort...
 8004b38:	694d5453 656f7263 7463656c 696e6f72     STMicroelectroni
 8004b48:	00007363 30303030 30303030 43303530     cs..00000000050C
 8004b58:	00000000 20504356 666e6f43 00006769     ....VCP Config..
 8004b68:	20504356 65746e49 63616672 00000065     VCP Interface...
 8004b78:	65206f6e 726f7272 00000000 6c696166     no error....fail
 8004b88:	00657275 74206f6e 736b7361 206f7420     ure.no tasks to 
 8004b98:	006e7572 2062636b 6f6c6c61 61662063     run.kcb alloc fa
 8004ba8:	64656c69 00000000 20626374 6f6c6c61     iled....tcb allo
 8004bb8:	61662063 64656c69 00000000 63617473     c failed....stac
 8004bc8:	6c61206b 20636f6c 6c696166 00006465     k alloc failed..
 8004bd8:	6b736174 746f6e20 756f6620 0000646e     task not found..
 8004be8:	6b736174 73757320 646e6570 69616620     task suspend fai
 8004bf8:	0064656c 6b736174 73657220 20656d75     led.task resume 
 8004c08:	6c696166 00006465 6b736174 766e6920     failed..task inv
 8004c18:	64696c61 69727020 7469726f 00000079     alid priority...
 8004c28:	63617473 6863206b 206b6365 6c696166     stack check fail
 8004c38:	00006465 65706970 6c6c6120 6620636f     ed..pipe alloc f
 8004c48:	656c6961 00000064 65706970 61656420     ailed...pipe dea
 8004c58:	636f6c6c 69616620 0064656c 616d6573     lloc failed.sema
 8004c68:	6c6c6120 6620636f 656c6961 00000064      alloc failed...
 8004c78:	616d6573 61656420 636f6c6c 69616620     sema dealloc fai
 8004c88:	0064656c 616d6573 65706f20 69746172     led.sema operati
 8004c98:	66206e6f 656c6961 00000064 7373656d     on failed...mess
 8004ca8:	20656761 75657571 6f6e2065 6d652074     age queue not em
 8004cb8:	00797470 6e6b6e75 206e776f 73616572     pty.unknown reas
 8004cc8:	00006e6f                                on..
