
./build/target/image.elf:     file format elf32-littlearm


Disassembly of section .text:

08000188 <setjmp>:
 8000188:	1c02      	adds	r2, r0, #0
 800018a:	4673      	mov	r3, lr
 800018c:	c0f8      	stmia	r0!, {r3, r4, r5, r6, r7}
 800018e:	4643      	mov	r3, r8
 8000190:	464c      	mov	r4, r9
 8000192:	4655      	mov	r5, sl
 8000194:	465e      	mov	r6, fp
 8000196:	466f      	mov	r7, sp
 8000198:	c0f8      	stmia	r0!, {r3, r4, r5, r6, r7}
 800019a:	caf8      	ldmia	r2!, {r3, r4, r5, r6, r7}
 800019c:	2000      	movs	r0, #0
 800019e:	4770      	bx	lr

080001a0 <longjmp>:
 80001a0:	1c02      	adds	r2, r0, #0
 80001a2:	3014      	adds	r0, #20
 80001a4:	c8f8      	ldmia	r0!, {r3, r4, r5, r6, r7}
 80001a6:	4698      	mov	r8, r3
 80001a8:	46a1      	mov	r9, r4
 80001aa:	46aa      	mov	sl, r5
 80001ac:	46b3      	mov	fp, r6
 80001ae:	46bd      	mov	sp, r7
 80001b0:	caf8      	ldmia	r2!, {r3, r4, r5, r6, r7}
 80001b2:	1c08      	adds	r0, r1, #0
 80001b4:	d100      	bne.n	80001b8 <longjmp+0x18>
 80001b6:	2001      	movs	r0, #1
 80001b8:	4718      	bx	r3
 80001ba:	bf00      	nop

080001bc <PendSV_Handler>:
 80001bc:	f3ef 8009 	mrs	r0, PSP
 80001c0:	e920 0ff0 	stmdb	r0!, {r4, r5, r6, r7, r8, r9, sl, fp}
 80001c4:	4905      	ldr	r1, [pc, #20]	; (80001dc <PendSV_Handler+0x20>)
 80001c6:	6809      	ldr	r1, [r1, #0]
 80001c8:	6008      	str	r0, [r1, #0]
 80001ca:	4905      	ldr	r1, [pc, #20]	; (80001e0 <PendSV_Handler+0x24>)
 80001cc:	6809      	ldr	r1, [r1, #0]
 80001ce:	6808      	ldr	r0, [r1, #0]
 80001d0:	e8b0 0ff0 	ldmia.w	r0!, {r4, r5, r6, r7, r8, r9, sl, fp}
 80001d4:	f380 8809 	msr	PSP, r0
 80001d8:	4770      	bx	lr
 80001da:	0000      	.short	0x0000
 80001dc:	200002d4 	.word	0x200002d4
 80001e0:	200002d0 	.word	0x200002d0

080001e4 <gpio_sdl>:
 80001e4:	b530      	push	{r4, r5, lr}
 80001e6:	b130      	cbz	r0, 80001f6 <gpio_sdl+0x12>
 80001e8:	2801      	cmp	r0, #1
 80001ea:	d01b      	beq.n	8000224 <gpio_sdl+0x40>
 80001ec:	3001      	adds	r0, #1
 80001ee:	d00b      	beq.n	8000208 <gpio_sdl+0x24>
 80001f0:	f04f 30ff 	mov.w	r0, #4294967295	; 0xffffffff
 80001f4:	bd30      	pop	{r4, r5, pc}
 80001f6:	4b0f      	ldr	r3, [pc, #60]	; (8000234 <gpio_sdl+0x50>)
 80001f8:	4a0f      	ldr	r2, [pc, #60]	; (8000238 <gpio_sdl+0x54>)
 80001fa:	681b      	ldr	r3, [r3, #0]
 80001fc:	6810      	ldr	r0, [r2, #0]
 80001fe:	68db      	ldr	r3, [r3, #12]
 8000200:	2180      	movs	r1, #128	; 0x80
 8000202:	4798      	blx	r3
 8000204:	2000      	movs	r0, #0
 8000206:	bd30      	pop	{r4, r5, pc}
 8000208:	4d0a      	ldr	r5, [pc, #40]	; (8000234 <gpio_sdl+0x50>)
 800020a:	4c0b      	ldr	r4, [pc, #44]	; (8000238 <gpio_sdl+0x54>)
 800020c:	682b      	ldr	r3, [r5, #0]
 800020e:	6820      	ldr	r0, [r4, #0]
 8000210:	689b      	ldr	r3, [r3, #8]
 8000212:	2180      	movs	r1, #128	; 0x80
 8000214:	4798      	blx	r3
 8000216:	682b      	ldr	r3, [r5, #0]
 8000218:	6820      	ldr	r0, [r4, #0]
 800021a:	685b      	ldr	r3, [r3, #4]
 800021c:	4798      	blx	r3
 800021e:	f3c0 10c0 	ubfx	r0, r0, #7, #1
 8000222:	bd30      	pop	{r4, r5, pc}
 8000224:	4b03      	ldr	r3, [pc, #12]	; (8000234 <gpio_sdl+0x50>)
 8000226:	4a04      	ldr	r2, [pc, #16]	; (8000238 <gpio_sdl+0x54>)
 8000228:	681b      	ldr	r3, [r3, #0]
 800022a:	6810      	ldr	r0, [r2, #0]
 800022c:	689b      	ldr	r3, [r3, #8]
 800022e:	2180      	movs	r1, #128	; 0x80
 8000230:	4798      	blx	r3
 8000232:	e7e7      	b.n	8000204 <gpio_sdl+0x20>
 8000234:	20000004 	.word	0x20000004
 8000238:	20000008 	.word	0x20000008

0800023c <gpio_configpins>:
 800023c:	b500      	push	{lr}
 800023e:	4806      	ldr	r0, [pc, #24]	; (8000258 <gpio_configpins+0x1c>)
 8000240:	f001 f8dc 	bl	80013fc <ucx_printf>
 8000244:	4b05      	ldr	r3, [pc, #20]	; (800025c <gpio_configpins+0x20>)
 8000246:	4a06      	ldr	r2, [pc, #24]	; (8000260 <gpio_configpins+0x24>)
 8000248:	681b      	ldr	r3, [r3, #0]
 800024a:	6810      	ldr	r0, [r2, #0]
 800024c:	681b      	ldr	r3, [r3, #0]
 800024e:	4798      	blx	r3
 8000250:	2000      	movs	r0, #0
 8000252:	f85d fb04 	ldr.w	pc, [sp], #4
 8000256:	bf00      	nop
 8000258:	080048cc 	.word	0x080048cc
 800025c:	20000004 	.word	0x20000004
 8000260:	20000008 	.word	0x20000008

08000264 <task2>:
 8000264:	b5f0      	push	{r4, r5, r6, r7, lr}
 8000266:	4f10      	ldr	r7, [pc, #64]	; (80002a8 <task2+0x44>)
 8000268:	4e10      	ldr	r6, [pc, #64]	; (80002ac <task2+0x48>)
 800026a:	6838      	ldr	r0, [r7, #0]
 800026c:	b09a      	sub	sp, #104	; 0x68
 800026e:	2100      	movs	r1, #0
 8000270:	f000 f836 	bl	80002e0 <dev_open>
 8000274:	480e      	ldr	r0, [pc, #56]	; (80002b0 <task2+0x4c>)
 8000276:	f001 f8c1 	bl	80013fc <ucx_printf>
 800027a:	2264      	movs	r2, #100	; 0x64
 800027c:	2100      	movs	r1, #0
 800027e:	a801      	add	r0, sp, #4
 8000280:	f001 f8b2 	bl	80013e8 <ucx_memset>
 8000284:	6838      	ldr	r0, [r7, #0]
 8000286:	2205      	movs	r2, #5
 8000288:	a901      	add	r1, sp, #4
 800028a:	f000 f82d 	bl	80002e8 <dev_read>
 800028e:	f10d 0503 	add.w	r5, sp, #3
 8000292:	2400      	movs	r4, #0
 8000294:	4621      	mov	r1, r4
 8000296:	f815 2f01 	ldrb.w	r2, [r5, #1]!
 800029a:	4630      	mov	r0, r6
 800029c:	3401      	adds	r4, #1
 800029e:	f001 f8ad 	bl	80013fc <ucx_printf>
 80002a2:	2c07      	cmp	r4, #7
 80002a4:	d1f6      	bne.n	8000294 <task2+0x30>
 80002a6:	e7ed      	b.n	8000284 <task2+0x20>
 80002a8:	20000000 	.word	0x20000000
 80002ac:	080048f4 	.word	0x080048f4
 80002b0:	080048ec 	.word	0x080048ec

080002b4 <app_main>:
 80002b4:	b500      	push	{lr}
 80002b6:	f44f 6100 	mov.w	r1, #2048	; 0x800
 80002ba:	4805      	ldr	r0, [pc, #20]	; (80002d0 <app_main+0x1c>)
 80002bc:	f001 ff18 	bl	80020f0 <ucx_task_spawn>
 80002c0:	4b04      	ldr	r3, [pc, #16]	; (80002d4 <app_main+0x20>)
 80002c2:	6818      	ldr	r0, [r3, #0]
 80002c4:	f000 f808 	bl	80002d8 <dev_init>
 80002c8:	2001      	movs	r0, #1
 80002ca:	f85d fb04 	ldr.w	pc, [sp], #4
 80002ce:	bf00      	nop
 80002d0:	08000265 	.word	0x08000265
 80002d4:	20000000 	.word	0x20000000

080002d8 <dev_init>:
 80002d8:	68c3      	ldr	r3, [r0, #12]
 80002da:	681b      	ldr	r3, [r3, #0]
 80002dc:	4718      	bx	r3
 80002de:	bf00      	nop

080002e0 <dev_open>:
 80002e0:	68c3      	ldr	r3, [r0, #12]
 80002e2:	689b      	ldr	r3, [r3, #8]
 80002e4:	4718      	bx	r3
 80002e6:	bf00      	nop

080002e8 <dev_read>:
 80002e8:	68c3      	ldr	r3, [r0, #12]
 80002ea:	691b      	ldr	r3, [r3, #16]
 80002ec:	4718      	bx	r3
 80002ee:	bf00      	nop

080002f0 <driver_int_attach>:
 80002f0:	6840      	ldr	r0, [r0, #4]
 80002f2:	f000 ba8f 	b.w	8000814 <gpio_ll_int_attach>
 80002f6:	bf00      	nop

080002f8 <driver_toggle>:
 80002f8:	6840      	ldr	r0, [r0, #4]
 80002fa:	f000 b981 	b.w	8000600 <gpio_ll_toggle>
 80002fe:	bf00      	nop

08000300 <driver_clear>:
 8000300:	6840      	ldr	r0, [r0, #4]
 8000302:	f000 b95b 	b.w	80005bc <gpio_ll_clear>
 8000306:	bf00      	nop

08000308 <driver_set>:
 8000308:	6840      	ldr	r0, [r0, #4]
 800030a:	f000 b935 	b.w	8000578 <gpio_ll_set>
 800030e:	bf00      	nop

08000310 <driver_get>:
 8000310:	b500      	push	{lr}
 8000312:	6840      	ldr	r0, [r0, #4]
 8000314:	f000 f910 	bl	8000538 <gpio_ll_get>
 8000318:	2800      	cmp	r0, #0
 800031a:	bfa8      	it	ge
 800031c:	b280      	uxthge	r0, r0
 800031e:	f85d fb04 	ldr.w	pc, [sp], #4
 8000322:	bf00      	nop

08000324 <driver_setup>:
 8000324:	6840      	ldr	r0, [r0, #4]
 8000326:	f000 b801 	b.w	800032c <gpio_ll_setup>
 800032a:	bf00      	nop

0800032c <gpio_ll_setup>:
 800032c:	e92d 43f0 	stmdb	sp!, {r4, r5, r6, r7, r8, r9, lr}
 8000330:	4606      	mov	r6, r0
 8000332:	b086      	sub	sp, #24
 8000334:	2500      	movs	r5, #0
 8000336:	f04f 0803 	mov.w	r8, #3
 800033a:	8873      	ldrh	r3, [r6, #2]
 800033c:	412b      	asrs	r3, r5
 800033e:	07db      	lsls	r3, r3, #31
 8000340:	d525      	bpl.n	800038e <gpio_ll_setup+0x62>
 8000342:	006a      	lsls	r2, r5, #1
 8000344:	6874      	ldr	r4, [r6, #4]
 8000346:	68b1      	ldr	r1, [r6, #8]
 8000348:	fa08 f302 	lsl.w	r3, r8, r2
 800034c:	401c      	ands	r4, r3
 800034e:	40d4      	lsrs	r4, r2
 8000350:	2c01      	cmp	r4, #1
 8000352:	d007      	beq.n	8000364 <gpio_ll_setup+0x38>
 8000354:	2c02      	cmp	r4, #2
 8000356:	d04a      	beq.n	80003ee <gpio_ll_setup+0xc2>
 8000358:	b304      	cbz	r4, 800039c <gpio_ll_setup+0x70>
 800035a:	f04f 30ff 	mov.w	r0, #4294967295	; 0xffffffff
 800035e:	b006      	add	sp, #24
 8000360:	e8bd 83f0 	ldmia.w	sp!, {r4, r5, r6, r7, r8, r9, pc}
 8000364:	7837      	ldrb	r7, [r6, #0]
 8000366:	2f01      	cmp	r7, #1
 8000368:	d071      	beq.n	800044e <gpio_ll_setup+0x122>
 800036a:	2f02      	cmp	r7, #2
 800036c:	d05a      	beq.n	8000424 <gpio_ll_setup+0xf8>
 800036e:	2f00      	cmp	r7, #0
 8000370:	d1f3      	bne.n	800035a <gpio_ll_setup+0x2e>
 8000372:	4621      	mov	r1, r4
 8000374:	4620      	mov	r0, r4
 8000376:	f001 fcfb 	bl	8001d70 <RCC_AHB1PeriphClockCmd>
 800037a:	9402      	str	r4, [sp, #8]
 800037c:	9403      	str	r4, [sp, #12]
 800037e:	486b      	ldr	r0, [pc, #428]	; (800052c <gpio_ll_setup+0x200>)
 8000380:	9704      	str	r7, [sp, #16]
 8000382:	40ac      	lsls	r4, r5
 8000384:	a901      	add	r1, sp, #4
 8000386:	9705      	str	r7, [sp, #20]
 8000388:	9401      	str	r4, [sp, #4]
 800038a:	f001 fc2d 	bl	8001be8 <GPIO_Init>
 800038e:	3501      	adds	r5, #1
 8000390:	2d10      	cmp	r5, #16
 8000392:	d1d2      	bne.n	800033a <gpio_ll_setup+0xe>
 8000394:	2000      	movs	r0, #0
 8000396:	b006      	add	sp, #24
 8000398:	e8bd 83f0 	ldmia.w	sp!, {r4, r5, r6, r7, r8, r9, pc}
 800039c:	f896 9000 	ldrb.w	r9, [r6]
 80003a0:	400b      	ands	r3, r1
 80003a2:	f1b9 0f01 	cmp.w	r9, #1
 80003a6:	fa23 f702 	lsr.w	r7, r3, r2
 80003aa:	f000 80a6 	beq.w	80004fa <gpio_ll_setup+0x1ce>
 80003ae:	f1b9 0f02 	cmp.w	r9, #2
 80003b2:	f000 808a 	beq.w	80004ca <gpio_ll_setup+0x19e>
 80003b6:	f1b9 0f00 	cmp.w	r9, #0
 80003ba:	d1ce      	bne.n	800035a <gpio_ll_setup+0x2e>
 80003bc:	2101      	movs	r1, #1
 80003be:	4608      	mov	r0, r1
 80003c0:	f001 fcd6 	bl	8001d70 <RCC_AHB1PeriphClockCmd>
 80003c4:	2301      	movs	r3, #1
 80003c6:	9303      	str	r3, [sp, #12]
 80003c8:	2f01      	cmp	r7, #1
 80003ca:	fa03 f305 	lsl.w	r3, r3, r5
 80003ce:	f8cd 9008 	str.w	r9, [sp, #8]
 80003d2:	f8cd 9010 	str.w	r9, [sp, #16]
 80003d6:	9301      	str	r3, [sp, #4]
 80003d8:	d003      	beq.n	80003e2 <gpio_ll_setup+0xb6>
 80003da:	2f02      	cmp	r7, #2
 80003dc:	d001      	beq.n	80003e2 <gpio_ll_setup+0xb6>
 80003de:	2f00      	cmp	r7, #0
 80003e0:	d1bb      	bne.n	800035a <gpio_ll_setup+0x2e>
 80003e2:	4852      	ldr	r0, [pc, #328]	; (800052c <gpio_ll_setup+0x200>)
 80003e4:	9705      	str	r7, [sp, #20]
 80003e6:	a901      	add	r1, sp, #4
 80003e8:	f001 fbfe 	bl	8001be8 <GPIO_Init>
 80003ec:	e7cf      	b.n	800038e <gpio_ll_setup+0x62>
 80003ee:	7837      	ldrb	r7, [r6, #0]
 80003f0:	2f01      	cmp	r7, #1
 80003f2:	d056      	beq.n	80004a2 <gpio_ll_setup+0x176>
 80003f4:	2f02      	cmp	r7, #2
 80003f6:	d03f      	beq.n	8000478 <gpio_ll_setup+0x14c>
 80003f8:	2f00      	cmp	r7, #0
 80003fa:	d1ae      	bne.n	800035a <gpio_ll_setup+0x2e>
 80003fc:	2101      	movs	r1, #1
 80003fe:	4608      	mov	r0, r1
 8000400:	f001 fcb6 	bl	8001d70 <RCC_AHB1PeriphClockCmd>
 8000404:	2301      	movs	r3, #1
 8000406:	fa03 f205 	lsl.w	r2, r3, r5
 800040a:	4848      	ldr	r0, [pc, #288]	; (800052c <gpio_ll_setup+0x200>)
 800040c:	9201      	str	r2, [sp, #4]
 800040e:	a901      	add	r1, sp, #4
 8000410:	3501      	adds	r5, #1
 8000412:	9302      	str	r3, [sp, #8]
 8000414:	9304      	str	r3, [sp, #16]
 8000416:	9303      	str	r3, [sp, #12]
 8000418:	9305      	str	r3, [sp, #20]
 800041a:	f001 fbe5 	bl	8001be8 <GPIO_Init>
 800041e:	2d10      	cmp	r5, #16
 8000420:	d18b      	bne.n	800033a <gpio_ll_setup+0xe>
 8000422:	e7b7      	b.n	8000394 <gpio_ll_setup+0x68>
 8000424:	4621      	mov	r1, r4
 8000426:	2004      	movs	r0, #4
 8000428:	f001 fca2 	bl	8001d70 <RCC_AHB1PeriphClockCmd>
 800042c:	fa04 f305 	lsl.w	r3, r4, r5
 8000430:	9301      	str	r3, [sp, #4]
 8000432:	483f      	ldr	r0, [pc, #252]	; (8000530 <gpio_ll_setup+0x204>)
 8000434:	9402      	str	r4, [sp, #8]
 8000436:	2300      	movs	r3, #0
 8000438:	a901      	add	r1, sp, #4
 800043a:	3501      	adds	r5, #1
 800043c:	9304      	str	r3, [sp, #16]
 800043e:	9403      	str	r4, [sp, #12]
 8000440:	9305      	str	r3, [sp, #20]
 8000442:	f001 fbd1 	bl	8001be8 <GPIO_Init>
 8000446:	2d10      	cmp	r5, #16
 8000448:	f47f af77 	bne.w	800033a <gpio_ll_setup+0xe>
 800044c:	e7a2      	b.n	8000394 <gpio_ll_setup+0x68>
 800044e:	4639      	mov	r1, r7
 8000450:	2002      	movs	r0, #2
 8000452:	f001 fc8d 	bl	8001d70 <RCC_AHB1PeriphClockCmd>
 8000456:	fa07 f305 	lsl.w	r3, r7, r5
 800045a:	9301      	str	r3, [sp, #4]
 800045c:	4835      	ldr	r0, [pc, #212]	; (8000534 <gpio_ll_setup+0x208>)
 800045e:	9702      	str	r7, [sp, #8]
 8000460:	2300      	movs	r3, #0
 8000462:	a901      	add	r1, sp, #4
 8000464:	3501      	adds	r5, #1
 8000466:	9304      	str	r3, [sp, #16]
 8000468:	9703      	str	r7, [sp, #12]
 800046a:	9305      	str	r3, [sp, #20]
 800046c:	f001 fbbc 	bl	8001be8 <GPIO_Init>
 8000470:	2d10      	cmp	r5, #16
 8000472:	f47f af62 	bne.w	800033a <gpio_ll_setup+0xe>
 8000476:	e78d      	b.n	8000394 <gpio_ll_setup+0x68>
 8000478:	2101      	movs	r1, #1
 800047a:	2004      	movs	r0, #4
 800047c:	f001 fc78 	bl	8001d70 <RCC_AHB1PeriphClockCmd>
 8000480:	2301      	movs	r3, #1
 8000482:	fa03 f205 	lsl.w	r2, r3, r5
 8000486:	482a      	ldr	r0, [pc, #168]	; (8000530 <gpio_ll_setup+0x204>)
 8000488:	9201      	str	r2, [sp, #4]
 800048a:	a901      	add	r1, sp, #4
 800048c:	3501      	adds	r5, #1
 800048e:	9302      	str	r3, [sp, #8]
 8000490:	9304      	str	r3, [sp, #16]
 8000492:	9303      	str	r3, [sp, #12]
 8000494:	9305      	str	r3, [sp, #20]
 8000496:	f001 fba7 	bl	8001be8 <GPIO_Init>
 800049a:	2d10      	cmp	r5, #16
 800049c:	f47f af4d 	bne.w	800033a <gpio_ll_setup+0xe>
 80004a0:	e778      	b.n	8000394 <gpio_ll_setup+0x68>
 80004a2:	4620      	mov	r0, r4
 80004a4:	4639      	mov	r1, r7
 80004a6:	f001 fc63 	bl	8001d70 <RCC_AHB1PeriphClockCmd>
 80004aa:	fa07 f305 	lsl.w	r3, r7, r5
 80004ae:	4821      	ldr	r0, [pc, #132]	; (8000534 <gpio_ll_setup+0x208>)
 80004b0:	9301      	str	r3, [sp, #4]
 80004b2:	a901      	add	r1, sp, #4
 80004b4:	3501      	adds	r5, #1
 80004b6:	9702      	str	r7, [sp, #8]
 80004b8:	9704      	str	r7, [sp, #16]
 80004ba:	9703      	str	r7, [sp, #12]
 80004bc:	9705      	str	r7, [sp, #20]
 80004be:	f001 fb93 	bl	8001be8 <GPIO_Init>
 80004c2:	2d10      	cmp	r5, #16
 80004c4:	f47f af39 	bne.w	800033a <gpio_ll_setup+0xe>
 80004c8:	e764      	b.n	8000394 <gpio_ll_setup+0x68>
 80004ca:	2101      	movs	r1, #1
 80004cc:	2004      	movs	r0, #4
 80004ce:	f001 fc4f 	bl	8001d70 <RCC_AHB1PeriphClockCmd>
 80004d2:	2301      	movs	r3, #1
 80004d4:	9303      	str	r3, [sp, #12]
 80004d6:	2f01      	cmp	r7, #1
 80004d8:	fa03 f305 	lsl.w	r3, r3, r5
 80004dc:	9402      	str	r4, [sp, #8]
 80004de:	9404      	str	r4, [sp, #16]
 80004e0:	9301      	str	r3, [sp, #4]
 80004e2:	d004      	beq.n	80004ee <gpio_ll_setup+0x1c2>
 80004e4:	2f02      	cmp	r7, #2
 80004e6:	d002      	beq.n	80004ee <gpio_ll_setup+0x1c2>
 80004e8:	2f00      	cmp	r7, #0
 80004ea:	f47f af36 	bne.w	800035a <gpio_ll_setup+0x2e>
 80004ee:	4810      	ldr	r0, [pc, #64]	; (8000530 <gpio_ll_setup+0x204>)
 80004f0:	9705      	str	r7, [sp, #20]
 80004f2:	a901      	add	r1, sp, #4
 80004f4:	f001 fb78 	bl	8001be8 <GPIO_Init>
 80004f8:	e749      	b.n	800038e <gpio_ll_setup+0x62>
 80004fa:	4649      	mov	r1, r9
 80004fc:	2002      	movs	r0, #2
 80004fe:	f001 fc37 	bl	8001d70 <RCC_AHB1PeriphClockCmd>
 8000502:	fa09 f305 	lsl.w	r3, r9, r5
 8000506:	2f01      	cmp	r7, #1
 8000508:	9402      	str	r4, [sp, #8]
 800050a:	9404      	str	r4, [sp, #16]
 800050c:	f8cd 900c 	str.w	r9, [sp, #12]
 8000510:	9301      	str	r3, [sp, #4]
 8000512:	d004      	beq.n	800051e <gpio_ll_setup+0x1f2>
 8000514:	2f02      	cmp	r7, #2
 8000516:	d002      	beq.n	800051e <gpio_ll_setup+0x1f2>
 8000518:	2f00      	cmp	r7, #0
 800051a:	f47f af1e 	bne.w	800035a <gpio_ll_setup+0x2e>
 800051e:	4805      	ldr	r0, [pc, #20]	; (8000534 <gpio_ll_setup+0x208>)
 8000520:	9705      	str	r7, [sp, #20]
 8000522:	a901      	add	r1, sp, #4
 8000524:	f001 fb60 	bl	8001be8 <GPIO_Init>
 8000528:	e731      	b.n	800038e <gpio_ll_setup+0x62>
 800052a:	bf00      	nop
 800052c:	40020000 	.word	0x40020000
 8000530:	40020800 	.word	0x40020800
 8000534:	40020400 	.word	0x40020400

08000538 <gpio_ll_get>:
 8000538:	b510      	push	{r4, lr}
 800053a:	7803      	ldrb	r3, [r0, #0]
 800053c:	2b01      	cmp	r3, #1
 800053e:	4604      	mov	r4, r0
 8000540:	d005      	beq.n	800054e <gpio_ll_get+0x16>
 8000542:	2b02      	cmp	r3, #2
 8000544:	d00d      	beq.n	8000562 <gpio_ll_get+0x2a>
 8000546:	b143      	cbz	r3, 800055a <gpio_ll_get+0x22>
 8000548:	f04f 30ff 	mov.w	r0, #4294967295	; 0xffffffff
 800054c:	bd10      	pop	{r4, pc}
 800054e:	4807      	ldr	r0, [pc, #28]	; (800056c <gpio_ll_get+0x34>)
 8000550:	f001 fba0 	bl	8001c94 <GPIO_ReadInputData>
 8000554:	8863      	ldrh	r3, [r4, #2]
 8000556:	4018      	ands	r0, r3
 8000558:	bd10      	pop	{r4, pc}
 800055a:	4805      	ldr	r0, [pc, #20]	; (8000570 <gpio_ll_get+0x38>)
 800055c:	f001 fb9a 	bl	8001c94 <GPIO_ReadInputData>
 8000560:	e7f8      	b.n	8000554 <gpio_ll_get+0x1c>
 8000562:	4804      	ldr	r0, [pc, #16]	; (8000574 <gpio_ll_get+0x3c>)
 8000564:	f001 fb96 	bl	8001c94 <GPIO_ReadInputData>
 8000568:	e7f4      	b.n	8000554 <gpio_ll_get+0x1c>
 800056a:	bf00      	nop
 800056c:	40020400 	.word	0x40020400
 8000570:	40020000 	.word	0x40020000
 8000574:	40020800 	.word	0x40020800

08000578 <gpio_ll_set>:
 8000578:	b500      	push	{lr}
 800057a:	7803      	ldrb	r3, [r0, #0]
 800057c:	8842      	ldrh	r2, [r0, #2]
 800057e:	2b01      	cmp	r3, #1
 8000580:	ea01 0102 	and.w	r1, r1, r2
 8000584:	d006      	beq.n	8000594 <gpio_ll_set+0x1c>
 8000586:	2b02      	cmp	r3, #2
 8000588:	d00e      	beq.n	80005a8 <gpio_ll_set+0x30>
 800058a:	b14b      	cbz	r3, 80005a0 <gpio_ll_set+0x28>
 800058c:	f04f 30ff 	mov.w	r0, #4294967295	; 0xffffffff
 8000590:	f85d fb04 	ldr.w	pc, [sp], #4
 8000594:	4806      	ldr	r0, [pc, #24]	; (80005b0 <gpio_ll_set+0x38>)
 8000596:	f001 fb81 	bl	8001c9c <GPIO_SetBits>
 800059a:	2000      	movs	r0, #0
 800059c:	f85d fb04 	ldr.w	pc, [sp], #4
 80005a0:	4804      	ldr	r0, [pc, #16]	; (80005b4 <gpio_ll_set+0x3c>)
 80005a2:	f001 fb7b 	bl	8001c9c <GPIO_SetBits>
 80005a6:	e7f8      	b.n	800059a <gpio_ll_set+0x22>
 80005a8:	4803      	ldr	r0, [pc, #12]	; (80005b8 <gpio_ll_set+0x40>)
 80005aa:	f001 fb77 	bl	8001c9c <GPIO_SetBits>
 80005ae:	e7f4      	b.n	800059a <gpio_ll_set+0x22>
 80005b0:	40020400 	.word	0x40020400
 80005b4:	40020000 	.word	0x40020000
 80005b8:	40020800 	.word	0x40020800

080005bc <gpio_ll_clear>:
 80005bc:	b500      	push	{lr}
 80005be:	7803      	ldrb	r3, [r0, #0]
 80005c0:	8842      	ldrh	r2, [r0, #2]
 80005c2:	2b01      	cmp	r3, #1
 80005c4:	ea01 0102 	and.w	r1, r1, r2
 80005c8:	d006      	beq.n	80005d8 <gpio_ll_clear+0x1c>
 80005ca:	2b02      	cmp	r3, #2
 80005cc:	d00e      	beq.n	80005ec <gpio_ll_clear+0x30>
 80005ce:	b14b      	cbz	r3, 80005e4 <gpio_ll_clear+0x28>
 80005d0:	f04f 30ff 	mov.w	r0, #4294967295	; 0xffffffff
 80005d4:	f85d fb04 	ldr.w	pc, [sp], #4
 80005d8:	4806      	ldr	r0, [pc, #24]	; (80005f4 <gpio_ll_clear+0x38>)
 80005da:	f001 fb63 	bl	8001ca4 <GPIO_ResetBits>
 80005de:	2000      	movs	r0, #0
 80005e0:	f85d fb04 	ldr.w	pc, [sp], #4
 80005e4:	4804      	ldr	r0, [pc, #16]	; (80005f8 <gpio_ll_clear+0x3c>)
 80005e6:	f001 fb5d 	bl	8001ca4 <GPIO_ResetBits>
 80005ea:	e7f8      	b.n	80005de <gpio_ll_clear+0x22>
 80005ec:	4803      	ldr	r0, [pc, #12]	; (80005fc <gpio_ll_clear+0x40>)
 80005ee:	f001 fb59 	bl	8001ca4 <GPIO_ResetBits>
 80005f2:	e7f4      	b.n	80005de <gpio_ll_clear+0x22>
 80005f4:	40020400 	.word	0x40020400
 80005f8:	40020000 	.word	0x40020000
 80005fc:	40020800 	.word	0x40020800

08000600 <gpio_ll_toggle>:
 8000600:	b500      	push	{lr}
 8000602:	7803      	ldrb	r3, [r0, #0]
 8000604:	8842      	ldrh	r2, [r0, #2]
 8000606:	2b01      	cmp	r3, #1
 8000608:	ea01 0102 	and.w	r1, r1, r2
 800060c:	d006      	beq.n	800061c <gpio_ll_toggle+0x1c>
 800060e:	2b02      	cmp	r3, #2
 8000610:	d00e      	beq.n	8000630 <gpio_ll_toggle+0x30>
 8000612:	b14b      	cbz	r3, 8000628 <gpio_ll_toggle+0x28>
 8000614:	f04f 30ff 	mov.w	r0, #4294967295	; 0xffffffff
 8000618:	f85d fb04 	ldr.w	pc, [sp], #4
 800061c:	4806      	ldr	r0, [pc, #24]	; (8000638 <gpio_ll_toggle+0x38>)
 800061e:	f001 fb45 	bl	8001cac <GPIO_ToggleBits>
 8000622:	2000      	movs	r0, #0
 8000624:	f85d fb04 	ldr.w	pc, [sp], #4
 8000628:	4804      	ldr	r0, [pc, #16]	; (800063c <gpio_ll_toggle+0x3c>)
 800062a:	f001 fb3f 	bl	8001cac <GPIO_ToggleBits>
 800062e:	e7f8      	b.n	8000622 <gpio_ll_toggle+0x22>
 8000630:	4803      	ldr	r0, [pc, #12]	; (8000640 <gpio_ll_toggle+0x40>)
 8000632:	f001 fb3b 	bl	8001cac <GPIO_ToggleBits>
 8000636:	e7f4      	b.n	8000622 <gpio_ll_toggle+0x22>
 8000638:	40020400 	.word	0x40020400
 800063c:	40020000 	.word	0x40020000
 8000640:	40020800 	.word	0x40020800

08000644 <EXTI0_IRQHandler>:
 8000644:	b500      	push	{lr}
 8000646:	2001      	movs	r0, #1
 8000648:	f001 fabe 	bl	8001bc8 <EXTI_GetITStatus>
 800064c:	b138      	cbz	r0, 800065e <EXTI0_IRQHandler+0x1a>
 800064e:	4b05      	ldr	r3, [pc, #20]	; (8000664 <EXTI0_IRQHandler+0x20>)
 8000650:	681b      	ldr	r3, [r3, #0]
 8000652:	4798      	blx	r3
 8000654:	f85d eb04 	ldr.w	lr, [sp], #4
 8000658:	2001      	movs	r0, #1
 800065a:	f001 babf 	b.w	8001bdc <EXTI_ClearITPendingBit>
 800065e:	f85d fb04 	ldr.w	pc, [sp], #4
 8000662:	bf00      	nop
 8000664:	20000288 	.word	0x20000288

08000668 <EXTI1_IRQHandler>:
 8000668:	b500      	push	{lr}
 800066a:	2002      	movs	r0, #2
 800066c:	f001 faac 	bl	8001bc8 <EXTI_GetITStatus>
 8000670:	b138      	cbz	r0, 8000682 <EXTI1_IRQHandler+0x1a>
 8000672:	4b05      	ldr	r3, [pc, #20]	; (8000688 <EXTI1_IRQHandler+0x20>)
 8000674:	685b      	ldr	r3, [r3, #4]
 8000676:	4798      	blx	r3
 8000678:	f85d eb04 	ldr.w	lr, [sp], #4
 800067c:	2002      	movs	r0, #2
 800067e:	f001 baad 	b.w	8001bdc <EXTI_ClearITPendingBit>
 8000682:	f85d fb04 	ldr.w	pc, [sp], #4
 8000686:	bf00      	nop
 8000688:	20000288 	.word	0x20000288

0800068c <EXTI2_IRQHandler>:
 800068c:	b500      	push	{lr}
 800068e:	2004      	movs	r0, #4
 8000690:	f001 fa9a 	bl	8001bc8 <EXTI_GetITStatus>
 8000694:	b138      	cbz	r0, 80006a6 <EXTI2_IRQHandler+0x1a>
 8000696:	4b05      	ldr	r3, [pc, #20]	; (80006ac <EXTI2_IRQHandler+0x20>)
 8000698:	689b      	ldr	r3, [r3, #8]
 800069a:	4798      	blx	r3
 800069c:	f85d eb04 	ldr.w	lr, [sp], #4
 80006a0:	2004      	movs	r0, #4
 80006a2:	f001 ba9b 	b.w	8001bdc <EXTI_ClearITPendingBit>
 80006a6:	f85d fb04 	ldr.w	pc, [sp], #4
 80006aa:	bf00      	nop
 80006ac:	20000288 	.word	0x20000288

080006b0 <EXTI3_IRQHandler>:
 80006b0:	b500      	push	{lr}
 80006b2:	2008      	movs	r0, #8
 80006b4:	f001 fa88 	bl	8001bc8 <EXTI_GetITStatus>
 80006b8:	b138      	cbz	r0, 80006ca <EXTI3_IRQHandler+0x1a>
 80006ba:	4b05      	ldr	r3, [pc, #20]	; (80006d0 <EXTI3_IRQHandler+0x20>)
 80006bc:	68db      	ldr	r3, [r3, #12]
 80006be:	4798      	blx	r3
 80006c0:	f85d eb04 	ldr.w	lr, [sp], #4
 80006c4:	2008      	movs	r0, #8
 80006c6:	f001 ba89 	b.w	8001bdc <EXTI_ClearITPendingBit>
 80006ca:	f85d fb04 	ldr.w	pc, [sp], #4
 80006ce:	bf00      	nop
 80006d0:	20000288 	.word	0x20000288

080006d4 <EXTI4_IRQHandler>:
 80006d4:	b500      	push	{lr}
 80006d6:	2010      	movs	r0, #16
 80006d8:	f001 fa76 	bl	8001bc8 <EXTI_GetITStatus>
 80006dc:	b138      	cbz	r0, 80006ee <EXTI4_IRQHandler+0x1a>
 80006de:	4b05      	ldr	r3, [pc, #20]	; (80006f4 <EXTI4_IRQHandler+0x20>)
 80006e0:	691b      	ldr	r3, [r3, #16]
 80006e2:	4798      	blx	r3
 80006e4:	f85d eb04 	ldr.w	lr, [sp], #4
 80006e8:	2010      	movs	r0, #16
 80006ea:	f001 ba77 	b.w	8001bdc <EXTI_ClearITPendingBit>
 80006ee:	f85d fb04 	ldr.w	pc, [sp], #4
 80006f2:	bf00      	nop
 80006f4:	20000288 	.word	0x20000288

080006f8 <EXTI9_5_IRQHandler>:
 80006f8:	b500      	push	{lr}
 80006fa:	2020      	movs	r0, #32
 80006fc:	f001 fa64 	bl	8001bc8 <EXTI_GetITStatus>
 8000700:	b128      	cbz	r0, 800070e <EXTI9_5_IRQHandler+0x16>
 8000702:	4b1b      	ldr	r3, [pc, #108]	; (8000770 <EXTI9_5_IRQHandler+0x78>)
 8000704:	695b      	ldr	r3, [r3, #20]
 8000706:	4798      	blx	r3
 8000708:	2020      	movs	r0, #32
 800070a:	f001 fa67 	bl	8001bdc <EXTI_ClearITPendingBit>
 800070e:	2040      	movs	r0, #64	; 0x40
 8000710:	f001 fa5a 	bl	8001bc8 <EXTI_GetITStatus>
 8000714:	b128      	cbz	r0, 8000722 <EXTI9_5_IRQHandler+0x2a>
 8000716:	4b16      	ldr	r3, [pc, #88]	; (8000770 <EXTI9_5_IRQHandler+0x78>)
 8000718:	699b      	ldr	r3, [r3, #24]
 800071a:	4798      	blx	r3
 800071c:	2040      	movs	r0, #64	; 0x40
 800071e:	f001 fa5d 	bl	8001bdc <EXTI_ClearITPendingBit>
 8000722:	2080      	movs	r0, #128	; 0x80
 8000724:	f001 fa50 	bl	8001bc8 <EXTI_GetITStatus>
 8000728:	b128      	cbz	r0, 8000736 <EXTI9_5_IRQHandler+0x3e>
 800072a:	4b11      	ldr	r3, [pc, #68]	; (8000770 <EXTI9_5_IRQHandler+0x78>)
 800072c:	69db      	ldr	r3, [r3, #28]
 800072e:	4798      	blx	r3
 8000730:	2080      	movs	r0, #128	; 0x80
 8000732:	f001 fa53 	bl	8001bdc <EXTI_ClearITPendingBit>
 8000736:	f44f 7080 	mov.w	r0, #256	; 0x100
 800073a:	f001 fa45 	bl	8001bc8 <EXTI_GetITStatus>
 800073e:	b130      	cbz	r0, 800074e <EXTI9_5_IRQHandler+0x56>
 8000740:	4b0b      	ldr	r3, [pc, #44]	; (8000770 <EXTI9_5_IRQHandler+0x78>)
 8000742:	6a1b      	ldr	r3, [r3, #32]
 8000744:	4798      	blx	r3
 8000746:	f44f 7080 	mov.w	r0, #256	; 0x100
 800074a:	f001 fa47 	bl	8001bdc <EXTI_ClearITPendingBit>
 800074e:	f44f 7000 	mov.w	r0, #512	; 0x200
 8000752:	f001 fa39 	bl	8001bc8 <EXTI_GetITStatus>
 8000756:	b140      	cbz	r0, 800076a <EXTI9_5_IRQHandler+0x72>
 8000758:	4b05      	ldr	r3, [pc, #20]	; (8000770 <EXTI9_5_IRQHandler+0x78>)
 800075a:	6a5b      	ldr	r3, [r3, #36]	; 0x24
 800075c:	4798      	blx	r3
 800075e:	f85d eb04 	ldr.w	lr, [sp], #4
 8000762:	f44f 7000 	mov.w	r0, #512	; 0x200
 8000766:	f001 ba39 	b.w	8001bdc <EXTI_ClearITPendingBit>
 800076a:	f85d fb04 	ldr.w	pc, [sp], #4
 800076e:	bf00      	nop
 8000770:	20000288 	.word	0x20000288

08000774 <EXTI15_10_IRQHandler>:
 8000774:	b500      	push	{lr}
 8000776:	f44f 6080 	mov.w	r0, #1024	; 0x400
 800077a:	f001 fa25 	bl	8001bc8 <EXTI_GetITStatus>
 800077e:	b130      	cbz	r0, 800078e <EXTI15_10_IRQHandler+0x1a>
 8000780:	4b23      	ldr	r3, [pc, #140]	; (8000810 <EXTI15_10_IRQHandler+0x9c>)
 8000782:	6a9b      	ldr	r3, [r3, #40]	; 0x28
 8000784:	4798      	blx	r3
 8000786:	f44f 6080 	mov.w	r0, #1024	; 0x400
 800078a:	f001 fa27 	bl	8001bdc <EXTI_ClearITPendingBit>
 800078e:	f44f 6000 	mov.w	r0, #2048	; 0x800
 8000792:	f001 fa19 	bl	8001bc8 <EXTI_GetITStatus>
 8000796:	b130      	cbz	r0, 80007a6 <EXTI15_10_IRQHandler+0x32>
 8000798:	4b1d      	ldr	r3, [pc, #116]	; (8000810 <EXTI15_10_IRQHandler+0x9c>)
 800079a:	6adb      	ldr	r3, [r3, #44]	; 0x2c
 800079c:	4798      	blx	r3
 800079e:	f44f 6000 	mov.w	r0, #2048	; 0x800
 80007a2:	f001 fa1b 	bl	8001bdc <EXTI_ClearITPendingBit>
 80007a6:	f44f 5080 	mov.w	r0, #4096	; 0x1000
 80007aa:	f001 fa0d 	bl	8001bc8 <EXTI_GetITStatus>
 80007ae:	b130      	cbz	r0, 80007be <EXTI15_10_IRQHandler+0x4a>
 80007b0:	4b17      	ldr	r3, [pc, #92]	; (8000810 <EXTI15_10_IRQHandler+0x9c>)
 80007b2:	6b1b      	ldr	r3, [r3, #48]	; 0x30
 80007b4:	4798      	blx	r3
 80007b6:	f44f 5080 	mov.w	r0, #4096	; 0x1000
 80007ba:	f001 fa0f 	bl	8001bdc <EXTI_ClearITPendingBit>
 80007be:	f44f 5000 	mov.w	r0, #8192	; 0x2000
 80007c2:	f001 fa01 	bl	8001bc8 <EXTI_GetITStatus>
 80007c6:	b130      	cbz	r0, 80007d6 <EXTI15_10_IRQHandler+0x62>
 80007c8:	4b11      	ldr	r3, [pc, #68]	; (8000810 <EXTI15_10_IRQHandler+0x9c>)
 80007ca:	6b5b      	ldr	r3, [r3, #52]	; 0x34
 80007cc:	4798      	blx	r3
 80007ce:	f44f 5000 	mov.w	r0, #8192	; 0x2000
 80007d2:	f001 fa03 	bl	8001bdc <EXTI_ClearITPendingBit>
 80007d6:	f44f 4080 	mov.w	r0, #16384	; 0x4000
 80007da:	f001 f9f5 	bl	8001bc8 <EXTI_GetITStatus>
 80007de:	b130      	cbz	r0, 80007ee <EXTI15_10_IRQHandler+0x7a>
 80007e0:	4b0b      	ldr	r3, [pc, #44]	; (8000810 <EXTI15_10_IRQHandler+0x9c>)
 80007e2:	6b9b      	ldr	r3, [r3, #56]	; 0x38
 80007e4:	4798      	blx	r3
 80007e6:	f44f 4080 	mov.w	r0, #16384	; 0x4000
 80007ea:	f001 f9f7 	bl	8001bdc <EXTI_ClearITPendingBit>
 80007ee:	f44f 4000 	mov.w	r0, #32768	; 0x8000
 80007f2:	f001 f9e9 	bl	8001bc8 <EXTI_GetITStatus>
 80007f6:	b140      	cbz	r0, 800080a <EXTI15_10_IRQHandler+0x96>
 80007f8:	4b05      	ldr	r3, [pc, #20]	; (8000810 <EXTI15_10_IRQHandler+0x9c>)
 80007fa:	6bdb      	ldr	r3, [r3, #60]	; 0x3c
 80007fc:	4798      	blx	r3
 80007fe:	f85d eb04 	ldr.w	lr, [sp], #4
 8000802:	f44f 4000 	mov.w	r0, #32768	; 0x8000
 8000806:	f001 b9e9 	b.w	8001bdc <EXTI_ClearITPendingBit>
 800080a:	f85d fb04 	ldr.w	pc, [sp], #4
 800080e:	bf00      	nop
 8000810:	20000288 	.word	0x20000288

08000814 <gpio_ll_int_attach>:
 8000814:	b5f0      	push	{r4, r5, r6, r7, lr}
 8000816:	461d      	mov	r5, r3
 8000818:	b086      	sub	sp, #24
 800081a:	460c      	mov	r4, r1
 800081c:	4606      	mov	r6, r0
 800081e:	2101      	movs	r1, #1
 8000820:	f44f 4080 	mov.w	r0, #16384	; 0x4000
 8000824:	4617      	mov	r7, r2
 8000826:	f001 fac7 	bl	8001db8 <RCC_APB2PeriphClockCmd>
 800082a:	2d03      	cmp	r5, #3
 800082c:	d06c      	beq.n	8000908 <gpio_ll_int_attach+0xf4>
 800082e:	2d04      	cmp	r5, #4
 8000830:	d005      	beq.n	800083e <gpio_ll_int_attach+0x2a>
 8000832:	2d02      	cmp	r5, #2
 8000834:	d066      	beq.n	8000904 <gpio_ll_int_attach+0xf0>
 8000836:	f04f 30ff 	mov.w	r0, #4294967295	; 0xffffffff
 800083a:	b006      	add	sp, #24
 800083c:	bdf0      	pop	{r4, r5, r6, r7, pc}
 800083e:	2210      	movs	r2, #16
 8000840:	7830      	ldrb	r0, [r6, #0]
 8000842:	9204      	str	r2, [sp, #16]
 8000844:	2301      	movs	r3, #1
 8000846:	2100      	movs	r1, #0
 8000848:	9305      	str	r3, [sp, #20]
 800084a:	9301      	str	r3, [sp, #4]
 800084c:	2801      	cmp	r0, #1
 800084e:	f240 1301 	movw	r3, #257	; 0x101
 8000852:	9103      	str	r1, [sp, #12]
 8000854:	f8ad 3001 	strh.w	r3, [sp, #1]
 8000858:	f000 8087 	beq.w	800096a <gpio_ll_int_attach+0x156>
 800085c:	2802      	cmp	r0, #2
 800085e:	f000 80d7 	beq.w	8000a10 <gpio_ll_int_attach+0x1fc>
 8000862:	2800      	cmp	r0, #0
 8000864:	d1e7      	bne.n	8000836 <gpio_ll_int_attach+0x22>
 8000866:	f5b4 7f80 	cmp.w	r4, #256	; 0x100
 800086a:	f000 8147 	beq.w	8000afc <gpio_ll_int_attach+0x2e8>
 800086e:	dc65      	bgt.n	800093c <gpio_ll_int_attach+0x128>
 8000870:	2c20      	cmp	r4, #32
 8000872:	dc4b      	bgt.n	800090c <gpio_ll_int_attach+0xf8>
 8000874:	428c      	cmp	r4, r1
 8000876:	ddde      	ble.n	8000836 <gpio_ll_int_attach+0x22>
 8000878:	3c01      	subs	r4, #1
 800087a:	2c1f      	cmp	r4, #31
 800087c:	d8db      	bhi.n	8000836 <gpio_ll_int_attach+0x22>
 800087e:	a301      	add	r3, pc, #4	; (adr r3, 8000884 <gpio_ll_int_attach+0x70>)
 8000880:	f853 f024 	ldr.w	pc, [r3, r4, lsl #2]
 8000884:	08000b89 	.word	0x08000b89
 8000888:	08000b71 	.word	0x08000b71
 800088c:	08000837 	.word	0x08000837
 8000890:	08000b59 	.word	0x08000b59
 8000894:	08000837 	.word	0x08000837
 8000898:	08000837 	.word	0x08000837
 800089c:	08000837 	.word	0x08000837
 80008a0:	08000b41 	.word	0x08000b41
 80008a4:	08000837 	.word	0x08000837
 80008a8:	08000837 	.word	0x08000837
 80008ac:	08000837 	.word	0x08000837
 80008b0:	08000837 	.word	0x08000837
 80008b4:	08000837 	.word	0x08000837
 80008b8:	08000837 	.word	0x08000837
 80008bc:	08000837 	.word	0x08000837
 80008c0:	08000b29 	.word	0x08000b29
 80008c4:	08000837 	.word	0x08000837
 80008c8:	08000837 	.word	0x08000837
 80008cc:	08000837 	.word	0x08000837
 80008d0:	08000837 	.word	0x08000837
 80008d4:	08000837 	.word	0x08000837
 80008d8:	08000837 	.word	0x08000837
 80008dc:	08000837 	.word	0x08000837
 80008e0:	08000837 	.word	0x08000837
 80008e4:	08000837 	.word	0x08000837
 80008e8:	08000837 	.word	0x08000837
 80008ec:	08000837 	.word	0x08000837
 80008f0:	08000837 	.word	0x08000837
 80008f4:	08000837 	.word	0x08000837
 80008f8:	08000837 	.word	0x08000837
 80008fc:	08000837 	.word	0x08000837
 8000900:	08000b11 	.word	0x08000b11
 8000904:	2208      	movs	r2, #8
 8000906:	e79b      	b.n	8000840 <gpio_ll_int_attach+0x2c>
 8000908:	220c      	movs	r2, #12
 800090a:	e799      	b.n	8000840 <gpio_ll_int_attach+0x2c>
 800090c:	2c40      	cmp	r4, #64	; 0x40
 800090e:	f000 8163 	beq.w	8000bd8 <gpio_ll_int_attach+0x3c4>
 8000912:	2c80      	cmp	r4, #128	; 0x80
 8000914:	d18f      	bne.n	8000836 <gpio_ll_int_attach+0x22>
 8000916:	2107      	movs	r1, #7
 8000918:	f001 fa66 	bl	8001de8 <SYSCFG_EXTILineConfig>
 800091c:	4bb8      	ldr	r3, [pc, #736]	; (8000c00 <gpio_ll_int_attach+0x3ec>)
 800091e:	9402      	str	r4, [sp, #8]
 8000920:	2217      	movs	r2, #23
 8000922:	f88d 2000 	strb.w	r2, [sp]
 8000926:	61df      	str	r7, [r3, #28]
 8000928:	a802      	add	r0, sp, #8
 800092a:	f001 f90d 	bl	8001b48 <EXTI_Init>
 800092e:	48b5      	ldr	r0, [pc, #724]	; (8000c04 <gpio_ll_int_attach+0x3f0>)
 8000930:	4669      	mov	r1, sp
 8000932:	f000 fb03 	bl	8000f3c <syscall>
 8000936:	2000      	movs	r0, #0
 8000938:	b006      	add	sp, #24
 800093a:	bdf0      	pop	{r4, r5, r6, r7, pc}
 800093c:	f5b4 5f80 	cmp.w	r4, #4096	; 0x1000
 8000940:	f000 8140 	beq.w	8000bc4 <gpio_ll_int_attach+0x3b0>
 8000944:	dd78      	ble.n	8000a38 <gpio_ll_int_attach+0x224>
 8000946:	f5b4 4f80 	cmp.w	r4, #16384	; 0x4000
 800094a:	f000 80cd 	beq.w	8000ae8 <gpio_ll_int_attach+0x2d4>
 800094e:	f5b4 4f00 	cmp.w	r4, #32768	; 0x8000
 8000952:	f040 8082 	bne.w	8000a5a <gpio_ll_int_attach+0x246>
 8000956:	210f      	movs	r1, #15
 8000958:	f001 fa46 	bl	8001de8 <SYSCFG_EXTILineConfig>
 800095c:	4ba8      	ldr	r3, [pc, #672]	; (8000c00 <gpio_ll_int_attach+0x3ec>)
 800095e:	9402      	str	r4, [sp, #8]
 8000960:	2228      	movs	r2, #40	; 0x28
 8000962:	f88d 2000 	strb.w	r2, [sp]
 8000966:	63df      	str	r7, [r3, #60]	; 0x3c
 8000968:	e7de      	b.n	8000928 <gpio_ll_int_attach+0x114>
 800096a:	f5b4 7f80 	cmp.w	r4, #256	; 0x100
 800096e:	f000 80c5 	beq.w	8000afc <gpio_ll_int_attach+0x2e8>
 8000972:	f300 8083 	bgt.w	8000a7c <gpio_ll_int_attach+0x268>
 8000976:	2c20      	cmp	r4, #32
 8000978:	dcc8      	bgt.n	800090c <gpio_ll_int_attach+0xf8>
 800097a:	2c00      	cmp	r4, #0
 800097c:	f77f af5b 	ble.w	8000836 <gpio_ll_int_attach+0x22>
 8000980:	3c01      	subs	r4, #1
 8000982:	2c1f      	cmp	r4, #31
 8000984:	f63f af57 	bhi.w	8000836 <gpio_ll_int_attach+0x22>
 8000988:	a301      	add	r3, pc, #4	; (adr r3, 8000990 <gpio_ll_int_attach+0x17c>)
 800098a:	f853 f024 	ldr.w	pc, [r3, r4, lsl #2]
 800098e:	bf00      	nop
 8000990:	08000bbf 	.word	0x08000bbf
 8000994:	08000bb9 	.word	0x08000bb9
 8000998:	08000837 	.word	0x08000837
 800099c:	08000bb3 	.word	0x08000bb3
 80009a0:	08000837 	.word	0x08000837
 80009a4:	08000837 	.word	0x08000837
 80009a8:	08000837 	.word	0x08000837
 80009ac:	08000bad 	.word	0x08000bad
 80009b0:	08000837 	.word	0x08000837
 80009b4:	08000837 	.word	0x08000837
 80009b8:	08000837 	.word	0x08000837
 80009bc:	08000837 	.word	0x08000837
 80009c0:	08000837 	.word	0x08000837
 80009c4:	08000837 	.word	0x08000837
 80009c8:	08000837 	.word	0x08000837
 80009cc:	08000ba7 	.word	0x08000ba7
 80009d0:	08000837 	.word	0x08000837
 80009d4:	08000837 	.word	0x08000837
 80009d8:	08000837 	.word	0x08000837
 80009dc:	08000837 	.word	0x08000837
 80009e0:	08000837 	.word	0x08000837
 80009e4:	08000837 	.word	0x08000837
 80009e8:	08000837 	.word	0x08000837
 80009ec:	08000837 	.word	0x08000837
 80009f0:	08000837 	.word	0x08000837
 80009f4:	08000837 	.word	0x08000837
 80009f8:	08000837 	.word	0x08000837
 80009fc:	08000837 	.word	0x08000837
 8000a00:	08000837 	.word	0x08000837
 8000a04:	08000837 	.word	0x08000837
 8000a08:	08000837 	.word	0x08000837
 8000a0c:	08000ba1 	.word	0x08000ba1
 8000a10:	f5b4 4f80 	cmp.w	r4, #16384	; 0x4000
 8000a14:	d068      	beq.n	8000ae8 <gpio_ll_int_attach+0x2d4>
 8000a16:	f5b4 4f00 	cmp.w	r4, #32768	; 0x8000
 8000a1a:	d09c      	beq.n	8000956 <gpio_ll_int_attach+0x142>
 8000a1c:	f5b4 5f00 	cmp.w	r4, #8192	; 0x2000
 8000a20:	f47f af09 	bne.w	8000836 <gpio_ll_int_attach+0x22>
 8000a24:	210d      	movs	r1, #13
 8000a26:	f001 f9df 	bl	8001de8 <SYSCFG_EXTILineConfig>
 8000a2a:	4b75      	ldr	r3, [pc, #468]	; (8000c00 <gpio_ll_int_attach+0x3ec>)
 8000a2c:	9402      	str	r4, [sp, #8]
 8000a2e:	2228      	movs	r2, #40	; 0x28
 8000a30:	f88d 2000 	strb.w	r2, [sp]
 8000a34:	635f      	str	r7, [r3, #52]	; 0x34
 8000a36:	e777      	b.n	8000928 <gpio_ll_int_attach+0x114>
 8000a38:	f5b4 6f80 	cmp.w	r4, #1024	; 0x400
 8000a3c:	f000 80d6 	beq.w	8000bec <gpio_ll_int_attach+0x3d8>
 8000a40:	f5b4 6f00 	cmp.w	r4, #2048	; 0x800
 8000a44:	d12a      	bne.n	8000a9c <gpio_ll_int_attach+0x288>
 8000a46:	210b      	movs	r1, #11
 8000a48:	f001 f9ce 	bl	8001de8 <SYSCFG_EXTILineConfig>
 8000a4c:	4b6c      	ldr	r3, [pc, #432]	; (8000c00 <gpio_ll_int_attach+0x3ec>)
 8000a4e:	9402      	str	r4, [sp, #8]
 8000a50:	2228      	movs	r2, #40	; 0x28
 8000a52:	f88d 2000 	strb.w	r2, [sp]
 8000a56:	62df      	str	r7, [r3, #44]	; 0x2c
 8000a58:	e766      	b.n	8000928 <gpio_ll_int_attach+0x114>
 8000a5a:	f5b4 5f00 	cmp.w	r4, #8192	; 0x2000
 8000a5e:	f47f aeea 	bne.w	8000836 <gpio_ll_int_attach+0x22>
 8000a62:	210d      	movs	r1, #13
 8000a64:	2000      	movs	r0, #0
 8000a66:	f001 f9bf 	bl	8001de8 <SYSCFG_EXTILineConfig>
 8000a6a:	4b65      	ldr	r3, [pc, #404]	; (8000c00 <gpio_ll_int_attach+0x3ec>)
 8000a6c:	f44f 5100 	mov.w	r1, #8192	; 0x2000
 8000a70:	2228      	movs	r2, #40	; 0x28
 8000a72:	9102      	str	r1, [sp, #8]
 8000a74:	f88d 2000 	strb.w	r2, [sp]
 8000a78:	635f      	str	r7, [r3, #52]	; 0x34
 8000a7a:	e755      	b.n	8000928 <gpio_ll_int_attach+0x114>
 8000a7c:	f5b4 5f80 	cmp.w	r4, #4096	; 0x1000
 8000a80:	f000 80a0 	beq.w	8000bc4 <gpio_ll_int_attach+0x3b0>
 8000a84:	dd1b      	ble.n	8000abe <gpio_ll_int_attach+0x2aa>
 8000a86:	f5b4 4f80 	cmp.w	r4, #16384	; 0x4000
 8000a8a:	d02d      	beq.n	8000ae8 <gpio_ll_int_attach+0x2d4>
 8000a8c:	f5b4 4f00 	cmp.w	r4, #32768	; 0x8000
 8000a90:	f43f af61 	beq.w	8000956 <gpio_ll_int_attach+0x142>
 8000a94:	f5b4 5f00 	cmp.w	r4, #8192	; 0x2000
 8000a98:	d0c4      	beq.n	8000a24 <gpio_ll_int_attach+0x210>
 8000a9a:	e6cc      	b.n	8000836 <gpio_ll_int_attach+0x22>
 8000a9c:	f5b4 7f00 	cmp.w	r4, #512	; 0x200
 8000aa0:	f47f aec9 	bne.w	8000836 <gpio_ll_int_attach+0x22>
 8000aa4:	2109      	movs	r1, #9
 8000aa6:	2000      	movs	r0, #0
 8000aa8:	f001 f99e 	bl	8001de8 <SYSCFG_EXTILineConfig>
 8000aac:	4b54      	ldr	r3, [pc, #336]	; (8000c00 <gpio_ll_int_attach+0x3ec>)
 8000aae:	f44f 7100 	mov.w	r1, #512	; 0x200
 8000ab2:	2217      	movs	r2, #23
 8000ab4:	9102      	str	r1, [sp, #8]
 8000ab6:	f88d 2000 	strb.w	r2, [sp]
 8000aba:	625f      	str	r7, [r3, #36]	; 0x24
 8000abc:	e734      	b.n	8000928 <gpio_ll_int_attach+0x114>
 8000abe:	f5b4 6f80 	cmp.w	r4, #1024	; 0x400
 8000ac2:	f000 8093 	beq.w	8000bec <gpio_ll_int_attach+0x3d8>
 8000ac6:	f5b4 6f00 	cmp.w	r4, #2048	; 0x800
 8000aca:	d0bc      	beq.n	8000a46 <gpio_ll_int_attach+0x232>
 8000acc:	f5b4 7f00 	cmp.w	r4, #512	; 0x200
 8000ad0:	f47f aeb1 	bne.w	8000836 <gpio_ll_int_attach+0x22>
 8000ad4:	2109      	movs	r1, #9
 8000ad6:	f001 f987 	bl	8001de8 <SYSCFG_EXTILineConfig>
 8000ada:	4b49      	ldr	r3, [pc, #292]	; (8000c00 <gpio_ll_int_attach+0x3ec>)
 8000adc:	9402      	str	r4, [sp, #8]
 8000ade:	2217      	movs	r2, #23
 8000ae0:	f88d 2000 	strb.w	r2, [sp]
 8000ae4:	625f      	str	r7, [r3, #36]	; 0x24
 8000ae6:	e71f      	b.n	8000928 <gpio_ll_int_attach+0x114>
 8000ae8:	210e      	movs	r1, #14
 8000aea:	f001 f97d 	bl	8001de8 <SYSCFG_EXTILineConfig>
 8000aee:	4b44      	ldr	r3, [pc, #272]	; (8000c00 <gpio_ll_int_attach+0x3ec>)
 8000af0:	9402      	str	r4, [sp, #8]
 8000af2:	2228      	movs	r2, #40	; 0x28
 8000af4:	f88d 2000 	strb.w	r2, [sp]
 8000af8:	639f      	str	r7, [r3, #56]	; 0x38
 8000afa:	e715      	b.n	8000928 <gpio_ll_int_attach+0x114>
 8000afc:	2108      	movs	r1, #8
 8000afe:	f001 f973 	bl	8001de8 <SYSCFG_EXTILineConfig>
 8000b02:	4b3f      	ldr	r3, [pc, #252]	; (8000c00 <gpio_ll_int_attach+0x3ec>)
 8000b04:	9402      	str	r4, [sp, #8]
 8000b06:	2217      	movs	r2, #23
 8000b08:	f88d 2000 	strb.w	r2, [sp]
 8000b0c:	621f      	str	r7, [r3, #32]
 8000b0e:	e70b      	b.n	8000928 <gpio_ll_int_attach+0x114>
 8000b10:	2105      	movs	r1, #5
 8000b12:	2000      	movs	r0, #0
 8000b14:	f001 f968 	bl	8001de8 <SYSCFG_EXTILineConfig>
 8000b18:	4b39      	ldr	r3, [pc, #228]	; (8000c00 <gpio_ll_int_attach+0x3ec>)
 8000b1a:	2120      	movs	r1, #32
 8000b1c:	2217      	movs	r2, #23
 8000b1e:	9102      	str	r1, [sp, #8]
 8000b20:	f88d 2000 	strb.w	r2, [sp]
 8000b24:	615f      	str	r7, [r3, #20]
 8000b26:	e6ff      	b.n	8000928 <gpio_ll_int_attach+0x114>
 8000b28:	2104      	movs	r1, #4
 8000b2a:	2000      	movs	r0, #0
 8000b2c:	f001 f95c 	bl	8001de8 <SYSCFG_EXTILineConfig>
 8000b30:	4b33      	ldr	r3, [pc, #204]	; (8000c00 <gpio_ll_int_attach+0x3ec>)
 8000b32:	2110      	movs	r1, #16
 8000b34:	220a      	movs	r2, #10
 8000b36:	9102      	str	r1, [sp, #8]
 8000b38:	f88d 2000 	strb.w	r2, [sp]
 8000b3c:	611f      	str	r7, [r3, #16]
 8000b3e:	e6f3      	b.n	8000928 <gpio_ll_int_attach+0x114>
 8000b40:	2103      	movs	r1, #3
 8000b42:	2000      	movs	r0, #0
 8000b44:	f001 f950 	bl	8001de8 <SYSCFG_EXTILineConfig>
 8000b48:	4b2d      	ldr	r3, [pc, #180]	; (8000c00 <gpio_ll_int_attach+0x3ec>)
 8000b4a:	2108      	movs	r1, #8
 8000b4c:	2209      	movs	r2, #9
 8000b4e:	9102      	str	r1, [sp, #8]
 8000b50:	f88d 2000 	strb.w	r2, [sp]
 8000b54:	60df      	str	r7, [r3, #12]
 8000b56:	e6e7      	b.n	8000928 <gpio_ll_int_attach+0x114>
 8000b58:	2102      	movs	r1, #2
 8000b5a:	2000      	movs	r0, #0
 8000b5c:	f001 f944 	bl	8001de8 <SYSCFG_EXTILineConfig>
 8000b60:	4b27      	ldr	r3, [pc, #156]	; (8000c00 <gpio_ll_int_attach+0x3ec>)
 8000b62:	2104      	movs	r1, #4
 8000b64:	2208      	movs	r2, #8
 8000b66:	9102      	str	r1, [sp, #8]
 8000b68:	f88d 2000 	strb.w	r2, [sp]
 8000b6c:	609f      	str	r7, [r3, #8]
 8000b6e:	e6db      	b.n	8000928 <gpio_ll_int_attach+0x114>
 8000b70:	2101      	movs	r1, #1
 8000b72:	2000      	movs	r0, #0
 8000b74:	f001 f938 	bl	8001de8 <SYSCFG_EXTILineConfig>
 8000b78:	4b21      	ldr	r3, [pc, #132]	; (8000c00 <gpio_ll_int_attach+0x3ec>)
 8000b7a:	2102      	movs	r1, #2
 8000b7c:	2207      	movs	r2, #7
 8000b7e:	9102      	str	r1, [sp, #8]
 8000b80:	f88d 2000 	strb.w	r2, [sp]
 8000b84:	605f      	str	r7, [r3, #4]
 8000b86:	e6cf      	b.n	8000928 <gpio_ll_int_attach+0x114>
 8000b88:	2100      	movs	r1, #0
 8000b8a:	4608      	mov	r0, r1
 8000b8c:	f001 f92c 	bl	8001de8 <SYSCFG_EXTILineConfig>
 8000b90:	4b1b      	ldr	r3, [pc, #108]	; (8000c00 <gpio_ll_int_attach+0x3ec>)
 8000b92:	2101      	movs	r1, #1
 8000b94:	2206      	movs	r2, #6
 8000b96:	9102      	str	r1, [sp, #8]
 8000b98:	f88d 2000 	strb.w	r2, [sp]
 8000b9c:	601f      	str	r7, [r3, #0]
 8000b9e:	e6c3      	b.n	8000928 <gpio_ll_int_attach+0x114>
 8000ba0:	2105      	movs	r1, #5
 8000ba2:	2001      	movs	r0, #1
 8000ba4:	e7b6      	b.n	8000b14 <gpio_ll_int_attach+0x300>
 8000ba6:	2104      	movs	r1, #4
 8000ba8:	2001      	movs	r0, #1
 8000baa:	e7bf      	b.n	8000b2c <gpio_ll_int_attach+0x318>
 8000bac:	2103      	movs	r1, #3
 8000bae:	2001      	movs	r0, #1
 8000bb0:	e7c8      	b.n	8000b44 <gpio_ll_int_attach+0x330>
 8000bb2:	2102      	movs	r1, #2
 8000bb4:	2001      	movs	r0, #1
 8000bb6:	e7d1      	b.n	8000b5c <gpio_ll_int_attach+0x348>
 8000bb8:	2101      	movs	r1, #1
 8000bba:	4608      	mov	r0, r1
 8000bbc:	e7da      	b.n	8000b74 <gpio_ll_int_attach+0x360>
 8000bbe:	2100      	movs	r1, #0
 8000bc0:	2001      	movs	r0, #1
 8000bc2:	e7e3      	b.n	8000b8c <gpio_ll_int_attach+0x378>
 8000bc4:	210c      	movs	r1, #12
 8000bc6:	f001 f90f 	bl	8001de8 <SYSCFG_EXTILineConfig>
 8000bca:	4b0d      	ldr	r3, [pc, #52]	; (8000c00 <gpio_ll_int_attach+0x3ec>)
 8000bcc:	9402      	str	r4, [sp, #8]
 8000bce:	2228      	movs	r2, #40	; 0x28
 8000bd0:	f88d 2000 	strb.w	r2, [sp]
 8000bd4:	631f      	str	r7, [r3, #48]	; 0x30
 8000bd6:	e6a7      	b.n	8000928 <gpio_ll_int_attach+0x114>
 8000bd8:	2106      	movs	r1, #6
 8000bda:	f001 f905 	bl	8001de8 <SYSCFG_EXTILineConfig>
 8000bde:	4b08      	ldr	r3, [pc, #32]	; (8000c00 <gpio_ll_int_attach+0x3ec>)
 8000be0:	9402      	str	r4, [sp, #8]
 8000be2:	2217      	movs	r2, #23
 8000be4:	f88d 2000 	strb.w	r2, [sp]
 8000be8:	619f      	str	r7, [r3, #24]
 8000bea:	e69d      	b.n	8000928 <gpio_ll_int_attach+0x114>
 8000bec:	210a      	movs	r1, #10
 8000bee:	f001 f8fb 	bl	8001de8 <SYSCFG_EXTILineConfig>
 8000bf2:	4b03      	ldr	r3, [pc, #12]	; (8000c00 <gpio_ll_int_attach+0x3ec>)
 8000bf4:	9402      	str	r4, [sp, #8]
 8000bf6:	2228      	movs	r2, #40	; 0x28
 8000bf8:	f88d 2000 	strb.w	r2, [sp]
 8000bfc:	629f      	str	r7, [r3, #40]	; 0x28
 8000bfe:	e693      	b.n	8000928 <gpio_ll_int_attach+0x114>
 8000c00:	20000288 	.word	0x20000288
 8000c04:	080016d1 	.word	0x080016d1

08000c08 <Dummy_Handler>:
 8000c08:	4770      	bx	lr
 8000c0a:	bf00      	nop

08000c0c <SVC_Handler>:
 8000c0c:	f3ef 8309 	mrs	r3, PSP
 8000c10:	681a      	ldr	r2, [r3, #0]
 8000c12:	6858      	ldr	r0, [r3, #4]
 8000c14:	4710      	bx	r2
 8000c16:	bf00      	nop

08000c18 <_delay_update>:
 8000c18:	6843      	ldr	r3, [r0, #4]
 8000c1a:	f893 2066 	ldrb.w	r2, [r3, #102]	; 0x66
 8000c1e:	2a03      	cmp	r2, #3
 8000c20:	d001      	beq.n	8000c26 <_delay_update+0xe>
 8000c22:	2000      	movs	r0, #0
 8000c24:	4770      	bx	lr
 8000c26:	f8b3 2062 	ldrh.w	r2, [r3, #98]	; 0x62
 8000c2a:	2a00      	cmp	r2, #0
 8000c2c:	d0f9      	beq.n	8000c22 <_delay_update+0xa>
 8000c2e:	3a01      	subs	r2, #1
 8000c30:	b292      	uxth	r2, r2
 8000c32:	f8a3 2062 	strh.w	r2, [r3, #98]	; 0x62
 8000c36:	2a00      	cmp	r2, #0
 8000c38:	d1f3      	bne.n	8000c22 <_delay_update+0xa>
 8000c3a:	2201      	movs	r2, #1
 8000c3c:	f883 2066 	strb.w	r2, [r3, #102]	; 0x66
 8000c40:	e7ef      	b.n	8000c22 <_delay_update+0xa>
 8000c42:	bf00      	nop

08000c44 <timer_enable>:
 8000c44:	f04f 22e0 	mov.w	r2, #3758153728	; 0xe000e000
 8000c48:	6913      	ldr	r3, [r2, #16]
 8000c4a:	f043 0301 	orr.w	r3, r3, #1
 8000c4e:	6113      	str	r3, [r2, #16]
 8000c50:	4770      	bx	lr
 8000c52:	bf00      	nop

08000c54 <timer_disable>:
 8000c54:	f04f 22e0 	mov.w	r2, #3758153728	; 0xe000e000
 8000c58:	6913      	ldr	r3, [r2, #16]
 8000c5a:	f023 0301 	bic.w	r3, r3, #1
 8000c5e:	6113      	str	r3, [r2, #16]
 8000c60:	4770      	bx	lr
 8000c62:	bf00      	nop

08000c64 <Reset_Handler>:
 8000c64:	4b11      	ldr	r3, [pc, #68]	; (8000cac <Reset_Handler+0x48>)
 8000c66:	4a12      	ldr	r2, [pc, #72]	; (8000cb0 <Reset_Handler+0x4c>)
 8000c68:	4293      	cmp	r3, r2
 8000c6a:	b500      	push	{lr}
 8000c6c:	d20c      	bcs.n	8000c88 <Reset_Handler+0x24>
 8000c6e:	3a01      	subs	r2, #1
 8000c70:	1ad2      	subs	r2, r2, r3
 8000c72:	f022 0203 	bic.w	r2, r2, #3
 8000c76:	3204      	adds	r2, #4
 8000c78:	490e      	ldr	r1, [pc, #56]	; (8000cb4 <Reset_Handler+0x50>)
 8000c7a:	441a      	add	r2, r3
 8000c7c:	f851 0b04 	ldr.w	r0, [r1], #4
 8000c80:	f843 0b04 	str.w	r0, [r3], #4
 8000c84:	4293      	cmp	r3, r2
 8000c86:	d1f9      	bne.n	8000c7c <Reset_Handler+0x18>
 8000c88:	4b0b      	ldr	r3, [pc, #44]	; (8000cb8 <Reset_Handler+0x54>)
 8000c8a:	4a0c      	ldr	r2, [pc, #48]	; (8000cbc <Reset_Handler+0x58>)
 8000c8c:	4293      	cmp	r3, r2
 8000c8e:	d20a      	bcs.n	8000ca6 <Reset_Handler+0x42>
 8000c90:	3a01      	subs	r2, #1
 8000c92:	1ad2      	subs	r2, r2, r3
 8000c94:	f022 0203 	bic.w	r2, r2, #3
 8000c98:	3204      	adds	r2, #4
 8000c9a:	441a      	add	r2, r3
 8000c9c:	2100      	movs	r1, #0
 8000c9e:	f843 1b04 	str.w	r1, [r3], #4
 8000ca2:	4293      	cmp	r3, r2
 8000ca4:	d1fb      	bne.n	8000c9e <Reset_Handler+0x3a>
 8000ca6:	f000 fc15 	bl	80014d4 <main>
 8000caa:	e7fe      	b.n	8000caa <Reset_Handler+0x46>
 8000cac:	20000000 	.word	0x20000000
 8000cb0:	20000284 	.word	0x20000284
 8000cb4:	08004c0c 	.word	0x08004c0c
 8000cb8:	20000284 	.word	0x20000284
 8000cbc:	200013b8 	.word	0x200013b8

08000cc0 <_stack_check>:
 8000cc0:	4b0c      	ldr	r3, [pc, #48]	; (8000cf4 <_stack_check+0x34>)
 8000cc2:	681b      	ldr	r3, [r3, #0]
 8000cc4:	685b      	ldr	r3, [r3, #4]
 8000cc6:	b510      	push	{r4, lr}
 8000cc8:	685c      	ldr	r4, [r3, #4]
 8000cca:	6d60      	ldr	r0, [r4, #84]	; 0x54
 8000ccc:	6803      	ldr	r3, [r0, #0]
 8000cce:	f1b3 3f33 	cmp.w	r3, #858993459	; 0x33333333
 8000cd2:	d100      	bne.n	8000cd6 <_stack_check+0x16>
 8000cd4:	bd10      	pop	{r4, pc}
 8000cd6:	6da1      	ldr	r1, [r4, #88]	; 0x58
 8000cd8:	f002 fc52 	bl	8003580 <hexdump>
 8000cdc:	6da3      	ldr	r3, [r4, #88]	; 0x58
 8000cde:	6d62      	ldr	r2, [r4, #84]	; 0x54
 8000ce0:	f8b4 1060 	ldrh.w	r1, [r4, #96]	; 0x60
 8000ce4:	4804      	ldr	r0, [pc, #16]	; (8000cf8 <_stack_check+0x38>)
 8000ce6:	f000 fb89 	bl	80013fc <ucx_printf>
 8000cea:	e8bd 4010 	ldmia.w	sp!, {r4, lr}
 8000cee:	4803      	ldr	r0, [pc, #12]	; (8000cfc <_stack_check+0x3c>)
 8000cf0:	f001 b998 	b.w	8002024 <krnl_panic>
 8000cf4:	20000068 	.word	0x20000068
 8000cf8:	08004964 	.word	0x08004964
 8000cfc:	ffffc00a 	.word	0xffffc00a

08000d00 <__kbhit>:
 8000d00:	b500      	push	{lr}
 8000d02:	2000      	movs	r0, #0
 8000d04:	f001 fc34 	bl	8002570 <usart_rxsize>
 8000d08:	3800      	subs	r0, #0
 8000d0a:	bf18      	it	ne
 8000d0c:	2001      	movne	r0, #1
 8000d0e:	f85d fb04 	ldr.w	pc, [sp], #4
 8000d12:	bf00      	nop

08000d14 <__getchar>:
 8000d14:	b500      	push	{lr}
 8000d16:	2000      	movs	r0, #0
 8000d18:	f001 fcb2 	bl	8002680 <usart_rx>
 8000d1c:	f85d fb04 	ldr.w	pc, [sp], #4

08000d20 <__putchar>:
 8000d20:	b510      	push	{r4, lr}
 8000d22:	b2c1      	uxtb	r1, r0
 8000d24:	4604      	mov	r4, r0
 8000d26:	2000      	movs	r0, #0
 8000d28:	f001 fc60 	bl	80025ec <usart_tx>
 8000d2c:	4620      	mov	r0, r4
 8000d2e:	bd10      	pop	{r4, pc}

08000d30 <_delay_ms>:
 8000d30:	e92d 47f0 	stmdb	sp!, {r4, r5, r6, r7, r8, r9, sl, lr}
 8000d34:	4b2d      	ldr	r3, [pc, #180]	; (8000dec <_delay_ms+0xbc>)
 8000d36:	f8df 80b8 	ldr.w	r8, [pc, #184]	; 8000df0 <_delay_ms+0xc0>
 8000d3a:	6a5b      	ldr	r3, [r3, #36]	; 0x24
 8000d3c:	f8df 90b4 	ldr.w	r9, [pc, #180]	; 8000df4 <_delay_ms+0xc4>
 8000d40:	f8b8 2000 	ldrh.w	r2, [r8]
 8000d44:	f8d9 4000 	ldr.w	r4, [r9]
 8000d48:	4e28      	ldr	r6, [pc, #160]	; (8000dec <_delay_ms+0xbc>)
 8000d4a:	b086      	sub	sp, #24
 8000d4c:	b29b      	uxth	r3, r3
 8000d4e:	f8ad 300c 	strh.w	r3, [sp, #12]
 8000d52:	f8bd 300c 	ldrh.w	r3, [sp, #12]
 8000d56:	b29b      	uxth	r3, r3
 8000d58:	429a      	cmp	r2, r3
 8000d5a:	f8bd 300c 	ldrh.w	r3, [sp, #12]
 8000d5e:	f8bd a00c 	ldrh.w	sl, [sp, #12]
 8000d62:	bf88      	it	hi
 8000d64:	3401      	addhi	r4, #1
 8000d66:	fa1f fa8a 	uxth.w	sl, sl
 8000d6a:	ea4f 4204 	mov.w	r2, r4, lsl #16
 8000d6e:	f44f 757a 	mov.w	r5, #1000	; 0x3e8
 8000d72:	bf88      	it	hi
 8000d74:	f8c9 4000 	strhi.w	r4, [r9]
 8000d78:	ea4f 4c14 	mov.w	ip, r4, lsr #16
 8000d7c:	fba0 5e05 	umull	r5, lr, r0, r5
 8000d80:	eb12 000a 	adds.w	r0, r2, sl
 8000d84:	f14c 0100 	adc.w	r1, ip, #0
 8000d88:	9004      	str	r0, [sp, #16]
 8000d8a:	9105      	str	r1, [sp, #20]
 8000d8c:	b29b      	uxth	r3, r3
 8000d8e:	2700      	movs	r7, #0
 8000d90:	6a71      	ldr	r1, [r6, #36]	; 0x24
 8000d92:	b289      	uxth	r1, r1
 8000d94:	f8ad 100e 	strh.w	r1, [sp, #14]
 8000d98:	f8bd 100e 	ldrh.w	r1, [sp, #14]
 8000d9c:	b289      	uxth	r1, r1
 8000d9e:	4299      	cmp	r1, r3
 8000da0:	d204      	bcs.n	8000dac <_delay_ms+0x7c>
 8000da2:	3401      	adds	r4, #1
 8000da4:	ea4f 4c14 	mov.w	ip, r4, lsr #16
 8000da8:	0422      	lsls	r2, r4, #16
 8000daa:	2701      	movs	r7, #1
 8000dac:	f8bd 300e 	ldrh.w	r3, [sp, #14]
 8000db0:	f8bd a00e 	ldrh.w	sl, [sp, #14]
 8000db4:	a904      	add	r1, sp, #16
 8000db6:	c903      	ldmia	r1, {r0, r1}
 8000db8:	e88d 0003 	stmia.w	sp, {r0, r1}
 8000dbc:	9901      	ldr	r1, [sp, #4]
 8000dbe:	fa1f fa8a 	uxth.w	sl, sl
 8000dc2:	ebba 0000 	subs.w	r0, sl, r0
 8000dc6:	eb61 0141 	sbc.w	r1, r1, r1, lsl #1
 8000dca:	1810      	adds	r0, r2, r0
 8000dcc:	eb41 010c 	adc.w	r1, r1, ip
 8000dd0:	42a8      	cmp	r0, r5
 8000dd2:	eb71 010e 	sbcs.w	r1, r1, lr
 8000dd6:	b29b      	uxth	r3, r3
 8000dd8:	d3da      	bcc.n	8000d90 <_delay_ms+0x60>
 8000dda:	f8a8 3000 	strh.w	r3, [r8]
 8000dde:	b10f      	cbz	r7, 8000de4 <_delay_ms+0xb4>
 8000de0:	f8c9 4000 	str.w	r4, [r9]
 8000de4:	b006      	add	sp, #24
 8000de6:	e8bd 87f0 	ldmia.w	sp!, {r4, r5, r6, r7, r8, r9, sl, pc}
 8000dea:	bf00      	nop
 8000dec:	40014800 	.word	0x40014800
 8000df0:	200002cc 	.word	0x200002cc
 8000df4:	200002c8 	.word	0x200002c8

08000df8 <_delay_us>:
 8000df8:	e92d 43f0 	stmdb	sp!, {r4, r5, r6, r7, r8, r9, lr}
 8000dfc:	4b29      	ldr	r3, [pc, #164]	; (8000ea4 <_delay_us+0xac>)
 8000dfe:	f8df 80a8 	ldr.w	r8, [pc, #168]	; 8000ea8 <_delay_us+0xb0>
 8000e02:	6a5b      	ldr	r3, [r3, #36]	; 0x24
 8000e04:	f8df 90a4 	ldr.w	r9, [pc, #164]	; 8000eac <_delay_us+0xb4>
 8000e08:	f8b8 2000 	ldrh.w	r2, [r8]
 8000e0c:	f8d9 6000 	ldr.w	r6, [r9]
 8000e10:	4f24      	ldr	r7, [pc, #144]	; (8000ea4 <_delay_us+0xac>)
 8000e12:	b084      	sub	sp, #16
 8000e14:	b29b      	uxth	r3, r3
 8000e16:	f8ad 3004 	strh.w	r3, [sp, #4]
 8000e1a:	f8bd 3004 	ldrh.w	r3, [sp, #4]
 8000e1e:	b29b      	uxth	r3, r3
 8000e20:	429a      	cmp	r2, r3
 8000e22:	f8bd 2004 	ldrh.w	r2, [sp, #4]
 8000e26:	f8bd 3004 	ldrh.w	r3, [sp, #4]
 8000e2a:	bf88      	it	hi
 8000e2c:	3601      	addhi	r6, #1
 8000e2e:	b29b      	uxth	r3, r3
 8000e30:	ea4f 4106 	mov.w	r1, r6, lsl #16
 8000e34:	bf88      	it	hi
 8000e36:	f8c9 6000 	strhi.w	r6, [r9]
 8000e3a:	ea4f 4c16 	mov.w	ip, r6, lsr #16
 8000e3e:	18cc      	adds	r4, r1, r3
 8000e40:	f14c 0500 	adc.w	r5, ip, #0
 8000e44:	9402      	str	r4, [sp, #8]
 8000e46:	9503      	str	r5, [sp, #12]
 8000e48:	b292      	uxth	r2, r2
 8000e4a:	f04f 0e00 	mov.w	lr, #0
 8000e4e:	6a7b      	ldr	r3, [r7, #36]	; 0x24
 8000e50:	b29b      	uxth	r3, r3
 8000e52:	f8ad 3006 	strh.w	r3, [sp, #6]
 8000e56:	f8bd 3006 	ldrh.w	r3, [sp, #6]
 8000e5a:	b29b      	uxth	r3, r3
 8000e5c:	4293      	cmp	r3, r2
 8000e5e:	d205      	bcs.n	8000e6c <_delay_us+0x74>
 8000e60:	3601      	adds	r6, #1
 8000e62:	ea4f 4c16 	mov.w	ip, r6, lsr #16
 8000e66:	0431      	lsls	r1, r6, #16
 8000e68:	f04f 0e01 	mov.w	lr, #1
 8000e6c:	f8bd 2006 	ldrh.w	r2, [sp, #6]
 8000e70:	f8bd 3006 	ldrh.w	r3, [sp, #6]
 8000e74:	ad02      	add	r5, sp, #8
 8000e76:	cd30      	ldmia	r5, {r4, r5}
 8000e78:	b29b      	uxth	r3, r3
 8000e7a:	1b1b      	subs	r3, r3, r4
 8000e7c:	eb65 0445 	sbc.w	r4, r5, r5, lsl #1
 8000e80:	18cb      	adds	r3, r1, r3
 8000e82:	eb44 040c 	adc.w	r4, r4, ip
 8000e86:	4283      	cmp	r3, r0
 8000e88:	f174 0400 	sbcs.w	r4, r4, #0
 8000e8c:	b292      	uxth	r2, r2
 8000e8e:	d3de      	bcc.n	8000e4e <_delay_us+0x56>
 8000e90:	f8a8 2000 	strh.w	r2, [r8]
 8000e94:	f1be 0f00 	cmp.w	lr, #0
 8000e98:	d001      	beq.n	8000e9e <_delay_us+0xa6>
 8000e9a:	f8c9 6000 	str.w	r6, [r9]
 8000e9e:	b004      	add	sp, #16
 8000ea0:	e8bd 83f0 	ldmia.w	sp!, {r4, r5, r6, r7, r8, r9, pc}
 8000ea4:	40014800 	.word	0x40014800
 8000ea8:	200002cc 	.word	0x200002cc
 8000eac:	200002c8 	.word	0x200002c8

08000eb0 <_read_us>:
 8000eb0:	4b0f      	ldr	r3, [pc, #60]	; (8000ef0 <_read_us+0x40>)
 8000eb2:	4a10      	ldr	r2, [pc, #64]	; (8000ef4 <_read_us+0x44>)
 8000eb4:	6a5b      	ldr	r3, [r3, #36]	; 0x24
 8000eb6:	8811      	ldrh	r1, [r2, #0]
 8000eb8:	b082      	sub	sp, #8
 8000eba:	b29b      	uxth	r3, r3
 8000ebc:	f8ad 3006 	strh.w	r3, [sp, #6]
 8000ec0:	f8bd 3006 	ldrh.w	r3, [sp, #6]
 8000ec4:	f8bd c006 	ldrh.w	ip, [sp, #6]
 8000ec8:	f8a2 c000 	strh.w	ip, [r2]
 8000ecc:	b29b      	uxth	r3, r3
 8000ece:	4299      	cmp	r1, r3
 8000ed0:	4b09      	ldr	r3, [pc, #36]	; (8000ef8 <_read_us+0x48>)
 8000ed2:	6818      	ldr	r0, [r3, #0]
 8000ed4:	bf84      	itt	hi
 8000ed6:	3001      	addhi	r0, #1
 8000ed8:	6018      	strhi	r0, [r3, #0]
 8000eda:	f8bd 3006 	ldrh.w	r3, [sp, #6]
 8000ede:	0c01      	lsrs	r1, r0, #16
 8000ee0:	b29b      	uxth	r3, r3
 8000ee2:	0400      	lsls	r0, r0, #16
 8000ee4:	18c0      	adds	r0, r0, r3
 8000ee6:	f141 0100 	adc.w	r1, r1, #0
 8000eea:	b002      	add	sp, #8
 8000eec:	4770      	bx	lr
 8000eee:	bf00      	nop
 8000ef0:	40014800 	.word	0x40014800
 8000ef4:	200002cc 	.word	0x200002cc
 8000ef8:	200002c8 	.word	0x200002c8

08000efc <SysTick_Handler>:
 8000efc:	b530      	push	{r4, r5, lr}
 8000efe:	4d0b      	ldr	r5, [pc, #44]	; (8000f2c <SysTick_Handler+0x30>)
 8000f00:	682b      	ldr	r3, [r5, #0]
 8000f02:	685b      	ldr	r3, [r3, #4]
 8000f04:	685c      	ldr	r4, [r3, #4]
 8000f06:	f7ff ffd3 	bl	8000eb0 <_read_us>
 8000f0a:	4b09      	ldr	r3, [pc, #36]	; (8000f30 <SysTick_Handler+0x34>)
 8000f0c:	342c      	adds	r4, #44	; 0x2c
 8000f0e:	601c      	str	r4, [r3, #0]
 8000f10:	f001 f8e4 	bl	80020dc <krnl_dispatcher>
 8000f14:	682b      	ldr	r3, [r5, #0]
 8000f16:	4a07      	ldr	r2, [pc, #28]	; (8000f34 <SysTick_Handler+0x38>)
 8000f18:	685b      	ldr	r3, [r3, #4]
 8000f1a:	4907      	ldr	r1, [pc, #28]	; (8000f38 <SysTick_Handler+0x3c>)
 8000f1c:	685b      	ldr	r3, [r3, #4]
 8000f1e:	332c      	adds	r3, #44	; 0x2c
 8000f20:	600b      	str	r3, [r1, #0]
 8000f22:	6853      	ldr	r3, [r2, #4]
 8000f24:	f043 5380 	orr.w	r3, r3, #268435456	; 0x10000000
 8000f28:	6053      	str	r3, [r2, #4]
 8000f2a:	bd30      	pop	{r4, r5, pc}
 8000f2c:	20000068 	.word	0x20000068
 8000f30:	200002d4 	.word	0x200002d4
 8000f34:	e000ed00 	.word	0xe000ed00
 8000f38:	200002d0 	.word	0x200002d0

08000f3c <syscall>:
 8000f3c:	df0b      	svc	11
 8000f3e:	4770      	bx	lr

08000f40 <_dispatch>:
 8000f40:	b510      	push	{r4, lr}
 8000f42:	4c0a      	ldr	r4, [pc, #40]	; (8000f6c <_dispatch+0x2c>)
 8000f44:	6823      	ldr	r3, [r4, #0]
 8000f46:	681b      	ldr	r3, [r3, #0]
 8000f48:	689b      	ldr	r3, [r3, #8]
 8000f4a:	b15b      	cbz	r3, 8000f64 <_dispatch+0x24>
 8000f4c:	f7ff feb8 	bl	8000cc0 <_stack_check>
 8000f50:	6823      	ldr	r3, [r4, #0]
 8000f52:	4907      	ldr	r1, [pc, #28]	; (8000f70 <_dispatch+0x30>)
 8000f54:	6818      	ldr	r0, [r3, #0]
 8000f56:	2200      	movs	r2, #0
 8000f58:	f000 faa8 	bl	80014ac <list_foreach>
 8000f5c:	e8bd 4010 	ldmia.w	sp!, {r4, lr}
 8000f60:	f001 b882 	b.w	8002068 <krnl_schedule>
 8000f64:	4803      	ldr	r0, [pc, #12]	; (8000f74 <_dispatch+0x34>)
 8000f66:	f001 f85d 	bl	8002024 <krnl_panic>
 8000f6a:	e7ef      	b.n	8000f4c <_dispatch+0xc>
 8000f6c:	20000068 	.word	0x20000068
 8000f70:	08000c19 	.word	0x08000c19
 8000f74:	ffffc001 	.word	0xffffc001

08000f78 <_hardware_init>:
 8000f78:	e92d 47f0 	stmdb	sp!, {r4, r5, r6, r7, r8, r9, sl, lr}
 8000f7c:	4d51      	ldr	r5, [pc, #324]	; (80010c4 <_hardware_init+0x14c>)
 8000f7e:	f8df 9148 	ldr.w	r9, [pc, #328]	; 80010c8 <_hardware_init+0x150>
 8000f82:	f8df 8148 	ldr.w	r8, [pc, #328]	; 80010cc <_hardware_init+0x154>
 8000f86:	b086      	sub	sp, #24
 8000f88:	f000 ff9a 	bl	8001ec0 <SystemInit>
 8000f8c:	f001 f80e 	bl	8001fac <SystemCoreClockUpdate>
 8000f90:	682b      	ldr	r3, [r5, #0]
 8000f92:	494f      	ldr	r1, [pc, #316]	; (80010d0 <_hardware_init+0x158>)
 8000f94:	484f      	ldr	r0, [pc, #316]	; (80010d4 <_hardware_init+0x15c>)
 8000f96:	fba1 1303 	umull	r1, r3, r1, r3
 8000f9a:	f04f 22e0 	mov.w	r2, #3758153728	; 0xe000e000
 8000f9e:	f3c3 1357 	ubfx	r3, r3, #5, #24
 8000fa2:	3b01      	subs	r3, #1
 8000fa4:	6153      	str	r3, [r2, #20]
 8000fa6:	2400      	movs	r4, #0
 8000fa8:	2306      	movs	r3, #6
 8000faa:	26f0      	movs	r6, #240	; 0xf0
 8000fac:	f880 6023 	strb.w	r6, [r0, #35]	; 0x23
 8000fb0:	2101      	movs	r1, #1
 8000fb2:	6194      	str	r4, [r2, #24]
 8000fb4:	6113      	str	r3, [r2, #16]
 8000fb6:	f880 6022 	strb.w	r6, [r0, #34]	; 0x22
 8000fba:	f44f 2080 	mov.w	r0, #262144	; 0x40000
 8000fbe:	f000 fefb 	bl	8001db8 <RCC_APB2PeriphClockCmd>
 8000fc2:	a803      	add	r0, sp, #12
 8000fc4:	f000 ff68 	bl	8001e98 <TIM_TimeBaseStructInit>
 8000fc8:	682b      	ldr	r3, [r5, #0]
 8000fca:	4a43      	ldr	r2, [pc, #268]	; (80010d8 <_hardware_init+0x160>)
 8000fcc:	4d43      	ldr	r5, [pc, #268]	; (80010dc <_hardware_init+0x164>)
 8000fce:	f8ad 4014 	strh.w	r4, [sp, #20]
 8000fd2:	fba2 2303 	umull	r2, r3, r2, r3
 8000fd6:	0c9b      	lsrs	r3, r3, #18
 8000fd8:	f64f 72ff 	movw	r2, #65535	; 0xffff
 8000fdc:	4628      	mov	r0, r5
 8000fde:	a903      	add	r1, sp, #12
 8000fe0:	f8ad 300c 	strh.w	r3, [sp, #12]
 8000fe4:	9204      	str	r2, [sp, #16]
 8000fe6:	f8ad 400e 	strh.w	r4, [sp, #14]
 8000fea:	f000 ff15 	bl	8001e18 <TIM_TimeBaseInit>
 8000fee:	4621      	mov	r1, r4
 8000ff0:	4628      	mov	r0, r5
 8000ff2:	f000 ff59 	bl	8001ea8 <TIM_Cmd>
 8000ff6:	4628      	mov	r0, r5
 8000ff8:	626c      	str	r4, [r5, #36]	; 0x24
 8000ffa:	2101      	movs	r1, #1
 8000ffc:	f000 ff54 	bl	8001ea8 <TIM_Cmd>
 8001000:	4622      	mov	r2, r4
 8001002:	f44f 31e1 	mov.w	r1, #115200	; 0x1c200
 8001006:	4620      	mov	r0, r4
 8001008:	f001 f97c 	bl	8002304 <usart_init>
 800100c:	4834      	ldr	r0, [pc, #208]	; (80010e0 <_hardware_init+0x168>)
 800100e:	4e33      	ldr	r6, [pc, #204]	; (80010dc <_hardware_init+0x164>)
 8001010:	f002 fa9a 	bl	8003548 <_stdout_install>
 8001014:	4833      	ldr	r0, [pc, #204]	; (80010e4 <_hardware_init+0x16c>)
 8001016:	f002 fa9d 	bl	8003554 <_stdin_install>
 800101a:	4833      	ldr	r0, [pc, #204]	; (80010e8 <_hardware_init+0x170>)
 800101c:	f002 faa0 	bl	8003560 <_stdpoll_install>
 8001020:	6a6b      	ldr	r3, [r5, #36]	; 0x24
 8001022:	f8b9 2000 	ldrh.w	r2, [r9]
 8001026:	f8d8 4000 	ldr.w	r4, [r8]
 800102a:	4d30      	ldr	r5, [pc, #192]	; (80010ec <_hardware_init+0x174>)
 800102c:	b29b      	uxth	r3, r3
 800102e:	f8ad 3008 	strh.w	r3, [sp, #8]
 8001032:	f8bd 3008 	ldrh.w	r3, [sp, #8]
 8001036:	b29b      	uxth	r3, r3
 8001038:	429a      	cmp	r2, r3
 800103a:	f8bd 3008 	ldrh.w	r3, [sp, #8]
 800103e:	f8bd a008 	ldrh.w	sl, [sp, #8]
 8001042:	bf88      	it	hi
 8001044:	3401      	addhi	r4, #1
 8001046:	fa1f fa8a 	uxth.w	sl, sl
 800104a:	ea4f 4204 	mov.w	r2, r4, lsl #16
 800104e:	bf88      	it	hi
 8001050:	f8c8 4000 	strhi.w	r4, [r8]
 8001054:	ea4f 4c14 	mov.w	ip, r4, lsr #16
 8001058:	eb12 000a 	adds.w	r0, r2, sl
 800105c:	f14c 0100 	adc.w	r1, ip, #0
 8001060:	9003      	str	r0, [sp, #12]
 8001062:	9104      	str	r1, [sp, #16]
 8001064:	2700      	movs	r7, #0
 8001066:	b29b      	uxth	r3, r3
 8001068:	46be      	mov	lr, r7
 800106a:	6a71      	ldr	r1, [r6, #36]	; 0x24
 800106c:	b289      	uxth	r1, r1
 800106e:	f8ad 100a 	strh.w	r1, [sp, #10]
 8001072:	f8bd 100a 	ldrh.w	r1, [sp, #10]
 8001076:	b289      	uxth	r1, r1
 8001078:	428b      	cmp	r3, r1
 800107a:	d904      	bls.n	8001086 <_hardware_init+0x10e>
 800107c:	3401      	adds	r4, #1
 800107e:	ea4f 4c14 	mov.w	ip, r4, lsr #16
 8001082:	0422      	lsls	r2, r4, #16
 8001084:	2701      	movs	r7, #1
 8001086:	f8bd 300a 	ldrh.w	r3, [sp, #10]
 800108a:	f8bd a00a 	ldrh.w	sl, [sp, #10]
 800108e:	a903      	add	r1, sp, #12
 8001090:	c903      	ldmia	r1, {r0, r1}
 8001092:	e88d 0003 	stmia.w	sp, {r0, r1}
 8001096:	9901      	ldr	r1, [sp, #4]
 8001098:	fa1f fa8a 	uxth.w	sl, sl
 800109c:	ebba 0000 	subs.w	r0, sl, r0
 80010a0:	eb61 0141 	sbc.w	r1, r1, r1, lsl #1
 80010a4:	1880      	adds	r0, r0, r2
 80010a6:	eb41 010c 	adc.w	r1, r1, ip
 80010aa:	4285      	cmp	r5, r0
 80010ac:	eb7e 0101 	sbcs.w	r1, lr, r1
 80010b0:	b29b      	uxth	r3, r3
 80010b2:	d2da      	bcs.n	800106a <_hardware_init+0xf2>
 80010b4:	f8a9 3000 	strh.w	r3, [r9]
 80010b8:	b10f      	cbz	r7, 80010be <_hardware_init+0x146>
 80010ba:	f8c8 4000 	str.w	r4, [r8]
 80010be:	b006      	add	sp, #24
 80010c0:	e8bd 87f0 	ldmia.w	sp!, {r4, r5, r6, r7, r8, r9, sl, pc}
 80010c4:	20000064 	.word	0x20000064
 80010c8:	200002cc 	.word	0x200002cc
 80010cc:	200002c8 	.word	0x200002c8
 80010d0:	51eb851f 	.word	0x51eb851f
 80010d4:	e000ed00 	.word	0xe000ed00
 80010d8:	431bde83 	.word	0x431bde83
 80010dc:	40014800 	.word	0x40014800
 80010e0:	08000d21 	.word	0x08000d21
 80010e4:	08000d15 	.word	0x08000d15
 80010e8:	08000d01 	.word	0x08000d01
 80010ec:	001e847f 	.word	0x001e847f

080010f0 <_di>:
 80010f0:	b672      	cpsid	i
 80010f2:	4770      	bx	lr

080010f4 <_ei>:
 80010f4:	b662      	cpsie	i
 80010f6:	f3bf 8f6f 	isb	sy
 80010fa:	4770      	bx	lr

080010fc <_timer_enable>:
 80010fc:	4801      	ldr	r0, [pc, #4]	; (8001104 <_timer_enable+0x8>)
 80010fe:	2100      	movs	r1, #0
 8001100:	f7ff bf1c 	b.w	8000f3c <syscall>
 8001104:	08000c45 	.word	0x08000c45

08001108 <_timer_disable>:
 8001108:	4801      	ldr	r0, [pc, #4]	; (8001110 <_timer_disable+0x8>)
 800110a:	2100      	movs	r1, #0
 800110c:	f7ff bf16 	b.w	8000f3c <syscall>
 8001110:	08000c55 	.word	0x08000c55

08001114 <_dispatch_init>:
 8001114:	4b0c      	ldr	r3, [pc, #48]	; (8001148 <_dispatch_init+0x34>)
 8001116:	681b      	ldr	r3, [r3, #0]
 8001118:	685a      	ldr	r2, [r3, #4]
 800111a:	f893 3066 	ldrb.w	r3, [r3, #102]	; 0x66
 800111e:	6852      	ldr	r2, [r2, #4]
 8001120:	2b79      	cmp	r3, #121	; 0x79
 8001122:	d105      	bne.n	8001130 <_dispatch_init+0x1c>
 8001124:	f04f 21e0 	mov.w	r1, #3758153728	; 0xe000e000
 8001128:	690b      	ldr	r3, [r1, #16]
 800112a:	f043 0301 	orr.w	r3, r3, #1
 800112e:	610b      	str	r3, [r1, #16]
 8001130:	6a83      	ldr	r3, [r0, #40]	; 0x28
 8001132:	3340      	adds	r3, #64	; 0x40
 8001134:	f383 8809 	msr	PSP, r3
 8001138:	2303      	movs	r3, #3
 800113a:	f383 8814 	msr	CONTROL, r3
 800113e:	f3bf 8f6f 	isb	sy
 8001142:	6813      	ldr	r3, [r2, #0]
 8001144:	4718      	bx	r3
 8001146:	bf00      	nop
 8001148:	20000068 	.word	0x20000068

0800114c <_context_init>:
 800114c:	4411      	add	r1, r2
 800114e:	b410      	push	{r4}
 8001150:	f1a1 0240 	sub.w	r2, r1, #64	; 0x40
 8001154:	f04f 7480 	mov.w	r4, #16777216	; 0x1000000
 8001158:	6241      	str	r1, [r0, #36]	; 0x24
 800115a:	6003      	str	r3, [r0, #0]
 800115c:	6282      	str	r2, [r0, #40]	; 0x28
 800115e:	e901 0018 	stmdb	r1, {r3, r4}
 8001162:	bc10      	pop	{r4}
 8001164:	4770      	bx	lr
 8001166:	bf00      	nop

08001168 <ucx_vsprintf>:
 8001168:	e92d 4ff0 	stmdb	sp!, {r4, r5, r6, r7, r8, r9, sl, fp, lr}
 800116c:	780b      	ldrb	r3, [r1, #0]
 800116e:	b084      	sub	sp, #16
 8001170:	4689      	mov	r9, r1
 8001172:	4604      	mov	r4, r0
 8001174:	4617      	mov	r7, r2
 8001176:	b3ab      	cbz	r3, 80011e4 <ucx_vsprintf+0x7c>
 8001178:	2b25      	cmp	r3, #37	; 0x25
 800117a:	d125      	bne.n	80011c8 <ucx_vsprintf+0x60>
 800117c:	f899 3001 	ldrb.w	r3, [r9, #1]
 8001180:	2b30      	cmp	r3, #48	; 0x30
 8001182:	f000 80d7 	beq.w	8001334 <ucx_vsprintf+0x1cc>
 8001186:	f1a3 0230 	sub.w	r2, r3, #48	; 0x30
 800118a:	2a09      	cmp	r2, #9
 800118c:	f109 0901 	add.w	r9, r9, #1
 8001190:	f04f 0b20 	mov.w	fp, #32
 8001194:	f240 80d8 	bls.w	8001348 <ucx_vsprintf+0x1e0>
 8001198:	f04f 35ff 	mov.w	r5, #4294967295	; 0xffffffff
 800119c:	3b58      	subs	r3, #88	; 0x58
 800119e:	2b20      	cmp	r3, #32
 80011a0:	d81a      	bhi.n	80011d8 <ucx_vsprintf+0x70>
 80011a2:	e8df f003 	tbb	[pc, r3]
 80011a6:	192a      	.short	0x192a
 80011a8:	19191919 	.word	0x19191919
 80011ac:	19191919 	.word	0x19191919
 80011b0:	1960b219 	.word	0x1960b219
 80011b4:	19191919 	.word	0x19191919
 80011b8:	196c1919 	.word	0x196c1919
 80011bc:	19ad1919 	.word	0x19ad1919
 80011c0:	72197619 	.word	0x72197619
 80011c4:	1919      	.short	0x1919
 80011c6:	2a          	.byte	0x2a
 80011c7:	00          	.byte	0x00
 80011c8:	2c00      	cmp	r4, #0
 80011ca:	f000 80cb 	beq.w	8001364 <ucx_vsprintf+0x1fc>
 80011ce:	6822      	ldr	r2, [r4, #0]
 80011d0:	7013      	strb	r3, [r2, #0]
 80011d2:	6823      	ldr	r3, [r4, #0]
 80011d4:	3301      	adds	r3, #1
 80011d6:	6023      	str	r3, [r4, #0]
 80011d8:	f899 3001 	ldrb.w	r3, [r9, #1]
 80011dc:	f109 0901 	add.w	r9, r9, #1
 80011e0:	2b00      	cmp	r3, #0
 80011e2:	d1c9      	bne.n	8001178 <ucx_vsprintf+0x10>
 80011e4:	b12c      	cbz	r4, 80011f2 <ucx_vsprintf+0x8a>
 80011e6:	6823      	ldr	r3, [r4, #0]
 80011e8:	2200      	movs	r2, #0
 80011ea:	701a      	strb	r2, [r3, #0]
 80011ec:	6823      	ldr	r3, [r4, #0]
 80011ee:	3301      	adds	r3, #1
 80011f0:	6023      	str	r3, [r4, #0]
 80011f2:	2000      	movs	r0, #0
 80011f4:	b004      	add	sp, #16
 80011f6:	e8bd 8ff0 	ldmia.w	sp!, {r4, r5, r6, r7, r8, r9, sl, fp, pc}
 80011fa:	f857 8b04 	ldr.w	r8, [r7], #4
 80011fe:	2110      	movs	r1, #16
 8001200:	f1b8 0f00 	cmp.w	r8, #0
 8001204:	d139      	bne.n	800127a <ucx_vsprintf+0x112>
 8001206:	f04f 0330 	mov.w	r3, #48	; 0x30
 800120a:	f88d 3000 	strb.w	r3, [sp]
 800120e:	46ea      	mov	sl, sp
 8001210:	2301      	movs	r3, #1
 8001212:	1aeb      	subs	r3, r5, r3
 8001214:	2b00      	cmp	r3, #0
 8001216:	f103 36ff 	add.w	r6, r3, #4294967295	; 0xffffffff
 800121a:	dd0a      	ble.n	8001232 <ucx_vsprintf+0xca>
 800121c:	2c00      	cmp	r4, #0
 800121e:	f000 8085 	beq.w	800132c <ucx_vsprintf+0x1c4>
 8001222:	6823      	ldr	r3, [r4, #0]
 8001224:	f883 b000 	strb.w	fp, [r3]
 8001228:	6823      	ldr	r3, [r4, #0]
 800122a:	3301      	adds	r3, #1
 800122c:	6023      	str	r3, [r4, #0]
 800122e:	3e01      	subs	r6, #1
 8001230:	d2f4      	bcs.n	800121c <ucx_vsprintf+0xb4>
 8001232:	f108 0501 	add.w	r5, r8, #1
 8001236:	4455      	add	r5, sl
 8001238:	e006      	b.n	8001248 <ucx_vsprintf+0xe0>
 800123a:	6823      	ldr	r3, [r4, #0]
 800123c:	7018      	strb	r0, [r3, #0]
 800123e:	6823      	ldr	r3, [r4, #0]
 8001240:	3301      	adds	r3, #1
 8001242:	6023      	str	r3, [r4, #0]
 8001244:	4555      	cmp	r5, sl
 8001246:	d0c7      	beq.n	80011d8 <ucx_vsprintf+0x70>
 8001248:	f815 0d01 	ldrb.w	r0, [r5, #-1]!
 800124c:	2c00      	cmp	r4, #0
 800124e:	d1f4      	bne.n	800123a <ucx_vsprintf+0xd2>
 8001250:	2800      	cmp	r0, #0
 8001252:	d0f7      	beq.n	8001244 <ucx_vsprintf+0xdc>
 8001254:	f002 f98a 	bl	800356c <_putchar>
 8001258:	4555      	cmp	r5, sl
 800125a:	d0bd      	beq.n	80011d8 <ucx_vsprintf+0x70>
 800125c:	f815 0d01 	ldrb.w	r0, [r5, #-1]!
 8001260:	2800      	cmp	r0, #0
 8001262:	d0ef      	beq.n	8001244 <ucx_vsprintf+0xdc>
 8001264:	e7f6      	b.n	8001254 <ucx_vsprintf+0xec>
 8001266:	f857 8b04 	ldr.w	r8, [r7], #4
 800126a:	f1b8 0f00 	cmp.w	r8, #0
 800126e:	f2c0 8090 	blt.w	8001392 <ucx_vsprintf+0x22a>
 8001272:	210a      	movs	r1, #10
 8001274:	f1b8 0f00 	cmp.w	r8, #0
 8001278:	d0c5      	beq.n	8001206 <ucx_vsprintf+0x9e>
 800127a:	4646      	mov	r6, r8
 800127c:	e094      	b.n	80013a8 <ucx_vsprintf+0x240>
 800127e:	f857 8b04 	ldr.w	r8, [r7], #4
 8001282:	f109 0901 	add.w	r9, r9, #1
 8001286:	210a      	movs	r1, #10
 8001288:	e7ba      	b.n	8001200 <ucx_vsprintf+0x98>
 800128a:	f857 8b04 	ldr.w	r8, [r7], #4
 800128e:	210a      	movs	r1, #10
 8001290:	e7b6      	b.n	8001200 <ucx_vsprintf+0x98>
 8001292:	f857 6b04 	ldr.w	r6, [r7], #4
 8001296:	2e00      	cmp	r6, #0
 8001298:	d06f      	beq.n	800137a <ucx_vsprintf+0x212>
 800129a:	7830      	ldrb	r0, [r6, #0]
 800129c:	2800      	cmp	r0, #0
 800129e:	f000 809b 	beq.w	80013d8 <ucx_vsprintf+0x270>
 80012a2:	2d00      	cmp	r5, #0
 80012a4:	d098      	beq.n	80011d8 <ucx_vsprintf+0x70>
 80012a6:	b16c      	cbz	r4, 80012c4 <ucx_vsprintf+0x15c>
 80012a8:	6823      	ldr	r3, [r4, #0]
 80012aa:	7018      	strb	r0, [r3, #0]
 80012ac:	6823      	ldr	r3, [r4, #0]
 80012ae:	3301      	adds	r3, #1
 80012b0:	6023      	str	r3, [r4, #0]
 80012b2:	f816 0f01 	ldrb.w	r0, [r6, #1]!
 80012b6:	1e6b      	subs	r3, r5, #1
 80012b8:	b158      	cbz	r0, 80012d2 <ucx_vsprintf+0x16a>
 80012ba:	2b00      	cmp	r3, #0
 80012bc:	d08c      	beq.n	80011d8 <ucx_vsprintf+0x70>
 80012be:	461d      	mov	r5, r3
 80012c0:	2c00      	cmp	r4, #0
 80012c2:	d1f1      	bne.n	80012a8 <ucx_vsprintf+0x140>
 80012c4:	f002 f952 	bl	800356c <_putchar>
 80012c8:	f816 0f01 	ldrb.w	r0, [r6, #1]!
 80012cc:	1e6b      	subs	r3, r5, #1
 80012ce:	2800      	cmp	r0, #0
 80012d0:	d1f3      	bne.n	80012ba <ucx_vsprintf+0x152>
 80012d2:	1eae      	subs	r6, r5, #2
 80012d4:	2b00      	cmp	r3, #0
 80012d6:	f77f af7f 	ble.w	80011d8 <ucx_vsprintf+0x70>
 80012da:	b16c      	cbz	r4, 80012f8 <ucx_vsprintf+0x190>
 80012dc:	6823      	ldr	r3, [r4, #0]
 80012de:	f883 b000 	strb.w	fp, [r3]
 80012e2:	6823      	ldr	r3, [r4, #0]
 80012e4:	3301      	adds	r3, #1
 80012e6:	6023      	str	r3, [r4, #0]
 80012e8:	2e00      	cmp	r6, #0
 80012ea:	f106 33ff 	add.w	r3, r6, #4294967295	; 0xffffffff
 80012ee:	f77f af73 	ble.w	80011d8 <ucx_vsprintf+0x70>
 80012f2:	461e      	mov	r6, r3
 80012f4:	2c00      	cmp	r4, #0
 80012f6:	d1f1      	bne.n	80012dc <ucx_vsprintf+0x174>
 80012f8:	4658      	mov	r0, fp
 80012fa:	f002 f937 	bl	800356c <_putchar>
 80012fe:	e7f3      	b.n	80012e8 <ucx_vsprintf+0x180>
 8001300:	f857 8b04 	ldr.w	r8, [r7], #4
 8001304:	2110      	movs	r1, #16
 8001306:	2504      	movs	r5, #4
 8001308:	e77a      	b.n	8001200 <ucx_vsprintf+0x98>
 800130a:	f857 0b04 	ldr.w	r0, [r7], #4
 800130e:	2c00      	cmp	r4, #0
 8001310:	d038      	beq.n	8001384 <ucx_vsprintf+0x21c>
 8001312:	6822      	ldr	r2, [r4, #0]
 8001314:	7010      	strb	r0, [r2, #0]
 8001316:	6823      	ldr	r3, [r4, #0]
 8001318:	3301      	adds	r3, #1
 800131a:	6023      	str	r3, [r4, #0]
 800131c:	f899 3001 	ldrb.w	r3, [r9, #1]
 8001320:	f109 0901 	add.w	r9, r9, #1
 8001324:	2b00      	cmp	r3, #0
 8001326:	f47f af27 	bne.w	8001178 <ucx_vsprintf+0x10>
 800132a:	e75b      	b.n	80011e4 <ucx_vsprintf+0x7c>
 800132c:	4658      	mov	r0, fp
 800132e:	f002 f91d 	bl	800356c <_putchar>
 8001332:	e77c      	b.n	800122e <ucx_vsprintf+0xc6>
 8001334:	469b      	mov	fp, r3
 8001336:	f899 3002 	ldrb.w	r3, [r9, #2]
 800133a:	f1a3 0230 	sub.w	r2, r3, #48	; 0x30
 800133e:	2a09      	cmp	r2, #9
 8001340:	f109 0902 	add.w	r9, r9, #2
 8001344:	f63f af28 	bhi.w	8001198 <ucx_vsprintf+0x30>
 8001348:	2500      	movs	r5, #0
 800134a:	eb05 0585 	add.w	r5, r5, r5, lsl #2
 800134e:	eb03 0545 	add.w	r5, r3, r5, lsl #1
 8001352:	f819 3f01 	ldrb.w	r3, [r9, #1]!
 8001356:	f1a3 0230 	sub.w	r2, r3, #48	; 0x30
 800135a:	2a09      	cmp	r2, #9
 800135c:	f1a5 0530 	sub.w	r5, r5, #48	; 0x30
 8001360:	d9f3      	bls.n	800134a <ucx_vsprintf+0x1e2>
 8001362:	e71b      	b.n	800119c <ucx_vsprintf+0x34>
 8001364:	4618      	mov	r0, r3
 8001366:	f002 f901 	bl	800356c <_putchar>
 800136a:	f899 3001 	ldrb.w	r3, [r9, #1]
 800136e:	f109 0901 	add.w	r9, r9, #1
 8001372:	2b00      	cmp	r3, #0
 8001374:	f47f af00 	bne.w	8001178 <ucx_vsprintf+0x10>
 8001378:	e734      	b.n	80011e4 <ucx_vsprintf+0x7c>
 800137a:	4e19      	ldr	r6, [pc, #100]	; (80013e0 <ucx_vsprintf+0x278>)
 800137c:	203c      	movs	r0, #60	; 0x3c
 800137e:	2d00      	cmp	r5, #0
 8001380:	d191      	bne.n	80012a6 <ucx_vsprintf+0x13e>
 8001382:	e729      	b.n	80011d8 <ucx_vsprintf+0x70>
 8001384:	f010 00ff 	ands.w	r0, r0, #255	; 0xff
 8001388:	f43f af26 	beq.w	80011d8 <ucx_vsprintf+0x70>
 800138c:	f002 f8ee 	bl	800356c <_putchar>
 8001390:	e722      	b.n	80011d8 <ucx_vsprintf+0x70>
 8001392:	f1c8 0600 	rsb	r6, r8, #0
 8001396:	b1dc      	cbz	r4, 80013d0 <ucx_vsprintf+0x268>
 8001398:	6823      	ldr	r3, [r4, #0]
 800139a:	222d      	movs	r2, #45	; 0x2d
 800139c:	701a      	strb	r2, [r3, #0]
 800139e:	6823      	ldr	r3, [r4, #0]
 80013a0:	3301      	adds	r3, #1
 80013a2:	6023      	str	r3, [r4, #0]
 80013a4:	3d01      	subs	r5, #1
 80013a6:	210a      	movs	r1, #10
 80013a8:	46ea      	mov	sl, sp
 80013aa:	f8df e038 	ldr.w	lr, [pc, #56]	; 80013e4 <ucx_vsprintf+0x27c>
 80013ae:	46d4      	mov	ip, sl
 80013b0:	2300      	movs	r3, #0
 80013b2:	4630      	mov	r0, r6
 80013b4:	fbb6 f6f1 	udiv	r6, r6, r1
 80013b8:	fb01 0216 	mls	r2, r1, r6, r0
 80013bc:	4288      	cmp	r0, r1
 80013be:	f81e 2002 	ldrb.w	r2, [lr, r2]
 80013c2:	f80c 2b01 	strb.w	r2, [ip], #1
 80013c6:	4698      	mov	r8, r3
 80013c8:	f103 0301 	add.w	r3, r3, #1
 80013cc:	d2f1      	bcs.n	80013b2 <ucx_vsprintf+0x24a>
 80013ce:	e720      	b.n	8001212 <ucx_vsprintf+0xaa>
 80013d0:	202d      	movs	r0, #45	; 0x2d
 80013d2:	f002 f8cb 	bl	800356c <_putchar>
 80013d6:	e7e5      	b.n	80013a4 <ucx_vsprintf+0x23c>
 80013d8:	1e6e      	subs	r6, r5, #1
 80013da:	462b      	mov	r3, r5
 80013dc:	e77a      	b.n	80012d4 <ucx_vsprintf+0x16c>
 80013de:	bf00      	nop
 80013e0:	0800498c 	.word	0x0800498c
 80013e4:	08004994 	.word	0x08004994

080013e8 <ucx_memset>:
 80013e8:	b132      	cbz	r2, 80013f8 <ucx_memset+0x10>
 80013ea:	b2c9      	uxtb	r1, r1
 80013ec:	4402      	add	r2, r0
 80013ee:	4603      	mov	r3, r0
 80013f0:	f803 1b01 	strb.w	r1, [r3], #1
 80013f4:	4293      	cmp	r3, r2
 80013f6:	d1fb      	bne.n	80013f0 <ucx_memset+0x8>
 80013f8:	4770      	bx	lr
 80013fa:	bf00      	nop

080013fc <ucx_printf>:
 80013fc:	b40f      	push	{r0, r1, r2, r3}
 80013fe:	b500      	push	{lr}
 8001400:	b082      	sub	sp, #8
 8001402:	aa03      	add	r2, sp, #12
 8001404:	2000      	movs	r0, #0
 8001406:	f852 1b04 	ldr.w	r1, [r2], #4
 800140a:	9201      	str	r2, [sp, #4]
 800140c:	f7ff feac 	bl	8001168 <ucx_vsprintf>
 8001410:	b002      	add	sp, #8
 8001412:	f85d eb04 	ldr.w	lr, [sp], #4
 8001416:	b004      	add	sp, #16
 8001418:	4770      	bx	lr
 800141a:	bf00      	nop

0800141c <list_create>:
 800141c:	b530      	push	{r4, r5, lr}
 800141e:	200c      	movs	r0, #12
 8001420:	f000 f8da 	bl	80015d8 <ucx_malloc>
 8001424:	4604      	mov	r4, r0
 8001426:	b1c8      	cbz	r0, 800145c <list_create+0x40>
 8001428:	2008      	movs	r0, #8
 800142a:	f000 f8d5 	bl	80015d8 <ucx_malloc>
 800142e:	4605      	mov	r5, r0
 8001430:	b188      	cbz	r0, 8001456 <list_create+0x3a>
 8001432:	2008      	movs	r0, #8
 8001434:	f000 f8d0 	bl	80015d8 <ucx_malloc>
 8001438:	b190      	cbz	r0, 8001460 <list_create+0x44>
 800143a:	f64d 63ad 	movw	r3, #57005	; 0xdead
 800143e:	e885 0009 	stmia.w	r5, {r0, r3}
 8001442:	2200      	movs	r2, #0
 8001444:	2300      	movs	r3, #0
 8001446:	e880 000c 	stmia.w	r0, {r2, r3}
 800144a:	2300      	movs	r3, #0
 800144c:	6025      	str	r5, [r4, #0]
 800144e:	6060      	str	r0, [r4, #4]
 8001450:	60a3      	str	r3, [r4, #8]
 8001452:	4620      	mov	r0, r4
 8001454:	bd30      	pop	{r4, r5, pc}
 8001456:	4620      	mov	r0, r4
 8001458:	f000 f890 	bl	800157c <ucx_free>
 800145c:	2400      	movs	r4, #0
 800145e:	e7f8      	b.n	8001452 <list_create+0x36>
 8001460:	4620      	mov	r0, r4
 8001462:	f000 f88b 	bl	800157c <ucx_free>
 8001466:	4628      	mov	r0, r5
 8001468:	f000 f888 	bl	800157c <ucx_free>
 800146c:	e7f6      	b.n	800145c <list_create+0x40>
 800146e:	bf00      	nop

08001470 <list_pushback>:
 8001470:	b530      	push	{r4, r5, lr}
 8001472:	4604      	mov	r4, r0
 8001474:	2008      	movs	r0, #8
 8001476:	460d      	mov	r5, r1
 8001478:	f000 f8ae 	bl	80015d8 <ucx_malloc>
 800147c:	4603      	mov	r3, r0
 800147e:	b150      	cbz	r0, 8001496 <list_pushback+0x26>
 8001480:	2000      	movs	r0, #0
 8001482:	2100      	movs	r1, #0
 8001484:	e883 0003 	stmia.w	r3, {r0, r1}
 8001488:	68a2      	ldr	r2, [r4, #8]
 800148a:	6860      	ldr	r0, [r4, #4]
 800148c:	3201      	adds	r2, #1
 800148e:	e880 0028 	stmia.w	r0, {r3, r5}
 8001492:	6063      	str	r3, [r4, #4]
 8001494:	60a2      	str	r2, [r4, #8]
 8001496:	bd30      	pop	{r4, r5, pc}

08001498 <list_cnext>:
 8001498:	680b      	ldr	r3, [r1, #0]
 800149a:	681a      	ldr	r2, [r3, #0]
 800149c:	b10a      	cbz	r2, 80014a2 <list_cnext+0xa>
 800149e:	4618      	mov	r0, r3
 80014a0:	4770      	bx	lr
 80014a2:	6803      	ldr	r3, [r0, #0]
 80014a4:	681b      	ldr	r3, [r3, #0]
 80014a6:	4618      	mov	r0, r3
 80014a8:	4770      	bx	lr
 80014aa:	bf00      	nop

080014ac <list_foreach>:
 80014ac:	6803      	ldr	r3, [r0, #0]
 80014ae:	b570      	push	{r4, r5, r6, lr}
 80014b0:	681c      	ldr	r4, [r3, #0]
 80014b2:	6823      	ldr	r3, [r4, #0]
 80014b4:	460e      	mov	r6, r1
 80014b6:	4615      	mov	r5, r2
 80014b8:	b91b      	cbnz	r3, 80014c2 <list_foreach+0x16>
 80014ba:	e008      	b.n	80014ce <list_foreach+0x22>
 80014bc:	6824      	ldr	r4, [r4, #0]
 80014be:	6823      	ldr	r3, [r4, #0]
 80014c0:	b12b      	cbz	r3, 80014ce <list_foreach+0x22>
 80014c2:	4620      	mov	r0, r4
 80014c4:	4629      	mov	r1, r5
 80014c6:	47b0      	blx	r6
 80014c8:	2800      	cmp	r0, #0
 80014ca:	d0f7      	beq.n	80014bc <list_foreach+0x10>
 80014cc:	bd70      	pop	{r4, r5, r6, pc}
 80014ce:	2000      	movs	r0, #0
 80014d0:	bd70      	pop	{r4, r5, r6, pc}
 80014d2:	bf00      	nop

080014d4 <main>:
 80014d4:	b530      	push	{r4, r5, lr}
 80014d6:	4d20      	ldr	r5, [pc, #128]	; (8001558 <main+0x84>)
 80014d8:	4c20      	ldr	r4, [pc, #128]	; (800155c <main+0x88>)
 80014da:	b081      	sub	sp, #4
 80014dc:	f7ff fd4c 	bl	8000f78 <_hardware_init>
 80014e0:	4a1f      	ldr	r2, [pc, #124]	; (8001560 <main+0x8c>)
 80014e2:	4920      	ldr	r1, [pc, #128]	; (8001564 <main+0x90>)
 80014e4:	4820      	ldr	r0, [pc, #128]	; (8001568 <main+0x94>)
 80014e6:	f7ff ff89 	bl	80013fc <ucx_printf>
 80014ea:	4629      	mov	r1, r5
 80014ec:	481f      	ldr	r0, [pc, #124]	; (800156c <main+0x98>)
 80014ee:	f000 f8cb 	bl	8001688 <ucx_heap_init>
 80014f2:	4629      	mov	r1, r5
 80014f4:	481e      	ldr	r0, [pc, #120]	; (8001570 <main+0x9c>)
 80014f6:	f7ff ff81 	bl	80013fc <ucx_printf>
 80014fa:	6825      	ldr	r5, [r4, #0]
 80014fc:	f7ff ff8e 	bl	800141c <list_create>
 8001500:	6823      	ldr	r3, [r4, #0]
 8001502:	6028      	str	r0, [r5, #0]
 8001504:	681b      	ldr	r3, [r3, #0]
 8001506:	b31b      	cbz	r3, 8001550 <main+0x7c>
 8001508:	f7fe fed4 	bl	80002b4 <app_main>
 800150c:	4b13      	ldr	r3, [pc, #76]	; (800155c <main+0x88>)
 800150e:	9000      	str	r0, [sp, #0]
 8001510:	6818      	ldr	r0, [r3, #0]
 8001512:	3008      	adds	r0, #8
 8001514:	f7fe fe38 	bl	8000188 <setjmp>
 8001518:	4c10      	ldr	r4, [pc, #64]	; (800155c <main+0x88>)
 800151a:	6823      	ldr	r3, [r4, #0]
 800151c:	681a      	ldr	r2, [r3, #0]
 800151e:	6891      	ldr	r1, [r2, #8]
 8001520:	b181      	cbz	r1, 8001544 <main+0x70>
 8001522:	9900      	ldr	r1, [sp, #0]
 8001524:	2900      	cmp	r1, #0
 8001526:	bf0c      	ite	eq
 8001528:	216e      	moveq	r1, #110	; 0x6e
 800152a:	2179      	movne	r1, #121	; 0x79
 800152c:	f883 1066 	strb.w	r1, [r3, #102]	; 0x66
 8001530:	6812      	ldr	r2, [r2, #0]
 8001532:	6812      	ldr	r2, [r2, #0]
 8001534:	605a      	str	r2, [r3, #4]
 8001536:	6850      	ldr	r0, [r2, #4]
 8001538:	3004      	adds	r0, #4
 800153a:	f7ff fdeb 	bl	8001114 <_dispatch_init>
 800153e:	2000      	movs	r0, #0
 8001540:	b001      	add	sp, #4
 8001542:	bd30      	pop	{r4, r5, pc}
 8001544:	480b      	ldr	r0, [pc, #44]	; (8001574 <main+0xa0>)
 8001546:	f000 fd6d 	bl	8002024 <krnl_panic>
 800154a:	6823      	ldr	r3, [r4, #0]
 800154c:	681a      	ldr	r2, [r3, #0]
 800154e:	e7e8      	b.n	8001522 <main+0x4e>
 8001550:	4809      	ldr	r0, [pc, #36]	; (8001578 <main+0xa4>)
 8001552:	f000 fd67 	bl	8002024 <krnl_panic>
 8001556:	e7d7      	b.n	8001508 <main+0x34>
 8001558:	0001cc48 	.word	0x0001cc48
 800155c:	20000068 	.word	0x20000068
 8001560:	080049a8 	.word	0x080049a8
 8001564:	080049c4 	.word	0x080049c4
 8001568:	080049cc 	.word	0x080049cc
 800156c:	200013b8 	.word	0x200013b8
 8001570:	080049e4 	.word	0x080049e4
 8001574:	ffffc001 	.word	0xffffc001
 8001578:	ffffc002 	.word	0xffffc002

0800157c <ucx_free>:
 800157c:	b530      	push	{r4, r5, lr}
 800157e:	4d13      	ldr	r5, [pc, #76]	; (80015cc <ucx_free+0x50>)
 8001580:	682b      	ldr	r3, [r5, #0]
 8001582:	f893 3066 	ldrb.w	r3, [r3, #102]	; 0x66
 8001586:	2b79      	cmp	r3, #121	; 0x79
 8001588:	4604      	mov	r4, r0
 800158a:	d00a      	beq.n	80015a2 <ucx_free+0x26>
 800158c:	f850 3c04 	ldr.w	r3, [r0, #-4]
 8001590:	490f      	ldr	r1, [pc, #60]	; (80015d0 <ucx_free+0x54>)
 8001592:	4a10      	ldr	r2, [pc, #64]	; (80015d4 <ucx_free+0x58>)
 8001594:	6809      	ldr	r1, [r1, #0]
 8001596:	f023 0301 	bic.w	r3, r3, #1
 800159a:	f840 3c04 	str.w	r3, [r0, #-4]
 800159e:	6011      	str	r1, [r2, #0]
 80015a0:	bd30      	pop	{r4, r5, pc}
 80015a2:	f7ff fda5 	bl	80010f0 <_di>
 80015a6:	682a      	ldr	r2, [r5, #0]
 80015a8:	f854 3c04 	ldr.w	r3, [r4, #-4]
 80015ac:	f892 2066 	ldrb.w	r2, [r2, #102]	; 0x66
 80015b0:	4807      	ldr	r0, [pc, #28]	; (80015d0 <ucx_free+0x54>)
 80015b2:	4908      	ldr	r1, [pc, #32]	; (80015d4 <ucx_free+0x58>)
 80015b4:	6800      	ldr	r0, [r0, #0]
 80015b6:	f023 0301 	bic.w	r3, r3, #1
 80015ba:	2a79      	cmp	r2, #121	; 0x79
 80015bc:	f844 3c04 	str.w	r3, [r4, #-4]
 80015c0:	6008      	str	r0, [r1, #0]
 80015c2:	d1ed      	bne.n	80015a0 <ucx_free+0x24>
 80015c4:	e8bd 4030 	ldmia.w	sp!, {r4, r5, lr}
 80015c8:	f7ff bd94 	b.w	80010f4 <_ei>
 80015cc:	20000068 	.word	0x20000068
 80015d0:	200002dc 	.word	0x200002dc
 80015d4:	200002d8 	.word	0x200002d8

080015d8 <ucx_malloc>:
 80015d8:	b5f0      	push	{r4, r5, r6, r7, lr}
 80015da:	4c29      	ldr	r4, [pc, #164]	; (8001680 <ucx_malloc+0xa8>)
 80015dc:	6823      	ldr	r3, [r4, #0]
 80015de:	f893 e066 	ldrb.w	lr, [r3, #102]	; 0x66
 80015e2:	1cc6      	adds	r6, r0, #3
 80015e4:	f1be 0f79 	cmp.w	lr, #121	; 0x79
 80015e8:	b081      	sub	sp, #4
 80015ea:	f026 0603 	bic.w	r6, r6, #3
 80015ee:	d035      	beq.n	800165c <ucx_malloc+0x84>
 80015f0:	4f24      	ldr	r7, [pc, #144]	; (8001684 <ucx_malloc+0xac>)
 80015f2:	6839      	ldr	r1, [r7, #0]
 80015f4:	f06f 0507 	mvn.w	r5, #7
 80015f8:	460c      	mov	r4, r1
 80015fa:	f106 0c08 	add.w	ip, r6, #8
 80015fe:	6808      	ldr	r0, [r1, #0]
 8001600:	2800      	cmp	r0, #0
 8001602:	d034      	beq.n	800166e <ucx_malloc+0x96>
 8001604:	684b      	ldr	r3, [r1, #4]
 8001606:	f013 0301 	ands.w	r3, r3, #1
 800160a:	d101      	bne.n	8001610 <ucx_malloc+0x38>
 800160c:	e006      	b.n	800161c <ucx_malloc+0x44>
 800160e:	6800      	ldr	r0, [r0, #0]
 8001610:	6843      	ldr	r3, [r0, #4]
 8001612:	f013 0301 	ands.w	r3, r3, #1
 8001616:	d1fa      	bne.n	800160e <ucx_malloc+0x36>
 8001618:	4604      	mov	r4, r0
 800161a:	4601      	mov	r1, r0
 800161c:	b93b      	cbnz	r3, 800162e <ucx_malloc+0x56>
 800161e:	680a      	ldr	r2, [r1, #0]
 8001620:	b12a      	cbz	r2, 800162e <ucx_malloc+0x56>
 8001622:	6853      	ldr	r3, [r2, #4]
 8001624:	f003 0301 	and.w	r3, r3, #1
 8001628:	4611      	mov	r1, r2
 800162a:	2b00      	cmp	r3, #0
 800162c:	d0f7      	beq.n	800161e <ucx_malloc+0x46>
 800162e:	1b2b      	subs	r3, r5, r4
 8001630:	440b      	add	r3, r1
 8001632:	4563      	cmp	r3, ip
 8001634:	e884 000a 	stmia.w	r4, {r1, r3}
 8001638:	d3e1      	bcc.n	80015fe <ucx_malloc+0x26>
 800163a:	eb04 030c 	add.w	r3, r4, ip
 800163e:	f046 0601 	orr.w	r6, r6, #1
 8001642:	f1be 0f79 	cmp.w	lr, #121	; 0x79
 8001646:	603c      	str	r4, [r7, #0]
 8001648:	6066      	str	r6, [r4, #4]
 800164a:	6023      	str	r3, [r4, #0]
 800164c:	f844 100c 	str.w	r1, [r4, ip]
 8001650:	605d      	str	r5, [r3, #4]
 8001652:	d009      	beq.n	8001668 <ucx_malloc+0x90>
 8001654:	f104 0008 	add.w	r0, r4, #8
 8001658:	b001      	add	sp, #4
 800165a:	bdf0      	pop	{r4, r5, r6, r7, pc}
 800165c:	f7ff fd48 	bl	80010f0 <_di>
 8001660:	6823      	ldr	r3, [r4, #0]
 8001662:	f893 e066 	ldrb.w	lr, [r3, #102]	; 0x66
 8001666:	e7c3      	b.n	80015f0 <ucx_malloc+0x18>
 8001668:	f7ff fd44 	bl	80010f4 <_ei>
 800166c:	e7f2      	b.n	8001654 <ucx_malloc+0x7c>
 800166e:	f1be 0f79 	cmp.w	lr, #121	; 0x79
 8001672:	d1f1      	bne.n	8001658 <ucx_malloc+0x80>
 8001674:	9000      	str	r0, [sp, #0]
 8001676:	f7ff fd3d 	bl	80010f4 <_ei>
 800167a:	9800      	ldr	r0, [sp, #0]
 800167c:	e7ec      	b.n	8001658 <ucx_malloc+0x80>
 800167e:	bf00      	nop
 8001680:	20000068 	.word	0x20000068
 8001684:	200002d8 	.word	0x200002d8

08001688 <ucx_heap_init>:
 8001688:	f1a1 0c08 	sub.w	ip, r1, #8
 800168c:	3103      	adds	r1, #3
 800168e:	f021 0103 	bic.w	r1, r1, #3
 8001692:	3910      	subs	r1, #16
 8001694:	b410      	push	{r4}
 8001696:	6041      	str	r1, [r0, #4]
 8001698:	4c06      	ldr	r4, [pc, #24]	; (80016b4 <ucx_heap_init+0x2c>)
 800169a:	4907      	ldr	r1, [pc, #28]	; (80016b8 <ucx_heap_init+0x30>)
 800169c:	eb00 030c 	add.w	r3, r0, ip
 80016a0:	2200      	movs	r2, #0
 80016a2:	6003      	str	r3, [r0, #0]
 80016a4:	f840 200c 	str.w	r2, [r0, ip]
 80016a8:	6020      	str	r0, [r4, #0]
 80016aa:	605a      	str	r2, [r3, #4]
 80016ac:	bc10      	pop	{r4}
 80016ae:	6008      	str	r0, [r1, #0]
 80016b0:	4770      	bx	lr
 80016b2:	bf00      	nop
 80016b4:	200002dc 	.word	0x200002dc
 80016b8:	200002d8 	.word	0x200002d8

080016bc <NVIC_PriorityGroupConfig>:
 80016bc:	4b03      	ldr	r3, [pc, #12]	; (80016cc <NVIC_PriorityGroupConfig+0x10>)
 80016be:	f040 60bf 	orr.w	r0, r0, #100139008	; 0x5f80000
 80016c2:	f440 3000 	orr.w	r0, r0, #131072	; 0x20000
 80016c6:	60d8      	str	r0, [r3, #12]
 80016c8:	4770      	bx	lr
 80016ca:	bf00      	nop
 80016cc:	e000ed00 	.word	0xe000ed00

080016d0 <NVIC_Init>:
 80016d0:	6843      	ldr	r3, [r0, #4]
 80016d2:	b323      	cbz	r3, 800171e <NVIC_Init+0x4e>
 80016d4:	4b18      	ldr	r3, [pc, #96]	; (8001738 <NVIC_Init+0x68>)
 80016d6:	7841      	ldrb	r1, [r0, #1]
 80016d8:	68da      	ldr	r2, [r3, #12]
 80016da:	7883      	ldrb	r3, [r0, #2]
 80016dc:	43d2      	mvns	r2, r2
 80016de:	f3c2 2202 	ubfx	r2, r2, #8, #3
 80016e2:	f1c2 0c04 	rsb	ip, r2, #4
 80016e6:	fa5f fc8c 	uxtb.w	ip, ip
 80016ea:	fa01 f10c 	lsl.w	r1, r1, ip
 80016ee:	f04f 0c0f 	mov.w	ip, #15
 80016f2:	fa4c fc02 	asr.w	ip, ip, r2
 80016f6:	b2c9      	uxtb	r1, r1
 80016f8:	7802      	ldrb	r2, [r0, #0]
 80016fa:	4810      	ldr	r0, [pc, #64]	; (800173c <NVIC_Init+0x6c>)
 80016fc:	ea03 030c 	and.w	r3, r3, ip
 8001700:	430b      	orrs	r3, r1
 8001702:	eb00 0c02 	add.w	ip, r0, r2
 8001706:	011b      	lsls	r3, r3, #4
 8001708:	b2db      	uxtb	r3, r3
 800170a:	0951      	lsrs	r1, r2, #5
 800170c:	f88c 3300 	strb.w	r3, [ip, #768]	; 0x300
 8001710:	f002 021f 	and.w	r2, r2, #31
 8001714:	2301      	movs	r3, #1
 8001716:	4093      	lsls	r3, r2
 8001718:	f840 3021 	str.w	r3, [r0, r1, lsl #2]
 800171c:	4770      	bx	lr
 800171e:	7803      	ldrb	r3, [r0, #0]
 8001720:	4806      	ldr	r0, [pc, #24]	; (800173c <NVIC_Init+0x6c>)
 8001722:	095a      	lsrs	r2, r3, #5
 8001724:	2101      	movs	r1, #1
 8001726:	f003 031f 	and.w	r3, r3, #31
 800172a:	3220      	adds	r2, #32
 800172c:	fa01 f303 	lsl.w	r3, r1, r3
 8001730:	f840 3022 	str.w	r3, [r0, r2, lsl #2]
 8001734:	4770      	bx	lr
 8001736:	bf00      	nop
 8001738:	e000ed00 	.word	0xe000ed00
 800173c:	e000e100 	.word	0xe000e100

08001740 <slb_driver_init>:
 8001740:	b530      	push	{r4, r5, lr}
 8001742:	6885      	ldr	r5, [r0, #8]
 8001744:	6844      	ldr	r4, [r0, #4]
 8001746:	2300      	movs	r3, #0
 8001748:	802b      	strh	r3, [r5, #0]
 800174a:	68e3      	ldr	r3, [r4, #12]
 800174c:	4798      	blx	r3
 800174e:	2800      	cmp	r0, #0
 8001750:	db0a      	blt.n	8001768 <slb_driver_init+0x28>
 8001752:	7923      	ldrb	r3, [r4, #4]
 8001754:	b14b      	cbz	r3, 800176a <slb_driver_init+0x2a>
 8001756:	2b01      	cmp	r3, #1
 8001758:	d10b      	bne.n	8001772 <slb_driver_init+0x32>
 800175a:	6923      	ldr	r3, [r4, #16]
 800175c:	f04f 30ff 	mov.w	r0, #4294967295	; 0xffffffff
 8001760:	4798      	blx	r3
 8001762:	2301      	movs	r3, #1
 8001764:	702b      	strb	r3, [r5, #0]
 8001766:	2000      	movs	r0, #0
 8001768:	bd30      	pop	{r4, r5, pc}
 800176a:	6923      	ldr	r3, [r4, #16]
 800176c:	2001      	movs	r0, #1
 800176e:	4798      	blx	r3
 8001770:	e7f7      	b.n	8001762 <slb_driver_init+0x22>
 8001772:	f04f 30ff 	mov.w	r0, #4294967295	; 0xffffffff
 8001776:	bd30      	pop	{r4, r5, pc}

08001778 <slb_driver_close>:
 8001778:	b530      	push	{r4, r5, lr}
 800177a:	6884      	ldr	r4, [r0, #8]
 800177c:	7823      	ldrb	r3, [r4, #0]
 800177e:	b1ab      	cbz	r3, 80017ac <slb_driver_close+0x34>
 8001780:	4d0c      	ldr	r5, [pc, #48]	; (80017b4 <slb_driver_close+0x3c>)
 8001782:	682b      	ldr	r3, [r5, #0]
 8001784:	f893 3066 	ldrb.w	r3, [r3, #102]	; 0x66
 8001788:	2b79      	cmp	r3, #121	; 0x79
 800178a:	d003      	beq.n	8001794 <slb_driver_close+0x1c>
 800178c:	2300      	movs	r3, #0
 800178e:	7063      	strb	r3, [r4, #1]
 8001790:	2000      	movs	r0, #0
 8001792:	bd30      	pop	{r4, r5, pc}
 8001794:	f7ff fcac 	bl	80010f0 <_di>
 8001798:	682b      	ldr	r3, [r5, #0]
 800179a:	f893 3066 	ldrb.w	r3, [r3, #102]	; 0x66
 800179e:	2200      	movs	r2, #0
 80017a0:	2b79      	cmp	r3, #121	; 0x79
 80017a2:	7062      	strb	r2, [r4, #1]
 80017a4:	d1f4      	bne.n	8001790 <slb_driver_close+0x18>
 80017a6:	f7ff fca5 	bl	80010f4 <_ei>
 80017aa:	e7f1      	b.n	8001790 <slb_driver_close+0x18>
 80017ac:	f04f 30ff 	mov.w	r0, #4294967295	; 0xffffffff
 80017b0:	bd30      	pop	{r4, r5, pc}
 80017b2:	bf00      	nop
 80017b4:	20000068 	.word	0x20000068

080017b8 <slb_driver_open>:
 80017b8:	b570      	push	{r4, r5, r6, lr}
 80017ba:	6886      	ldr	r6, [r0, #8]
 80017bc:	7833      	ldrb	r3, [r6, #0]
 80017be:	b081      	sub	sp, #4
 80017c0:	460d      	mov	r5, r1
 80017c2:	b323      	cbz	r3, 800180e <slb_driver_open+0x56>
 80017c4:	4c13      	ldr	r4, [pc, #76]	; (8001814 <slb_driver_open+0x5c>)
 80017c6:	6823      	ldr	r3, [r4, #0]
 80017c8:	f893 3066 	ldrb.w	r3, [r3, #102]	; 0x66
 80017cc:	2b79      	cmp	r3, #121	; 0x79
 80017ce:	d009      	beq.n	80017e4 <slb_driver_open+0x2c>
 80017d0:	7870      	ldrb	r0, [r6, #1]
 80017d2:	b920      	cbnz	r0, 80017de <slb_driver_open+0x26>
 80017d4:	2301      	movs	r3, #1
 80017d6:	7073      	strb	r3, [r6, #1]
 80017d8:	b9cd      	cbnz	r5, 800180e <slb_driver_open+0x56>
 80017da:	b001      	add	sp, #4
 80017dc:	bd70      	pop	{r4, r5, r6, pc}
 80017de:	f04f 30ff 	mov.w	r0, #4294967295	; 0xffffffff
 80017e2:	e7f9      	b.n	80017d8 <slb_driver_open+0x20>
 80017e4:	f7ff fc84 	bl	80010f0 <_di>
 80017e8:	7870      	ldrb	r0, [r6, #1]
 80017ea:	6823      	ldr	r3, [r4, #0]
 80017ec:	b150      	cbz	r0, 8001804 <slb_driver_open+0x4c>
 80017ee:	f893 3066 	ldrb.w	r3, [r3, #102]	; 0x66
 80017f2:	f04f 30ff 	mov.w	r0, #4294967295	; 0xffffffff
 80017f6:	2b79      	cmp	r3, #121	; 0x79
 80017f8:	d1ee      	bne.n	80017d8 <slb_driver_open+0x20>
 80017fa:	9000      	str	r0, [sp, #0]
 80017fc:	f7ff fc7a 	bl	80010f4 <_ei>
 8001800:	9800      	ldr	r0, [sp, #0]
 8001802:	e7e9      	b.n	80017d8 <slb_driver_open+0x20>
 8001804:	2201      	movs	r2, #1
 8001806:	f893 3066 	ldrb.w	r3, [r3, #102]	; 0x66
 800180a:	7072      	strb	r2, [r6, #1]
 800180c:	e7f3      	b.n	80017f6 <slb_driver_open+0x3e>
 800180e:	f04f 30ff 	mov.w	r0, #4294967295	; 0xffffffff
 8001812:	e7e2      	b.n	80017da <slb_driver_open+0x22>
 8001814:	20000068 	.word	0x20000068

08001818 <slb_driver_read>:
 8001818:	e92d 4ff0 	stmdb	sp!, {r4, r5, r6, r7, r8, r9, sl, fp, lr}
 800181c:	6883      	ldr	r3, [r0, #8]
 800181e:	4681      	mov	r9, r0
 8001820:	7818      	ldrb	r0, [r3, #0]
 8001822:	f8d9 6004 	ldr.w	r6, [r9, #4]
 8001826:	b086      	sub	sp, #24
 8001828:	4690      	mov	r8, r2
 800182a:	2800      	cmp	r0, #0
 800182c:	f000 80b0 	beq.w	8001990 <slb_driver_read+0x178>
 8001830:	f102 0a01 	add.w	sl, r2, #1
 8001834:	1e4a      	subs	r2, r1, #1
 8001836:	9205      	str	r2, [sp, #20]
 8001838:	9603      	str	r6, [sp, #12]
 800183a:	f8cd a008 	str.w	sl, [sp, #8]
 800183e:	9104      	str	r1, [sp, #16]
 8001840:	46c3      	mov	fp, r8
 8001842:	4b69      	ldr	r3, [pc, #420]	; (80019e8 <slb_driver_read+0x1d0>)
 8001844:	681b      	ldr	r3, [r3, #0]
 8001846:	f893 3066 	ldrb.w	r3, [r3, #102]	; 0x66
 800184a:	2b79      	cmp	r3, #121	; 0x79
 800184c:	f000 80a6 	beq.w	800199c <slb_driver_read+0x184>
 8001850:	9e03      	ldr	r6, [sp, #12]
 8001852:	6933      	ldr	r3, [r6, #16]
 8001854:	f04f 30ff 	mov.w	r0, #4294967295	; 0xffffffff
 8001858:	4798      	blx	r3
 800185a:	2800      	cmp	r0, #0
 800185c:	d1f9      	bne.n	8001852 <slb_driver_read+0x3a>
 800185e:	f7ff fb27 	bl	8000eb0 <_read_us>
 8001862:	9e03      	ldr	r6, [sp, #12]
 8001864:	4604      	mov	r4, r0
 8001866:	460f      	mov	r7, r1
 8001868:	6933      	ldr	r3, [r6, #16]
 800186a:	f04f 30ff 	mov.w	r0, #4294967295	; 0xffffffff
 800186e:	4798      	blx	r3
 8001870:	2800      	cmp	r0, #0
 8001872:	d0f9      	beq.n	8001868 <slb_driver_read+0x50>
 8001874:	f7ff fb1c 	bl	8000eb0 <_read_us>
 8001878:	1b00      	subs	r0, r0, r4
 800187a:	eb61 0207 	sbc.w	r2, r1, r7
 800187e:	f5b0 7f16 	cmp.w	r0, #600	; 0x258
 8001882:	f172 0300 	sbcs.w	r3, r2, #0
 8001886:	f0c0 808d 	bcc.w	80019a4 <slb_driver_read+0x18c>
 800188a:	f7ff fb11 	bl	8000eb0 <_read_us>
 800188e:	9e03      	ldr	r6, [sp, #12]
 8001890:	4604      	mov	r4, r0
 8001892:	4688      	mov	r8, r1
 8001894:	6933      	ldr	r3, [r6, #16]
 8001896:	f04f 30ff 	mov.w	r0, #4294967295	; 0xffffffff
 800189a:	4798      	blx	r3
 800189c:	2800      	cmp	r0, #0
 800189e:	d1f9      	bne.n	8001894 <slb_driver_read+0x7c>
 80018a0:	4607      	mov	r7, r0
 80018a2:	f7ff fb05 	bl	8000eb0 <_read_us>
 80018a6:	1b00      	subs	r0, r0, r4
 80018a8:	eb61 0108 	sbc.w	r1, r1, r8
 80018ac:	285a      	cmp	r0, #90	; 0x5a
 80018ae:	f171 0100 	sbcs.w	r1, r1, #0
 80018b2:	f0c0 8081 	bcc.w	80019b8 <slb_driver_read+0x1a0>
 80018b6:	f1bb 3fff 	cmp.w	fp, #4294967295	; 0xffffffff
 80018ba:	f000 808a 	beq.w	80019d2 <slb_driver_read+0x1ba>
 80018be:	9b05      	ldr	r3, [sp, #20]
 80018c0:	463a      	mov	r2, r7
 80018c2:	2708      	movs	r7, #8
 80018c4:	2400      	movs	r4, #0
 80018c6:	9301      	str	r3, [sp, #4]
 80018c8:	46ba      	mov	sl, r7
 80018ca:	9200      	str	r2, [sp, #0]
 80018cc:	f8d9 7004 	ldr.w	r7, [r9, #4]
 80018d0:	693b      	ldr	r3, [r7, #16]
 80018d2:	f04f 30ff 	mov.w	r0, #4294967295	; 0xffffffff
 80018d6:	4798      	blx	r3
 80018d8:	2800      	cmp	r0, #0
 80018da:	d0f9      	beq.n	80018d0 <slb_driver_read+0xb8>
 80018dc:	f7ff fae8 	bl	8000eb0 <_read_us>
 80018e0:	4605      	mov	r5, r0
 80018e2:	4688      	mov	r8, r1
 80018e4:	e002      	b.n	80018ec <slb_driver_read+0xd4>
 80018e6:	693b      	ldr	r3, [r7, #16]
 80018e8:	4798      	blx	r3
 80018ea:	b150      	cbz	r0, 8001902 <slb_driver_read+0xea>
 80018ec:	f7ff fae0 	bl	8000eb0 <_read_us>
 80018f0:	1b46      	subs	r6, r0, r5
 80018f2:	eb61 0108 	sbc.w	r1, r1, r8
 80018f6:	2e65      	cmp	r6, #101	; 0x65
 80018f8:	f171 0100 	sbcs.w	r1, r1, #0
 80018fc:	f04f 30ff 	mov.w	r0, #4294967295	; 0xffffffff
 8001900:	d3f1      	bcc.n	80018e6 <slb_driver_read+0xce>
 8001902:	2e50      	cmp	r6, #80	; 0x50
 8001904:	dc41      	bgt.n	800198a <slb_driver_read+0x172>
 8001906:	2e28      	cmp	r6, #40	; 0x28
 8001908:	bfd4      	ite	le
 800190a:	2000      	movle	r0, #0
 800190c:	2001      	movgt	r0, #1
 800190e:	ea40 0044 	orr.w	r0, r0, r4, lsl #1
 8001912:	f1ba 0a01 	subs.w	sl, sl, #1
 8001916:	b2c4      	uxtb	r4, r0
 8001918:	d1d8      	bne.n	80018cc <slb_driver_read+0xb4>
 800191a:	e89d 000c 	ldmia.w	sp, {r2, r3}
 800191e:	9902      	ldr	r1, [sp, #8]
 8001920:	f803 4f01 	strb.w	r4, [r3, #1]!
 8001924:	3201      	adds	r2, #1
 8001926:	4291      	cmp	r1, r2
 8001928:	d1cb      	bne.n	80018c2 <slb_driver_read+0xaa>
 800192a:	4617      	mov	r7, r2
 800192c:	460c      	mov	r4, r1
 800192e:	2f01      	cmp	r7, #1
 8001930:	dd55      	ble.n	80019de <slb_driver_read+0x1c6>
 8001932:	9a03      	ldr	r2, [sp, #12]
 8001934:	9b04      	ldr	r3, [sp, #16]
 8001936:	7951      	ldrb	r1, [r2, #5]
 8001938:	781b      	ldrb	r3, [r3, #0]
 800193a:	ebb1 0f53 	cmp.w	r1, r3, lsr #1
 800193e:	ea4f 0253 	mov.w	r2, r3, lsr #1
 8001942:	d134      	bne.n	80019ae <slb_driver_read+0x196>
 8001944:	463d      	mov	r5, r7
 8001946:	461f      	mov	r7, r3
 8001948:	9b04      	ldr	r3, [sp, #16]
 800194a:	46d8      	mov	r8, fp
 800194c:	f1b8 0f00 	cmp.w	r8, #0
 8001950:	d00a      	beq.n	8001968 <slb_driver_read+0x150>
 8001952:	f108 30ff 	add.w	r0, r8, #4294967295	; 0xffffffff
 8001956:	9a05      	ldr	r2, [sp, #20]
 8001958:	4418      	add	r0, r3
 800195a:	f04f 0800 	mov.w	r8, #0
 800195e:	f812 1f01 	ldrb.w	r1, [r2, #1]!
 8001962:	4282      	cmp	r2, r0
 8001964:	4488      	add	r8, r1
 8001966:	d1fa      	bne.n	800195e <slb_driver_read+0x146>
 8001968:	07fa      	lsls	r2, r7, #31
 800196a:	d529      	bpl.n	80019c0 <slb_driver_read+0x1a8>
 800196c:	5d5b      	ldrb	r3, [r3, r5]
 800196e:	fa5f f888 	uxtb.w	r8, r8
 8001972:	4543      	cmp	r3, r8
 8001974:	d10c      	bne.n	8001990 <slb_driver_read+0x178>
 8001976:	4b1c      	ldr	r3, [pc, #112]	; (80019e8 <slb_driver_read+0x1d0>)
 8001978:	681b      	ldr	r3, [r3, #0]
 800197a:	f893 3066 	ldrb.w	r3, [r3, #102]	; 0x66
 800197e:	2b79      	cmp	r3, #121	; 0x79
 8001980:	d024      	beq.n	80019cc <slb_driver_read+0x1b4>
 8001982:	4620      	mov	r0, r4
 8001984:	b006      	add	sp, #24
 8001986:	e8bd 8ff0 	ldmia.w	sp!, {r4, r5, r6, r7, r8, r9, sl, fp, pc}
 800198a:	9f00      	ldr	r7, [sp, #0]
 800198c:	463c      	mov	r4, r7
 800198e:	e7ce      	b.n	800192e <slb_driver_read+0x116>
 8001990:	f04f 34ff 	mov.w	r4, #4294967295	; 0xffffffff
 8001994:	4620      	mov	r0, r4
 8001996:	b006      	add	sp, #24
 8001998:	e8bd 8ff0 	ldmia.w	sp!, {r4, r5, r6, r7, r8, r9, sl, fp, pc}
 800199c:	f7ff fbb4 	bl	8001108 <_timer_disable>
 80019a0:	9e03      	ldr	r6, [sp, #12]
 80019a2:	e756      	b.n	8001852 <slb_driver_read+0x3a>
 80019a4:	4601      	mov	r1, r0
 80019a6:	4811      	ldr	r0, [pc, #68]	; (80019ec <slb_driver_read+0x1d4>)
 80019a8:	f7ff fd28 	bl	80013fc <ucx_printf>
 80019ac:	e749      	b.n	8001842 <slb_driver_read+0x2a>
 80019ae:	4639      	mov	r1, r7
 80019b0:	480f      	ldr	r0, [pc, #60]	; (80019f0 <slb_driver_read+0x1d8>)
 80019b2:	f7ff fd23 	bl	80013fc <ucx_printf>
 80019b6:	e744      	b.n	8001842 <slb_driver_read+0x2a>
 80019b8:	480e      	ldr	r0, [pc, #56]	; (80019f4 <slb_driver_read+0x1dc>)
 80019ba:	f7ff fd1f 	bl	80013fc <ucx_printf>
 80019be:	e740      	b.n	8001842 <slb_driver_read+0x2a>
 80019c0:	f06f 0401 	mvn.w	r4, #1
 80019c4:	4620      	mov	r0, r4
 80019c6:	b006      	add	sp, #24
 80019c8:	e8bd 8ff0 	ldmia.w	sp!, {r4, r5, r6, r7, r8, r9, sl, fp, pc}
 80019cc:	f7ff fb96 	bl	80010fc <_timer_enable>
 80019d0:	e7d7      	b.n	8001982 <slb_driver_read+0x16a>
 80019d2:	9b04      	ldr	r3, [sp, #16]
 80019d4:	463d      	mov	r5, r7
 80019d6:	46d8      	mov	r8, fp
 80019d8:	781f      	ldrb	r7, [r3, #0]
 80019da:	462c      	mov	r4, r5
 80019dc:	e7b9      	b.n	8001952 <slb_driver_read+0x13a>
 80019de:	9b04      	ldr	r3, [sp, #16]
 80019e0:	463d      	mov	r5, r7
 80019e2:	46d8      	mov	r8, fp
 80019e4:	781f      	ldrb	r7, [r3, #0]
 80019e6:	e7b1      	b.n	800194c <slb_driver_read+0x134>
 80019e8:	20000068 	.word	0x20000068
 80019ec:	08004a00 	.word	0x08004a00
 80019f0:	08004a14 	.word	0x08004a14
 80019f4:	08004a0c 	.word	0x08004a0c

080019f8 <slb_master_transfer.isra.0>:
 80019f8:	b570      	push	{r4, r5, r6, lr}
 80019fa:	4605      	mov	r5, r0
 80019fc:	460c      	mov	r4, r1
 80019fe:	2608      	movs	r6, #8
 8001a00:	692b      	ldr	r3, [r5, #16]
 8001a02:	2000      	movs	r0, #0
 8001a04:	4798      	blx	r3
 8001a06:	6828      	ldr	r0, [r5, #0]
 8001a08:	f7ff f9f6 	bl	8000df8 <_delay_us>
 8001a0c:	692b      	ldr	r3, [r5, #16]
 8001a0e:	2001      	movs	r0, #1
 8001a10:	4798      	blx	r3
 8001a12:	6828      	ldr	r0, [r5, #0]
 8001a14:	0623      	lsls	r3, r4, #24
 8001a16:	bf48      	it	mi
 8001a18:	0040      	lslmi	r0, r0, #1
 8001a1a:	f7ff f9ed 	bl	8000df8 <_delay_us>
 8001a1e:	0064      	lsls	r4, r4, #1
 8001a20:	3e01      	subs	r6, #1
 8001a22:	b2e4      	uxtb	r4, r4
 8001a24:	d1ec      	bne.n	8001a00 <slb_master_transfer.isra.0+0x8>
 8001a26:	bd70      	pop	{r4, r5, r6, pc}

08001a28 <slb_driver_write>:
 8001a28:	e92d 4ff0 	stmdb	sp!, {r4, r5, r6, r7, r8, r9, sl, fp, lr}
 8001a2c:	6883      	ldr	r3, [r0, #8]
 8001a2e:	781b      	ldrb	r3, [r3, #0]
 8001a30:	4606      	mov	r6, r0
 8001a32:	468b      	mov	fp, r1
 8001a34:	4690      	mov	r8, r2
 8001a36:	2b00      	cmp	r3, #0
 8001a38:	d049      	beq.n	8001ace <slb_driver_write+0xa6>
 8001a3a:	f8d0 9004 	ldr.w	r9, [r0, #4]
 8001a3e:	2a00      	cmp	r2, #0
 8001a40:	d066      	beq.n	8001b10 <slb_driver_write+0xe8>
 8001a42:	1e4c      	subs	r4, r1, #1
 8001a44:	1e57      	subs	r7, r2, #1
 8001a46:	4623      	mov	r3, r4
 8001a48:	4439      	add	r1, r7
 8001a4a:	2500      	movs	r5, #0
 8001a4c:	f813 2f01 	ldrb.w	r2, [r3, #1]!
 8001a50:	4299      	cmp	r1, r3
 8001a52:	4415      	add	r5, r2
 8001a54:	d1fa      	bne.n	8001a4c <slb_driver_write+0x24>
 8001a56:	f8df a0ec 	ldr.w	sl, [pc, #236]	; 8001b44 <slb_driver_write+0x11c>
 8001a5a:	f8da 3000 	ldr.w	r3, [sl]
 8001a5e:	f893 3066 	ldrb.w	r3, [r3, #102]	; 0x66
 8001a62:	2b79      	cmp	r3, #121	; 0x79
 8001a64:	b2ed      	uxtb	r5, r5
 8001a66:	d03a      	beq.n	8001ade <slb_driver_write+0xb6>
 8001a68:	f8d9 3010 	ldr.w	r3, [r9, #16]
 8001a6c:	2000      	movs	r0, #0
 8001a6e:	4798      	blx	r3
 8001a70:	f44f 7061 	mov.w	r0, #900	; 0x384
 8001a74:	f7ff f9c0 	bl	8000df8 <_delay_us>
 8001a78:	f8d9 3010 	ldr.w	r3, [r9, #16]
 8001a7c:	2001      	movs	r0, #1
 8001a7e:	4798      	blx	r3
 8001a80:	2064      	movs	r0, #100	; 0x64
 8001a82:	f7ff f9b9 	bl	8000df8 <_delay_us>
 8001a86:	445f      	add	r7, fp
 8001a88:	f814 1f01 	ldrb.w	r1, [r4, #1]!
 8001a8c:	6870      	ldr	r0, [r6, #4]
 8001a8e:	f7ff ffb3 	bl	80019f8 <slb_master_transfer.isra.0>
 8001a92:	42a7      	cmp	r7, r4
 8001a94:	d1f8      	bne.n	8001a88 <slb_driver_write+0x60>
 8001a96:	4629      	mov	r1, r5
 8001a98:	6870      	ldr	r0, [r6, #4]
 8001a9a:	f7ff ffad 	bl	80019f8 <slb_master_transfer.isra.0>
 8001a9e:	f8d9 3010 	ldr.w	r3, [r9, #16]
 8001aa2:	2000      	movs	r0, #0
 8001aa4:	4798      	blx	r3
 8001aa6:	f8d9 0000 	ldr.w	r0, [r9]
 8001aaa:	f7ff f9a5 	bl	8000df8 <_delay_us>
 8001aae:	f8d9 3010 	ldr.w	r3, [r9, #16]
 8001ab2:	2001      	movs	r0, #1
 8001ab4:	4798      	blx	r3
 8001ab6:	2064      	movs	r0, #100	; 0x64
 8001ab8:	f7ff f99e 	bl	8000df8 <_delay_us>
 8001abc:	f8da 3000 	ldr.w	r3, [sl]
 8001ac0:	f893 3066 	ldrb.w	r3, [r3, #102]	; 0x66
 8001ac4:	2b79      	cmp	r3, #121	; 0x79
 8001ac6:	d006      	beq.n	8001ad6 <slb_driver_write+0xae>
 8001ac8:	4640      	mov	r0, r8
 8001aca:	e8bd 8ff0 	ldmia.w	sp!, {r4, r5, r6, r7, r8, r9, sl, fp, pc}
 8001ace:	f04f 30ff 	mov.w	r0, #4294967295	; 0xffffffff
 8001ad2:	e8bd 8ff0 	ldmia.w	sp!, {r4, r5, r6, r7, r8, r9, sl, fp, pc}
 8001ad6:	f7ff fb11 	bl	80010fc <_timer_enable>
 8001ada:	e7f5      	b.n	8001ac8 <slb_driver_write+0xa0>
 8001adc:	4645      	mov	r5, r8
 8001ade:	f7ff fb13 	bl	8001108 <_timer_disable>
 8001ae2:	f8d9 3010 	ldr.w	r3, [r9, #16]
 8001ae6:	2000      	movs	r0, #0
 8001ae8:	4798      	blx	r3
 8001aea:	f44f 7061 	mov.w	r0, #900	; 0x384
 8001aee:	f7ff f983 	bl	8000df8 <_delay_us>
 8001af2:	f8d9 3010 	ldr.w	r3, [r9, #16]
 8001af6:	2001      	movs	r0, #1
 8001af8:	4798      	blx	r3
 8001afa:	2064      	movs	r0, #100	; 0x64
 8001afc:	f7ff f97c 	bl	8000df8 <_delay_us>
 8001b00:	f1b8 0f00 	cmp.w	r8, #0
 8001b04:	d0c7      	beq.n	8001a96 <slb_driver_write+0x6e>
 8001b06:	f10b 34ff 	add.w	r4, fp, #4294967295	; 0xffffffff
 8001b0a:	f108 37ff 	add.w	r7, r8, #4294967295	; 0xffffffff
 8001b0e:	e7ba      	b.n	8001a86 <slb_driver_write+0x5e>
 8001b10:	f8df a030 	ldr.w	sl, [pc, #48]	; 8001b44 <slb_driver_write+0x11c>
 8001b14:	f8da 3000 	ldr.w	r3, [sl]
 8001b18:	f893 3066 	ldrb.w	r3, [r3, #102]	; 0x66
 8001b1c:	2b79      	cmp	r3, #121	; 0x79
 8001b1e:	d0dd      	beq.n	8001adc <slb_driver_write+0xb4>
 8001b20:	f8d9 3010 	ldr.w	r3, [r9, #16]
 8001b24:	4640      	mov	r0, r8
 8001b26:	4798      	blx	r3
 8001b28:	f44f 7061 	mov.w	r0, #900	; 0x384
 8001b2c:	f7ff f964 	bl	8000df8 <_delay_us>
 8001b30:	f8d9 3010 	ldr.w	r3, [r9, #16]
 8001b34:	2001      	movs	r0, #1
 8001b36:	4798      	blx	r3
 8001b38:	2064      	movs	r0, #100	; 0x64
 8001b3a:	f7ff f95d 	bl	8000df8 <_delay_us>
 8001b3e:	4645      	mov	r5, r8
 8001b40:	e7a9      	b.n	8001a96 <slb_driver_write+0x6e>
 8001b42:	bf00      	nop
 8001b44:	20000068 	.word	0x20000068

08001b48 <EXTI_Init>:
 8001b48:	68c3      	ldr	r3, [r0, #12]
 8001b4a:	b410      	push	{r4}
 8001b4c:	b333      	cbz	r3, 8001b9c <EXTI_Init+0x54>
 8001b4e:	4b1d      	ldr	r3, [pc, #116]	; (8001bc4 <EXTI_Init+0x7c>)
 8001b50:	6801      	ldr	r1, [r0, #0]
 8001b52:	681c      	ldr	r4, [r3, #0]
 8001b54:	6842      	ldr	r2, [r0, #4]
 8001b56:	ea24 0401 	bic.w	r4, r4, r1
 8001b5a:	601c      	str	r4, [r3, #0]
 8001b5c:	685c      	ldr	r4, [r3, #4]
 8001b5e:	f102 4280 	add.w	r2, r2, #1073741824	; 0x40000000
 8001b62:	f502 329e 	add.w	r2, r2, #80896	; 0x13c00
 8001b66:	ea24 0401 	bic.w	r4, r4, r1
 8001b6a:	605c      	str	r4, [r3, #4]
 8001b6c:	6814      	ldr	r4, [r2, #0]
 8001b6e:	4321      	orrs	r1, r4
 8001b70:	6011      	str	r1, [r2, #0]
 8001b72:	6802      	ldr	r2, [r0, #0]
 8001b74:	689c      	ldr	r4, [r3, #8]
 8001b76:	6881      	ldr	r1, [r0, #8]
 8001b78:	ea24 0402 	bic.w	r4, r4, r2
 8001b7c:	609c      	str	r4, [r3, #8]
 8001b7e:	68d8      	ldr	r0, [r3, #12]
 8001b80:	2910      	cmp	r1, #16
 8001b82:	ea20 0002 	bic.w	r0, r0, r2
 8001b86:	60d8      	str	r0, [r3, #12]
 8001b88:	d014      	beq.n	8001bb4 <EXTI_Init+0x6c>
 8001b8a:	f101 4380 	add.w	r3, r1, #1073741824	; 0x40000000
 8001b8e:	f503 339e 	add.w	r3, r3, #80896	; 0x13c00
 8001b92:	bc10      	pop	{r4}
 8001b94:	6819      	ldr	r1, [r3, #0]
 8001b96:	430a      	orrs	r2, r1
 8001b98:	601a      	str	r2, [r3, #0]
 8001b9a:	4770      	bx	lr
 8001b9c:	e890 000a 	ldmia.w	r0, {r1, r3}
 8001ba0:	f103 4380 	add.w	r3, r3, #1073741824	; 0x40000000
 8001ba4:	f503 339e 	add.w	r3, r3, #80896	; 0x13c00
 8001ba8:	bc10      	pop	{r4}
 8001baa:	681a      	ldr	r2, [r3, #0]
 8001bac:	ea22 0201 	bic.w	r2, r2, r1
 8001bb0:	601a      	str	r2, [r3, #0]
 8001bb2:	4770      	bx	lr
 8001bb4:	6899      	ldr	r1, [r3, #8]
 8001bb6:	bc10      	pop	{r4}
 8001bb8:	4311      	orrs	r1, r2
 8001bba:	6099      	str	r1, [r3, #8]
 8001bbc:	68d9      	ldr	r1, [r3, #12]
 8001bbe:	430a      	orrs	r2, r1
 8001bc0:	60da      	str	r2, [r3, #12]
 8001bc2:	4770      	bx	lr
 8001bc4:	40013c00 	.word	0x40013c00

08001bc8 <EXTI_GetITStatus>:
 8001bc8:	4b03      	ldr	r3, [pc, #12]	; (8001bd8 <EXTI_GetITStatus+0x10>)
 8001bca:	695b      	ldr	r3, [r3, #20]
 8001bcc:	4218      	tst	r0, r3
 8001bce:	bf14      	ite	ne
 8001bd0:	2001      	movne	r0, #1
 8001bd2:	2000      	moveq	r0, #0
 8001bd4:	4770      	bx	lr
 8001bd6:	bf00      	nop
 8001bd8:	40013c00 	.word	0x40013c00

08001bdc <EXTI_ClearITPendingBit>:
 8001bdc:	4b01      	ldr	r3, [pc, #4]	; (8001be4 <EXTI_ClearITPendingBit+0x8>)
 8001bde:	6158      	str	r0, [r3, #20]
 8001be0:	4770      	bx	lr
 8001be2:	bf00      	nop
 8001be4:	40013c00 	.word	0x40013c00

08001be8 <GPIO_Init>:
 8001be8:	2200      	movs	r2, #0
 8001bea:	e92d 47f0 	stmdb	sp!, {r4, r5, r6, r7, r8, r9, sl, lr}
 8001bee:	4613      	mov	r3, r2
 8001bf0:	680d      	ldr	r5, [r1, #0]
 8001bf2:	f04f 0e01 	mov.w	lr, #1
 8001bf6:	2603      	movs	r6, #3
 8001bf8:	e004      	b.n	8001c04 <GPIO_Init+0x1c>
 8001bfa:	3301      	adds	r3, #1
 8001bfc:	2b10      	cmp	r3, #16
 8001bfe:	f102 0202 	add.w	r2, r2, #2
 8001c02:	d045      	beq.n	8001c90 <GPIO_Init+0xa8>
 8001c04:	fa0e fc03 	lsl.w	ip, lr, r3
 8001c08:	ea3c 0405 	bics.w	r4, ip, r5
 8001c0c:	d1f5      	bne.n	8001bfa <GPIO_Init+0x12>
 8001c0e:	6807      	ldr	r7, [r0, #0]
 8001c10:	f8d1 8004 	ldr.w	r8, [r1, #4]
 8001c14:	fa06 f402 	lsl.w	r4, r6, r2
 8001c18:	ea27 0704 	bic.w	r7, r7, r4
 8001c1c:	6007      	str	r7, [r0, #0]
 8001c1e:	f8d0 a000 	ldr.w	sl, [r0]
 8001c22:	fa08 f902 	lsl.w	r9, r8, r2
 8001c26:	f108 38ff 	add.w	r8, r8, #4294967295	; 0xffffffff
 8001c2a:	ea49 090a 	orr.w	r9, r9, sl
 8001c2e:	f1b8 0f01 	cmp.w	r8, #1
 8001c32:	4627      	mov	r7, r4
 8001c34:	f8c0 9000 	str.w	r9, [r0]
 8001c38:	ea6f 0404 	mvn.w	r4, r4
 8001c3c:	d819      	bhi.n	8001c72 <GPIO_Init+0x8a>
 8001c3e:	f8d0 8008 	ldr.w	r8, [r0, #8]
 8001c42:	ea04 0408 	and.w	r4, r4, r8
 8001c46:	6084      	str	r4, [r0, #8]
 8001c48:	688c      	ldr	r4, [r1, #8]
 8001c4a:	f8d0 8008 	ldr.w	r8, [r0, #8]
 8001c4e:	4094      	lsls	r4, r2
 8001c50:	ea44 0408 	orr.w	r4, r4, r8
 8001c54:	6084      	str	r4, [r0, #8]
 8001c56:	f8d0 8004 	ldr.w	r8, [r0, #4]
 8001c5a:	898c      	ldrh	r4, [r1, #12]
 8001c5c:	ea28 0c0c 	bic.w	ip, r8, ip
 8001c60:	f8c0 c004 	str.w	ip, [r0, #4]
 8001c64:	f8d0 c004 	ldr.w	ip, [r0, #4]
 8001c68:	409c      	lsls	r4, r3
 8001c6a:	b2a4      	uxth	r4, r4
 8001c6c:	ea44 040c 	orr.w	r4, r4, ip
 8001c70:	6044      	str	r4, [r0, #4]
 8001c72:	f8d0 c00c 	ldr.w	ip, [r0, #12]
 8001c76:	690c      	ldr	r4, [r1, #16]
 8001c78:	ea2c 0707 	bic.w	r7, ip, r7
 8001c7c:	60c7      	str	r7, [r0, #12]
 8001c7e:	68c7      	ldr	r7, [r0, #12]
 8001c80:	4094      	lsls	r4, r2
 8001c82:	3301      	adds	r3, #1
 8001c84:	433c      	orrs	r4, r7
 8001c86:	2b10      	cmp	r3, #16
 8001c88:	60c4      	str	r4, [r0, #12]
 8001c8a:	f102 0202 	add.w	r2, r2, #2
 8001c8e:	d1b9      	bne.n	8001c04 <GPIO_Init+0x1c>
 8001c90:	e8bd 87f0 	ldmia.w	sp!, {r4, r5, r6, r7, r8, r9, sl, pc}

08001c94 <GPIO_ReadInputData>:
 8001c94:	6900      	ldr	r0, [r0, #16]
 8001c96:	b280      	uxth	r0, r0
 8001c98:	4770      	bx	lr
 8001c9a:	bf00      	nop

08001c9c <GPIO_SetBits>:
 8001c9c:	b289      	uxth	r1, r1
 8001c9e:	6181      	str	r1, [r0, #24]
 8001ca0:	4770      	bx	lr
 8001ca2:	bf00      	nop

08001ca4 <GPIO_ResetBits>:
 8001ca4:	0409      	lsls	r1, r1, #16
 8001ca6:	6181      	str	r1, [r0, #24]
 8001ca8:	4770      	bx	lr
 8001caa:	bf00      	nop

08001cac <GPIO_ToggleBits>:
 8001cac:	6943      	ldr	r3, [r0, #20]
 8001cae:	b289      	uxth	r1, r1
 8001cb0:	4059      	eors	r1, r3
 8001cb2:	6141      	str	r1, [r0, #20]
 8001cb4:	4770      	bx	lr
 8001cb6:	bf00      	nop

08001cb8 <GPIO_PinAFConfig>:
 8001cb8:	f3c1 03cc 	ubfx	r3, r1, #3, #13
 8001cbc:	eb00 0083 	add.w	r0, r0, r3, lsl #2
 8001cc0:	f001 0107 	and.w	r1, r1, #7
 8001cc4:	6a03      	ldr	r3, [r0, #32]
 8001cc6:	0089      	lsls	r1, r1, #2
 8001cc8:	f04f 0c0f 	mov.w	ip, #15
 8001ccc:	fa0c fc01 	lsl.w	ip, ip, r1
 8001cd0:	ea23 030c 	bic.w	r3, r3, ip
 8001cd4:	6203      	str	r3, [r0, #32]
 8001cd6:	6a03      	ldr	r3, [r0, #32]
 8001cd8:	b2d2      	uxtb	r2, r2
 8001cda:	408a      	lsls	r2, r1
 8001cdc:	431a      	orrs	r2, r3
 8001cde:	6202      	str	r2, [r0, #32]
 8001ce0:	4770      	bx	lr
 8001ce2:	bf00      	nop

08001ce4 <RCC_GetClocksFreq>:
 8001ce4:	4a1e      	ldr	r2, [pc, #120]	; (8001d60 <RCC_GetClocksFreq+0x7c>)
 8001ce6:	6893      	ldr	r3, [r2, #8]
 8001ce8:	f003 030c 	and.w	r3, r3, #12
 8001cec:	2b04      	cmp	r3, #4
 8001cee:	b410      	push	{r4}
 8001cf0:	d01a      	beq.n	8001d28 <RCC_GetClocksFreq+0x44>
 8001cf2:	2b08      	cmp	r3, #8
 8001cf4:	d01a      	beq.n	8001d2c <RCC_GetClocksFreq+0x48>
 8001cf6:	4b1b      	ldr	r3, [pc, #108]	; (8001d64 <RCC_GetClocksFreq+0x80>)
 8001cf8:	4a19      	ldr	r2, [pc, #100]	; (8001d60 <RCC_GetClocksFreq+0x7c>)
 8001cfa:	6003      	str	r3, [r0, #0]
 8001cfc:	6894      	ldr	r4, [r2, #8]
 8001cfe:	491a      	ldr	r1, [pc, #104]	; (8001d68 <RCC_GetClocksFreq+0x84>)
 8001d00:	f3c4 1403 	ubfx	r4, r4, #4, #4
 8001d04:	5d0c      	ldrb	r4, [r1, r4]
 8001d06:	40e3      	lsrs	r3, r4
 8001d08:	6043      	str	r3, [r0, #4]
 8001d0a:	6894      	ldr	r4, [r2, #8]
 8001d0c:	f3c4 2482 	ubfx	r4, r4, #10, #3
 8001d10:	5d0c      	ldrb	r4, [r1, r4]
 8001d12:	fa23 f404 	lsr.w	r4, r3, r4
 8001d16:	6084      	str	r4, [r0, #8]
 8001d18:	6892      	ldr	r2, [r2, #8]
 8001d1a:	bc10      	pop	{r4}
 8001d1c:	f3c2 3242 	ubfx	r2, r2, #13, #3
 8001d20:	5c8a      	ldrb	r2, [r1, r2]
 8001d22:	40d3      	lsrs	r3, r2
 8001d24:	60c3      	str	r3, [r0, #12]
 8001d26:	4770      	bx	lr
 8001d28:	4b10      	ldr	r3, [pc, #64]	; (8001d6c <RCC_GetClocksFreq+0x88>)
 8001d2a:	e7e5      	b.n	8001cf8 <RCC_GetClocksFreq+0x14>
 8001d2c:	6853      	ldr	r3, [r2, #4]
 8001d2e:	6851      	ldr	r1, [r2, #4]
 8001d30:	f413 0f80 	tst.w	r3, #4194304	; 0x400000
 8001d34:	6853      	ldr	r3, [r2, #4]
 8001d36:	bf14      	ite	ne
 8001d38:	4a0c      	ldrne	r2, [pc, #48]	; (8001d6c <RCC_GetClocksFreq+0x88>)
 8001d3a:	4a0a      	ldreq	r2, [pc, #40]	; (8001d64 <RCC_GetClocksFreq+0x80>)
 8001d3c:	f3c3 1388 	ubfx	r3, r3, #6, #9
 8001d40:	f001 013f 	and.w	r1, r1, #63	; 0x3f
 8001d44:	fbb2 f2f1 	udiv	r2, r2, r1
 8001d48:	fb02 f303 	mul.w	r3, r2, r3
 8001d4c:	4a04      	ldr	r2, [pc, #16]	; (8001d60 <RCC_GetClocksFreq+0x7c>)
 8001d4e:	6852      	ldr	r2, [r2, #4]
 8001d50:	f3c2 4201 	ubfx	r2, r2, #16, #2
 8001d54:	3201      	adds	r2, #1
 8001d56:	0052      	lsls	r2, r2, #1
 8001d58:	fbb3 f3f2 	udiv	r3, r3, r2
 8001d5c:	e7cc      	b.n	8001cf8 <RCC_GetClocksFreq+0x14>
 8001d5e:	bf00      	nop
 8001d60:	40023800 	.word	0x40023800
 8001d64:	00f42400 	.word	0x00f42400
 8001d68:	20000044 	.word	0x20000044
 8001d6c:	017d7840 	.word	0x017d7840

08001d70 <RCC_AHB1PeriphClockCmd>:
 8001d70:	4a04      	ldr	r2, [pc, #16]	; (8001d84 <RCC_AHB1PeriphClockCmd+0x14>)
 8001d72:	6b13      	ldr	r3, [r2, #48]	; 0x30
 8001d74:	b111      	cbz	r1, 8001d7c <RCC_AHB1PeriphClockCmd+0xc>
 8001d76:	4303      	orrs	r3, r0
 8001d78:	6313      	str	r3, [r2, #48]	; 0x30
 8001d7a:	4770      	bx	lr
 8001d7c:	ea23 0300 	bic.w	r3, r3, r0
 8001d80:	6313      	str	r3, [r2, #48]	; 0x30
 8001d82:	4770      	bx	lr
 8001d84:	40023800 	.word	0x40023800

08001d88 <RCC_AHB2PeriphClockCmd>:
 8001d88:	4a04      	ldr	r2, [pc, #16]	; (8001d9c <RCC_AHB2PeriphClockCmd+0x14>)
 8001d8a:	6b53      	ldr	r3, [r2, #52]	; 0x34
 8001d8c:	b111      	cbz	r1, 8001d94 <RCC_AHB2PeriphClockCmd+0xc>
 8001d8e:	4303      	orrs	r3, r0
 8001d90:	6353      	str	r3, [r2, #52]	; 0x34
 8001d92:	4770      	bx	lr
 8001d94:	ea23 0300 	bic.w	r3, r3, r0
 8001d98:	6353      	str	r3, [r2, #52]	; 0x34
 8001d9a:	4770      	bx	lr
 8001d9c:	40023800 	.word	0x40023800

08001da0 <RCC_APB1PeriphClockCmd>:
 8001da0:	4a04      	ldr	r2, [pc, #16]	; (8001db4 <RCC_APB1PeriphClockCmd+0x14>)
 8001da2:	6c13      	ldr	r3, [r2, #64]	; 0x40
 8001da4:	b111      	cbz	r1, 8001dac <RCC_APB1PeriphClockCmd+0xc>
 8001da6:	4303      	orrs	r3, r0
 8001da8:	6413      	str	r3, [r2, #64]	; 0x40
 8001daa:	4770      	bx	lr
 8001dac:	ea23 0300 	bic.w	r3, r3, r0
 8001db0:	6413      	str	r3, [r2, #64]	; 0x40
 8001db2:	4770      	bx	lr
 8001db4:	40023800 	.word	0x40023800

08001db8 <RCC_APB2PeriphClockCmd>:
 8001db8:	4a04      	ldr	r2, [pc, #16]	; (8001dcc <RCC_APB2PeriphClockCmd+0x14>)
 8001dba:	6c53      	ldr	r3, [r2, #68]	; 0x44
 8001dbc:	b111      	cbz	r1, 8001dc4 <RCC_APB2PeriphClockCmd+0xc>
 8001dbe:	4303      	orrs	r3, r0
 8001dc0:	6453      	str	r3, [r2, #68]	; 0x44
 8001dc2:	4770      	bx	lr
 8001dc4:	ea23 0300 	bic.w	r3, r3, r0
 8001dc8:	6453      	str	r3, [r2, #68]	; 0x44
 8001dca:	4770      	bx	lr
 8001dcc:	40023800 	.word	0x40023800

08001dd0 <RCC_APB1PeriphResetCmd>:
 8001dd0:	4a04      	ldr	r2, [pc, #16]	; (8001de4 <RCC_APB1PeriphResetCmd+0x14>)
 8001dd2:	6a13      	ldr	r3, [r2, #32]
 8001dd4:	b111      	cbz	r1, 8001ddc <RCC_APB1PeriphResetCmd+0xc>
 8001dd6:	4303      	orrs	r3, r0
 8001dd8:	6213      	str	r3, [r2, #32]
 8001dda:	4770      	bx	lr
 8001ddc:	ea23 0300 	bic.w	r3, r3, r0
 8001de0:	6213      	str	r3, [r2, #32]
 8001de2:	4770      	bx	lr
 8001de4:	40023800 	.word	0x40023800

08001de8 <SYSCFG_EXTILineConfig>:
 8001de8:	f001 03fc 	and.w	r3, r1, #252	; 0xfc
 8001dec:	f103 4380 	add.w	r3, r3, #1073741824	; 0x40000000
 8001df0:	f503 339c 	add.w	r3, r3, #79872	; 0x13800
 8001df4:	f001 0103 	and.w	r1, r1, #3
 8001df8:	689a      	ldr	r2, [r3, #8]
 8001dfa:	0089      	lsls	r1, r1, #2
 8001dfc:	f04f 0c0f 	mov.w	ip, #15
 8001e00:	fa0c fc01 	lsl.w	ip, ip, r1
 8001e04:	ea22 020c 	bic.w	r2, r2, ip
 8001e08:	609a      	str	r2, [r3, #8]
 8001e0a:	689a      	ldr	r2, [r3, #8]
 8001e0c:	b2c0      	uxtb	r0, r0
 8001e0e:	4088      	lsls	r0, r1
 8001e10:	4310      	orrs	r0, r2
 8001e12:	6098      	str	r0, [r3, #8]
 8001e14:	4770      	bx	lr
 8001e16:	bf00      	nop

08001e18 <TIM_TimeBaseInit>:
 8001e18:	b410      	push	{r4}
 8001e1a:	4c1e      	ldr	r4, [pc, #120]	; (8001e94 <TIM_TimeBaseInit+0x7c>)
 8001e1c:	6802      	ldr	r2, [r0, #0]
 8001e1e:	42a0      	cmp	r0, r4
 8001e20:	b293      	uxth	r3, r2
 8001e22:	d027      	beq.n	8001e74 <TIM_TimeBaseInit+0x5c>
 8001e24:	f1b0 4f80 	cmp.w	r0, #1073741824	; 0x40000000
 8001e28:	d015      	beq.n	8001e56 <TIM_TimeBaseInit+0x3e>
 8001e2a:	f5a4 447c 	sub.w	r4, r4, #64512	; 0xfc00
 8001e2e:	42a0      	cmp	r0, r4
 8001e30:	d011      	beq.n	8001e56 <TIM_TimeBaseInit+0x3e>
 8001e32:	f504 6480 	add.w	r4, r4, #1024	; 0x400
 8001e36:	42a0      	cmp	r0, r4
 8001e38:	d00d      	beq.n	8001e56 <TIM_TimeBaseInit+0x3e>
 8001e3a:	f504 6480 	add.w	r4, r4, #1024	; 0x400
 8001e3e:	42a0      	cmp	r0, r4
 8001e40:	d009      	beq.n	8001e56 <TIM_TimeBaseInit+0x3e>
 8001e42:	684c      	ldr	r4, [r1, #4]
 8001e44:	880b      	ldrh	r3, [r1, #0]
 8001e46:	b292      	uxth	r2, r2
 8001e48:	6002      	str	r2, [r0, #0]
 8001e4a:	62c4      	str	r4, [r0, #44]	; 0x2c
 8001e4c:	6283      	str	r3, [r0, #40]	; 0x28
 8001e4e:	2301      	movs	r3, #1
 8001e50:	bc10      	pop	{r4}
 8001e52:	6143      	str	r3, [r0, #20]
 8001e54:	4770      	bx	lr
 8001e56:	f8b1 c002 	ldrh.w	ip, [r1, #2]
 8001e5a:	684c      	ldr	r4, [r1, #4]
 8001e5c:	880a      	ldrh	r2, [r1, #0]
 8001e5e:	f023 0370 	bic.w	r3, r3, #112	; 0x70
 8001e62:	ea43 030c 	orr.w	r3, r3, ip
 8001e66:	6003      	str	r3, [r0, #0]
 8001e68:	2301      	movs	r3, #1
 8001e6a:	62c4      	str	r4, [r0, #44]	; 0x2c
 8001e6c:	6282      	str	r2, [r0, #40]	; 0x28
 8001e6e:	bc10      	pop	{r4}
 8001e70:	6143      	str	r3, [r0, #20]
 8001e72:	4770      	bx	lr
 8001e74:	884a      	ldrh	r2, [r1, #2]
 8001e76:	bc10      	pop	{r4}
 8001e78:	f023 0370 	bic.w	r3, r3, #112	; 0x70
 8001e7c:	4313      	orrs	r3, r2
 8001e7e:	6003      	str	r3, [r0, #0]
 8001e80:	684a      	ldr	r2, [r1, #4]
 8001e82:	880b      	ldrh	r3, [r1, #0]
 8001e84:	62c2      	str	r2, [r0, #44]	; 0x2c
 8001e86:	6283      	str	r3, [r0, #40]	; 0x28
 8001e88:	7a8b      	ldrb	r3, [r1, #10]
 8001e8a:	6303      	str	r3, [r0, #48]	; 0x30
 8001e8c:	2301      	movs	r3, #1
 8001e8e:	6143      	str	r3, [r0, #20]
 8001e90:	4770      	bx	lr
 8001e92:	bf00      	nop
 8001e94:	40010000 	.word	0x40010000

08001e98 <TIM_TimeBaseStructInit>:
 8001e98:	2300      	movs	r3, #0
 8001e9a:	f04f 32ff 	mov.w	r2, #4294967295	; 0xffffffff
 8001e9e:	6042      	str	r2, [r0, #4]
 8001ea0:	8103      	strh	r3, [r0, #8]
 8001ea2:	6003      	str	r3, [r0, #0]
 8001ea4:	7283      	strb	r3, [r0, #10]
 8001ea6:	4770      	bx	lr

08001ea8 <TIM_Cmd>:
 8001ea8:	6803      	ldr	r3, [r0, #0]
 8001eaa:	b119      	cbz	r1, 8001eb4 <TIM_Cmd+0xc>
 8001eac:	f043 0301 	orr.w	r3, r3, #1
 8001eb0:	6003      	str	r3, [r0, #0]
 8001eb2:	4770      	bx	lr
 8001eb4:	f64f 72fe 	movw	r2, #65534	; 0xfffe
 8001eb8:	4013      	ands	r3, r2
 8001eba:	6003      	str	r3, [r0, #0]
 8001ebc:	4770      	bx	lr
 8001ebe:	bf00      	nop

08001ec0 <SystemInit>:
 8001ec0:	4a34      	ldr	r2, [pc, #208]	; (8001f94 <SystemInit+0xd4>)
 8001ec2:	4835      	ldr	r0, [pc, #212]	; (8001f98 <SystemInit+0xd8>)
 8001ec4:	6813      	ldr	r3, [r2, #0]
 8001ec6:	2100      	movs	r1, #0
 8001ec8:	f043 0301 	orr.w	r3, r3, #1
 8001ecc:	6013      	str	r3, [r2, #0]
 8001ece:	6091      	str	r1, [r2, #8]
 8001ed0:	6813      	ldr	r3, [r2, #0]
 8001ed2:	f023 7384 	bic.w	r3, r3, #17301504	; 0x1080000
 8001ed6:	f423 3380 	bic.w	r3, r3, #65536	; 0x10000
 8001eda:	6013      	str	r3, [r2, #0]
 8001edc:	6050      	str	r0, [r2, #4]
 8001ede:	6813      	ldr	r3, [r2, #0]
 8001ee0:	b082      	sub	sp, #8
 8001ee2:	f423 2380 	bic.w	r3, r3, #262144	; 0x40000
 8001ee6:	6013      	str	r3, [r2, #0]
 8001ee8:	60d1      	str	r1, [r2, #12]
 8001eea:	9100      	str	r1, [sp, #0]
 8001eec:	9101      	str	r1, [sp, #4]
 8001eee:	6813      	ldr	r3, [r2, #0]
 8001ef0:	f443 3380 	orr.w	r3, r3, #65536	; 0x10000
 8001ef4:	6013      	str	r3, [r2, #0]
 8001ef6:	e003      	b.n	8001f00 <SystemInit+0x40>
 8001ef8:	9b00      	ldr	r3, [sp, #0]
 8001efa:	f5b3 4fa0 	cmp.w	r3, #20480	; 0x5000
 8001efe:	d009      	beq.n	8001f14 <SystemInit+0x54>
 8001f00:	6813      	ldr	r3, [r2, #0]
 8001f02:	f403 3300 	and.w	r3, r3, #131072	; 0x20000
 8001f06:	9301      	str	r3, [sp, #4]
 8001f08:	9b00      	ldr	r3, [sp, #0]
 8001f0a:	3301      	adds	r3, #1
 8001f0c:	9300      	str	r3, [sp, #0]
 8001f0e:	9b01      	ldr	r3, [sp, #4]
 8001f10:	2b00      	cmp	r3, #0
 8001f12:	d0f1      	beq.n	8001ef8 <SystemInit+0x38>
 8001f14:	4b1f      	ldr	r3, [pc, #124]	; (8001f94 <SystemInit+0xd4>)
 8001f16:	681b      	ldr	r3, [r3, #0]
 8001f18:	f413 3300 	ands.w	r3, r3, #131072	; 0x20000
 8001f1c:	bf18      	it	ne
 8001f1e:	2301      	movne	r3, #1
 8001f20:	9301      	str	r3, [sp, #4]
 8001f22:	9b01      	ldr	r3, [sp, #4]
 8001f24:	2b01      	cmp	r3, #1
 8001f26:	d005      	beq.n	8001f34 <SystemInit+0x74>
 8001f28:	4b1c      	ldr	r3, [pc, #112]	; (8001f9c <SystemInit+0xdc>)
 8001f2a:	f04f 6200 	mov.w	r2, #134217728	; 0x8000000
 8001f2e:	609a      	str	r2, [r3, #8]
 8001f30:	b002      	add	sp, #8
 8001f32:	4770      	bx	lr
 8001f34:	4b17      	ldr	r3, [pc, #92]	; (8001f94 <SystemInit+0xd4>)
 8001f36:	491a      	ldr	r1, [pc, #104]	; (8001fa0 <SystemInit+0xe0>)
 8001f38:	6c1a      	ldr	r2, [r3, #64]	; 0x40
 8001f3a:	481a      	ldr	r0, [pc, #104]	; (8001fa4 <SystemInit+0xe4>)
 8001f3c:	f042 5280 	orr.w	r2, r2, #268435456	; 0x10000000
 8001f40:	641a      	str	r2, [r3, #64]	; 0x40
 8001f42:	680a      	ldr	r2, [r1, #0]
 8001f44:	f442 4240 	orr.w	r2, r2, #49152	; 0xc000
 8001f48:	600a      	str	r2, [r1, #0]
 8001f4a:	689a      	ldr	r2, [r3, #8]
 8001f4c:	609a      	str	r2, [r3, #8]
 8001f4e:	689a      	ldr	r2, [r3, #8]
 8001f50:	609a      	str	r2, [r3, #8]
 8001f52:	689a      	ldr	r2, [r3, #8]
 8001f54:	f442 5280 	orr.w	r2, r2, #4096	; 0x1000
 8001f58:	609a      	str	r2, [r3, #8]
 8001f5a:	6058      	str	r0, [r3, #4]
 8001f5c:	681a      	ldr	r2, [r3, #0]
 8001f5e:	f042 7280 	orr.w	r2, r2, #16777216	; 0x1000000
 8001f62:	601a      	str	r2, [r3, #0]
 8001f64:	681a      	ldr	r2, [r3, #0]
 8001f66:	0192      	lsls	r2, r2, #6
 8001f68:	d5fc      	bpl.n	8001f64 <SystemInit+0xa4>
 8001f6a:	4a0f      	ldr	r2, [pc, #60]	; (8001fa8 <SystemInit+0xe8>)
 8001f6c:	f240 6103 	movw	r1, #1539	; 0x603
 8001f70:	6011      	str	r1, [r2, #0]
 8001f72:	6899      	ldr	r1, [r3, #8]
 8001f74:	f021 0103 	bic.w	r1, r1, #3
 8001f78:	6099      	str	r1, [r3, #8]
 8001f7a:	6899      	ldr	r1, [r3, #8]
 8001f7c:	f041 0102 	orr.w	r1, r1, #2
 8001f80:	f5a2 6280 	sub.w	r2, r2, #1024	; 0x400
 8001f84:	6099      	str	r1, [r3, #8]
 8001f86:	6893      	ldr	r3, [r2, #8]
 8001f88:	f003 030c 	and.w	r3, r3, #12
 8001f8c:	2b08      	cmp	r3, #8
 8001f8e:	d1fa      	bne.n	8001f86 <SystemInit+0xc6>
 8001f90:	e7ca      	b.n	8001f28 <SystemInit+0x68>
 8001f92:	bf00      	nop
 8001f94:	40023800 	.word	0x40023800
 8001f98:	24003010 	.word	0x24003010
 8001f9c:	e000ed00 	.word	0xe000ed00
 8001fa0:	40007000 	.word	0x40007000
 8001fa4:	08416019 	.word	0x08416019
 8001fa8:	40023c00 	.word	0x40023c00

08001fac <SystemCoreClockUpdate>:
 8001fac:	4a16      	ldr	r2, [pc, #88]	; (8002008 <SystemCoreClockUpdate+0x5c>)
 8001fae:	6893      	ldr	r3, [r2, #8]
 8001fb0:	f003 030c 	and.w	r3, r3, #12
 8001fb4:	2b04      	cmp	r3, #4
 8001fb6:	d00c      	beq.n	8001fd2 <SystemCoreClockUpdate+0x26>
 8001fb8:	2b08      	cmp	r3, #8
 8001fba:	d00c      	beq.n	8001fd6 <SystemCoreClockUpdate+0x2a>
 8001fbc:	4b13      	ldr	r3, [pc, #76]	; (800200c <SystemCoreClockUpdate+0x60>)
 8001fbe:	4a12      	ldr	r2, [pc, #72]	; (8002008 <SystemCoreClockUpdate+0x5c>)
 8001fc0:	4813      	ldr	r0, [pc, #76]	; (8002010 <SystemCoreClockUpdate+0x64>)
 8001fc2:	6892      	ldr	r2, [r2, #8]
 8001fc4:	4913      	ldr	r1, [pc, #76]	; (8002014 <SystemCoreClockUpdate+0x68>)
 8001fc6:	f3c2 1203 	ubfx	r2, r2, #4, #4
 8001fca:	5c82      	ldrb	r2, [r0, r2]
 8001fcc:	40d3      	lsrs	r3, r2
 8001fce:	600b      	str	r3, [r1, #0]
 8001fd0:	4770      	bx	lr
 8001fd2:	4b11      	ldr	r3, [pc, #68]	; (8002018 <SystemCoreClockUpdate+0x6c>)
 8001fd4:	e7f3      	b.n	8001fbe <SystemCoreClockUpdate+0x12>
 8001fd6:	6853      	ldr	r3, [r2, #4]
 8001fd8:	6851      	ldr	r1, [r2, #4]
 8001fda:	f413 0f80 	tst.w	r3, #4194304	; 0x400000
 8001fde:	6853      	ldr	r3, [r2, #4]
 8001fe0:	bf14      	ite	ne
 8001fe2:	4a0d      	ldrne	r2, [pc, #52]	; (8002018 <SystemCoreClockUpdate+0x6c>)
 8001fe4:	4a09      	ldreq	r2, [pc, #36]	; (800200c <SystemCoreClockUpdate+0x60>)
 8001fe6:	f3c3 1388 	ubfx	r3, r3, #6, #9
 8001fea:	f001 013f 	and.w	r1, r1, #63	; 0x3f
 8001fee:	fbb2 f2f1 	udiv	r2, r2, r1
 8001ff2:	fb02 f303 	mul.w	r3, r2, r3
 8001ff6:	4a04      	ldr	r2, [pc, #16]	; (8002008 <SystemCoreClockUpdate+0x5c>)
 8001ff8:	6852      	ldr	r2, [r2, #4]
 8001ffa:	f3c2 4201 	ubfx	r2, r2, #16, #2
 8001ffe:	3201      	adds	r2, #1
 8002000:	0052      	lsls	r2, r2, #1
 8002002:	fbb3 f3f2 	udiv	r3, r3, r2
 8002006:	e7da      	b.n	8001fbe <SystemCoreClockUpdate+0x12>
 8002008:	40023800 	.word	0x40023800
 800200c:	00f42400 	.word	0x00f42400
 8002010:	20000054 	.word	0x20000054
 8002014:	20000064 	.word	0x20000064
 8002018:	017d7840 	.word	0x017d7840

0800201c <krnl_noop_rtsched>:
 800201c:	f04f 30ff 	mov.w	r0, #4294967295	; 0xffffffff
 8002020:	4770      	bx	lr
 8002022:	bf00      	nop

08002024 <krnl_panic>:
 8002024:	b510      	push	{r4, lr}
 8002026:	4604      	mov	r4, r0
 8002028:	f7ff f862 	bl	80010f0 <_di>
 800202c:	4621      	mov	r1, r4
 800202e:	480a      	ldr	r0, [pc, #40]	; (8002058 <krnl_panic+0x34>)
 8002030:	f7ff f9e4 	bl	80013fc <ucx_printf>
 8002034:	4b09      	ldr	r3, [pc, #36]	; (800205c <krnl_panic+0x38>)
 8002036:	490a      	ldr	r1, [pc, #40]	; (8002060 <krnl_panic+0x3c>)
 8002038:	681a      	ldr	r2, [r3, #0]
 800203a:	6813      	ldr	r3, [r2, #0]
 800203c:	428b      	cmp	r3, r1
 800203e:	d104      	bne.n	800204a <krnl_panic+0x26>
 8002040:	e005      	b.n	800204e <krnl_panic+0x2a>
 8002042:	f852 3f08 	ldr.w	r3, [r2, #8]!
 8002046:	428b      	cmp	r3, r1
 8002048:	d001      	beq.n	800204e <krnl_panic+0x2a>
 800204a:	429c      	cmp	r4, r3
 800204c:	d1f9      	bne.n	8002042 <krnl_panic+0x1e>
 800204e:	6851      	ldr	r1, [r2, #4]
 8002050:	4804      	ldr	r0, [pc, #16]	; (8002064 <krnl_panic+0x40>)
 8002052:	f7ff f9d3 	bl	80013fc <ucx_printf>
 8002056:	e7fe      	b.n	8002056 <krnl_panic+0x32>
 8002058:	08004a20 	.word	0x08004a20
 800205c:	200001f0 	.word	0x200001f0
 8002060:	ffffc011 	.word	0xffffc011
 8002064:	08004a30 	.word	0x08004a30

08002068 <krnl_schedule>:
 8002068:	b530      	push	{r4, r5, lr}
 800206a:	4d1a      	ldr	r5, [pc, #104]	; (80020d4 <krnl_schedule+0x6c>)
 800206c:	682b      	ldr	r3, [r5, #0]
 800206e:	6859      	ldr	r1, [r3, #4]
 8002070:	684a      	ldr	r2, [r1, #4]
 8002072:	f892 0066 	ldrb.w	r0, [r2, #102]	; 0x66
 8002076:	2802      	cmp	r0, #2
 8002078:	bf04      	itt	eq
 800207a:	2001      	moveq	r0, #1
 800207c:	f882 0066 	strbeq.w	r0, [r2, #102]	; 0x66
 8002080:	f242 7412 	movw	r4, #10002	; 0x2712
 8002084:	e000      	b.n	8002088 <krnl_schedule+0x20>
 8002086:	682b      	ldr	r3, [r5, #0]
 8002088:	6818      	ldr	r0, [r3, #0]
 800208a:	f7ff fa05 	bl	8001498 <list_cnext>
 800208e:	3c01      	subs	r4, #1
 8002090:	6843      	ldr	r3, [r0, #4]
 8002092:	4601      	mov	r1, r0
 8002094:	d01b      	beq.n	80020ce <krnl_schedule+0x66>
 8002096:	f893 2066 	ldrb.w	r2, [r3, #102]	; 0x66
 800209a:	2a01      	cmp	r2, #1
 800209c:	d1f3      	bne.n	8002086 <krnl_schedule+0x1e>
 800209e:	6dda      	ldr	r2, [r3, #92]	; 0x5c
 80020a0:	2a00      	cmp	r2, #0
 80020a2:	d1f0      	bne.n	8002086 <krnl_schedule+0x1e>
 80020a4:	f8b3 2064 	ldrh.w	r2, [r3, #100]	; 0x64
 80020a8:	3a01      	subs	r2, #1
 80020aa:	b292      	uxth	r2, r2
 80020ac:	b2d0      	uxtb	r0, r2
 80020ae:	f8a3 2064 	strh.w	r2, [r3, #100]	; 0x64
 80020b2:	2800      	cmp	r0, #0
 80020b4:	d1e7      	bne.n	8002086 <krnl_schedule+0x1e>
 80020b6:	6828      	ldr	r0, [r5, #0]
 80020b8:	2402      	movs	r4, #2
 80020ba:	6041      	str	r1, [r0, #4]
 80020bc:	ea42 2212 	orr.w	r2, r2, r2, lsr #8
 80020c0:	f883 4066 	strb.w	r4, [r3, #102]	; 0x66
 80020c4:	f8b3 0060 	ldrh.w	r0, [r3, #96]	; 0x60
 80020c8:	f8a3 2064 	strh.w	r2, [r3, #100]	; 0x64
 80020cc:	bd30      	pop	{r4, r5, pc}
 80020ce:	4802      	ldr	r0, [pc, #8]	; (80020d8 <krnl_schedule+0x70>)
 80020d0:	f7ff ffa8 	bl	8002024 <krnl_panic>
 80020d4:	20000068 	.word	0x20000068
 80020d8:	ffffc001 	.word	0xffffc001

080020dc <krnl_dispatcher>:
 80020dc:	4b03      	ldr	r3, [pc, #12]	; (80020ec <krnl_dispatcher+0x10>)
 80020de:	681a      	ldr	r2, [r3, #0]
 80020e0:	6e13      	ldr	r3, [r2, #96]	; 0x60
 80020e2:	3301      	adds	r3, #1
 80020e4:	6613      	str	r3, [r2, #96]	; 0x60
 80020e6:	f7fe bf2b 	b.w	8000f40 <_dispatch>
 80020ea:	bf00      	nop
 80020ec:	20000068 	.word	0x20000068

080020f0 <ucx_task_spawn>:
 80020f0:	b5f0      	push	{r4, r5, r6, r7, lr}
 80020f2:	4606      	mov	r6, r0
 80020f4:	b081      	sub	sp, #4
 80020f6:	2068      	movs	r0, #104	; 0x68
 80020f8:	b28d      	uxth	r5, r1
 80020fa:	f7ff fa6d 	bl	80015d8 <ucx_malloc>
 80020fe:	4604      	mov	r4, r0
 8002100:	2800      	cmp	r0, #0
 8002102:	d05c      	beq.n	80021be <ucx_task_spawn+0xce>
 8002104:	4f31      	ldr	r7, [pc, #196]	; (80021cc <ucx_task_spawn+0xdc>)
 8002106:	683b      	ldr	r3, [r7, #0]
 8002108:	f893 2066 	ldrb.w	r2, [r3, #102]	; 0x66
 800210c:	2a79      	cmp	r2, #121	; 0x79
 800210e:	d04e      	beq.n	80021ae <ucx_task_spawn+0xbe>
 8002110:	6818      	ldr	r0, [r3, #0]
 8002112:	4621      	mov	r1, r4
 8002114:	f7ff f9ac 	bl	8001470 <list_pushback>
 8002118:	2800      	cmp	r0, #0
 800211a:	d050      	beq.n	80021be <ucx_task_spawn+0xce>
 800211c:	6839      	ldr	r1, [r7, #0]
 800211e:	6044      	str	r4, [r0, #4]
 8002120:	f8b1 2064 	ldrh.w	r2, [r1, #100]	; 0x64
 8002124:	6026      	str	r6, [r4, #0]
 8002126:	2300      	movs	r3, #0
 8002128:	f641 7c1f 	movw	ip, #7967	; 0x1f1f
 800212c:	f102 0e01 	add.w	lr, r2, #1
 8002130:	65e3      	str	r3, [r4, #92]	; 0x5c
 8002132:	f8a4 3062 	strh.w	r3, [r4, #98]	; 0x62
 8002136:	65a5      	str	r5, [r4, #88]	; 0x58
 8002138:	4628      	mov	r0, r5
 800213a:	f8a1 e064 	strh.w	lr, [r1, #100]	; 0x64
 800213e:	f8a4 2060 	strh.w	r2, [r4, #96]	; 0x60
 8002142:	f884 3066 	strb.w	r3, [r4, #102]	; 0x66
 8002146:	f8a4 c064 	strh.w	ip, [r4, #100]	; 0x64
 800214a:	f7ff fa45 	bl	80015d8 <ucx_malloc>
 800214e:	6560      	str	r0, [r4, #84]	; 0x54
 8002150:	2800      	cmp	r0, #0
 8002152:	d037      	beq.n	80021c4 <ucx_task_spawn+0xd4>
 8002154:	683b      	ldr	r3, [r7, #0]
 8002156:	f893 3066 	ldrb.w	r3, [r3, #102]	; 0x66
 800215a:	2b79      	cmp	r3, #121	; 0x79
 800215c:	d02b      	beq.n	80021b6 <ucx_task_spawn+0xc6>
 800215e:	462a      	mov	r2, r5
 8002160:	2169      	movs	r1, #105	; 0x69
 8002162:	f7ff f941 	bl	80013e8 <ucx_memset>
 8002166:	6d60      	ldr	r0, [r4, #84]	; 0x54
 8002168:	2204      	movs	r2, #4
 800216a:	2133      	movs	r1, #51	; 0x33
 800216c:	f7ff f93c 	bl	80013e8 <ucx_memset>
 8002170:	6d60      	ldr	r0, [r4, #84]	; 0x54
 8002172:	f105 4380 	add.w	r3, r5, #1073741824	; 0x40000000
 8002176:	3b04      	subs	r3, #4
 8002178:	eb00 0083 	add.w	r0, r0, r3, lsl #2
 800217c:	2133      	movs	r1, #51	; 0x33
 800217e:	2204      	movs	r2, #4
 8002180:	f7ff f932 	bl	80013e8 <ucx_memset>
 8002184:	6d61      	ldr	r1, [r4, #84]	; 0x54
 8002186:	4633      	mov	r3, r6
 8002188:	462a      	mov	r2, r5
 800218a:	1d20      	adds	r0, r4, #4
 800218c:	f7fe ffde 	bl	800114c <_context_init>
 8002190:	6da0      	ldr	r0, [r4, #88]	; 0x58
 8002192:	6d63      	ldr	r3, [r4, #84]	; 0x54
 8002194:	6822      	ldr	r2, [r4, #0]
 8002196:	f8b4 1060 	ldrh.w	r1, [r4, #96]	; 0x60
 800219a:	9000      	str	r0, [sp, #0]
 800219c:	480c      	ldr	r0, [pc, #48]	; (80021d0 <ucx_task_spawn+0xe0>)
 800219e:	f7ff f92d 	bl	80013fc <ucx_printf>
 80021a2:	2301      	movs	r3, #1
 80021a4:	2000      	movs	r0, #0
 80021a6:	f884 3066 	strb.w	r3, [r4, #102]	; 0x66
 80021aa:	b001      	add	sp, #4
 80021ac:	bdf0      	pop	{r4, r5, r6, r7, pc}
 80021ae:	f7fe ff9f 	bl	80010f0 <_di>
 80021b2:	683b      	ldr	r3, [r7, #0]
 80021b4:	e7ac      	b.n	8002110 <ucx_task_spawn+0x20>
 80021b6:	f7fe ff9d 	bl	80010f4 <_ei>
 80021ba:	6d60      	ldr	r0, [r4, #84]	; 0x54
 80021bc:	e7cf      	b.n	800215e <ucx_task_spawn+0x6e>
 80021be:	4805      	ldr	r0, [pc, #20]	; (80021d4 <ucx_task_spawn+0xe4>)
 80021c0:	f7ff ff30 	bl	8002024 <krnl_panic>
 80021c4:	4804      	ldr	r0, [pc, #16]	; (80021d8 <ucx_task_spawn+0xe8>)
 80021c6:	f7ff ff2d 	bl	8002024 <krnl_panic>
 80021ca:	bf00      	nop
 80021cc:	20000068 	.word	0x20000068
 80021d0:	08004a38 	.word	0x08004a38
 80021d4:	ffffc003 	.word	0xffffc003
 80021d8:	ffffc004 	.word	0xffffc004

080021dc <USART1_IRQHandler>:
 80021dc:	b530      	push	{r4, r5, lr}
 80021de:	4d15      	ldr	r5, [pc, #84]	; (8002234 <USART1_IRQHandler+0x58>)
 80021e0:	4c15      	ldr	r4, [pc, #84]	; (8002238 <USART1_IRQHandler+0x5c>)
 80021e2:	4814      	ldr	r0, [pc, #80]	; (8002234 <USART1_IRQHandler+0x58>)
 80021e4:	f240 5125 	movw	r1, #1317	; 0x525
 80021e8:	f001 fad6 	bl	8003798 <USART_GetITStatus>
 80021ec:	4603      	mov	r3, r0
 80021ee:	4628      	mov	r0, r5
 80021f0:	b1fb      	cbz	r3, 8002232 <USART1_IRQHandler+0x56>
 80021f2:	f001 faab 	bl	800374c <USART_ReceiveData>
 80021f6:	f8b4 3082 	ldrh.w	r3, [r4, #130]	; 0x82
 80021fa:	f8b4 2080 	ldrh.w	r2, [r4, #128]	; 0x80
 80021fe:	3301      	adds	r3, #1
 8002200:	f003 037f 	and.w	r3, r3, #127	; 0x7f
 8002204:	b292      	uxth	r2, r2
 8002206:	4293      	cmp	r3, r2
 8002208:	b2c0      	uxtb	r0, r0
 800220a:	d00c      	beq.n	8002226 <USART1_IRQHandler+0x4a>
 800220c:	f8b4 2082 	ldrh.w	r2, [r4, #130]	; 0x82
 8002210:	b292      	uxth	r2, r2
 8002212:	54a0      	strb	r0, [r4, r2]
 8002214:	f8a4 3082 	strh.w	r3, [r4, #130]	; 0x82
 8002218:	f8b4 3084 	ldrh.w	r3, [r4, #132]	; 0x84
 800221c:	3301      	adds	r3, #1
 800221e:	b29b      	uxth	r3, r3
 8002220:	f8a4 3084 	strh.w	r3, [r4, #132]	; 0x84
 8002224:	e7dd      	b.n	80021e2 <USART1_IRQHandler+0x6>
 8002226:	f8d4 3088 	ldr.w	r3, [r4, #136]	; 0x88
 800222a:	3301      	adds	r3, #1
 800222c:	f8c4 3088 	str.w	r3, [r4, #136]	; 0x88
 8002230:	e7d7      	b.n	80021e2 <USART1_IRQHandler+0x6>
 8002232:	bd30      	pop	{r4, r5, pc}
 8002234:	40011000 	.word	0x40011000
 8002238:	200002e4 	.word	0x200002e4

0800223c <USART2_IRQHandler>:
 800223c:	b530      	push	{r4, r5, lr}
 800223e:	4d16      	ldr	r5, [pc, #88]	; (8002298 <USART2_IRQHandler+0x5c>)
 8002240:	4c16      	ldr	r4, [pc, #88]	; (800229c <USART2_IRQHandler+0x60>)
 8002242:	4815      	ldr	r0, [pc, #84]	; (8002298 <USART2_IRQHandler+0x5c>)
 8002244:	f240 5125 	movw	r1, #1317	; 0x525
 8002248:	f001 faa6 	bl	8003798 <USART_GetITStatus>
 800224c:	4603      	mov	r3, r0
 800224e:	4628      	mov	r0, r5
 8002250:	b30b      	cbz	r3, 8002296 <USART2_IRQHandler+0x5a>
 8002252:	f001 fa7b 	bl	800374c <USART_ReceiveData>
 8002256:	f8b4 3112 	ldrh.w	r3, [r4, #274]	; 0x112
 800225a:	f8b4 2110 	ldrh.w	r2, [r4, #272]	; 0x110
 800225e:	3301      	adds	r3, #1
 8002260:	f003 037f 	and.w	r3, r3, #127	; 0x7f
 8002264:	b292      	uxth	r2, r2
 8002266:	4293      	cmp	r3, r2
 8002268:	b2c0      	uxtb	r0, r0
 800226a:	d00e      	beq.n	800228a <USART2_IRQHandler+0x4e>
 800226c:	f8b4 2112 	ldrh.w	r2, [r4, #274]	; 0x112
 8002270:	fa14 f282 	uxtah	r2, r4, r2
 8002274:	f882 0090 	strb.w	r0, [r2, #144]	; 0x90
 8002278:	f8a4 3112 	strh.w	r3, [r4, #274]	; 0x112
 800227c:	f8b4 3114 	ldrh.w	r3, [r4, #276]	; 0x114
 8002280:	3301      	adds	r3, #1
 8002282:	b29b      	uxth	r3, r3
 8002284:	f8a4 3114 	strh.w	r3, [r4, #276]	; 0x114
 8002288:	e7db      	b.n	8002242 <USART2_IRQHandler+0x6>
 800228a:	f8d4 3118 	ldr.w	r3, [r4, #280]	; 0x118
 800228e:	3301      	adds	r3, #1
 8002290:	f8c4 3118 	str.w	r3, [r4, #280]	; 0x118
 8002294:	e7d5      	b.n	8002242 <USART2_IRQHandler+0x6>
 8002296:	bd30      	pop	{r4, r5, pc}
 8002298:	40004400 	.word	0x40004400
 800229c:	200002e4 	.word	0x200002e4

080022a0 <USART6_IRQHandler>:
 80022a0:	b530      	push	{r4, r5, lr}
 80022a2:	4d16      	ldr	r5, [pc, #88]	; (80022fc <USART6_IRQHandler+0x5c>)
 80022a4:	4c16      	ldr	r4, [pc, #88]	; (8002300 <USART6_IRQHandler+0x60>)
 80022a6:	4815      	ldr	r0, [pc, #84]	; (80022fc <USART6_IRQHandler+0x5c>)
 80022a8:	f240 5125 	movw	r1, #1317	; 0x525
 80022ac:	f001 fa74 	bl	8003798 <USART_GetITStatus>
 80022b0:	4603      	mov	r3, r0
 80022b2:	4628      	mov	r0, r5
 80022b4:	b30b      	cbz	r3, 80022fa <USART6_IRQHandler+0x5a>
 80022b6:	f001 fa49 	bl	800374c <USART_ReceiveData>
 80022ba:	f8b4 31a2 	ldrh.w	r3, [r4, #418]	; 0x1a2
 80022be:	f8b4 21a0 	ldrh.w	r2, [r4, #416]	; 0x1a0
 80022c2:	3301      	adds	r3, #1
 80022c4:	f003 037f 	and.w	r3, r3, #127	; 0x7f
 80022c8:	b292      	uxth	r2, r2
 80022ca:	4293      	cmp	r3, r2
 80022cc:	b2c0      	uxtb	r0, r0
 80022ce:	d00e      	beq.n	80022ee <USART6_IRQHandler+0x4e>
 80022d0:	f8b4 21a2 	ldrh.w	r2, [r4, #418]	; 0x1a2
 80022d4:	fa14 f282 	uxtah	r2, r4, r2
 80022d8:	f882 0120 	strb.w	r0, [r2, #288]	; 0x120
 80022dc:	f8a4 31a2 	strh.w	r3, [r4, #418]	; 0x1a2
 80022e0:	f8b4 31a4 	ldrh.w	r3, [r4, #420]	; 0x1a4
 80022e4:	3301      	adds	r3, #1
 80022e6:	b29b      	uxth	r3, r3
 80022e8:	f8a4 31a4 	strh.w	r3, [r4, #420]	; 0x1a4
 80022ec:	e7db      	b.n	80022a6 <USART6_IRQHandler+0x6>
 80022ee:	f8d4 31a8 	ldr.w	r3, [r4, #424]	; 0x1a8
 80022f2:	3301      	adds	r3, #1
 80022f4:	f8c4 31a8 	str.w	r3, [r4, #424]	; 0x1a8
 80022f8:	e7d5      	b.n	80022a6 <USART6_IRQHandler+0x6>
 80022fa:	bd30      	pop	{r4, r5, pc}
 80022fc:	40011400 	.word	0x40011400
 8002300:	200002e4 	.word	0x200002e4

08002304 <usart_init>:
 8002304:	b5f0      	push	{r4, r5, r6, r7, lr}
 8002306:	b2c0      	uxtb	r0, r0
 8002308:	b08d      	sub	sp, #52	; 0x34
 800230a:	460d      	mov	r5, r1
 800230c:	b2d4      	uxtb	r4, r2
 800230e:	2806      	cmp	r0, #6
 8002310:	d805      	bhi.n	800231e <usart_init+0x1a>
 8002312:	e8df f000 	tbb	[pc, r0]
 8002316:	71a3      	.short	0x71a3
 8002318:	0404043e 	.word	0x0404043e
 800231c:	08          	.byte	0x08
 800231d:	00          	.byte	0x00
 800231e:	f04f 30ff 	mov.w	r0, #4294967295	; 0xffffffff
 8002322:	b00d      	add	sp, #52	; 0x34
 8002324:	bdf0      	pop	{r4, r5, r6, r7, pc}
 8002326:	2101      	movs	r1, #1
 8002328:	4608      	mov	r0, r1
 800232a:	f7ff fd21 	bl	8001d70 <RCC_AHB1PeriphClockCmd>
 800232e:	2101      	movs	r1, #1
 8002330:	2020      	movs	r0, #32
 8002332:	f7ff fd41 	bl	8001db8 <RCC_APB2PeriphClockCmd>
 8002336:	4881      	ldr	r0, [pc, #516]	; (800253c <usart_init+0x238>)
 8002338:	2208      	movs	r2, #8
 800233a:	210b      	movs	r1, #11
 800233c:	f7ff fcbc 	bl	8001cb8 <GPIO_PinAFConfig>
 8002340:	487e      	ldr	r0, [pc, #504]	; (800253c <usart_init+0x238>)
 8002342:	2208      	movs	r2, #8
 8002344:	210c      	movs	r1, #12
 8002346:	f7ff fcb7 	bl	8001cb8 <GPIO_PinAFConfig>
 800234a:	2600      	movs	r6, #0
 800234c:	2302      	movs	r3, #2
 800234e:	487c      	ldr	r0, [pc, #496]	; (8002540 <usart_init+0x23c>)
 8002350:	9309      	str	r3, [sp, #36]	; 0x24
 8002352:	f44f 52c0 	mov.w	r2, #6144	; 0x1800
 8002356:	a908      	add	r1, sp, #32
 8002358:	2701      	movs	r7, #1
 800235a:	930a      	str	r3, [sp, #40]	; 0x28
 800235c:	9208      	str	r2, [sp, #32]
 800235e:	960b      	str	r6, [sp, #44]	; 0x2c
 8002360:	970c      	str	r7, [sp, #48]	; 0x30
 8002362:	f7ff fc41 	bl	8001be8 <GPIO_Init>
 8002366:	f44f 2340 	mov.w	r3, #786432	; 0xc0000
 800236a:	4876      	ldr	r0, [pc, #472]	; (8002544 <usart_init+0x240>)
 800236c:	9504      	str	r5, [sp, #16]
 800236e:	a904      	add	r1, sp, #16
 8002370:	f8ad 601c 	strh.w	r6, [sp, #28]
 8002374:	9605      	str	r6, [sp, #20]
 8002376:	9306      	str	r3, [sp, #24]
 8002378:	f001 f978 	bl	800366c <USART_Init>
 800237c:	2c00      	cmp	r4, #0
 800237e:	f000 80c6 	beq.w	800250e <usart_init+0x20a>
 8002382:	4870      	ldr	r0, [pc, #448]	; (8002544 <usart_init+0x240>)
 8002384:	2101      	movs	r1, #1
 8002386:	f001 f9d1 	bl	800372c <USART_Cmd>
 800238a:	4b6f      	ldr	r3, [pc, #444]	; (8002548 <usart_init+0x244>)
 800238c:	f883 408c 	strb.w	r4, [r3, #140]	; 0x8c
 8002390:	e08c      	b.n	80024ac <usart_init+0x1a8>
 8002392:	2101      	movs	r1, #1
 8002394:	4608      	mov	r0, r1
 8002396:	f7ff fceb 	bl	8001d70 <RCC_AHB1PeriphClockCmd>
 800239a:	2101      	movs	r1, #1
 800239c:	f44f 3000 	mov.w	r0, #131072	; 0x20000
 80023a0:	f7ff fcfe 	bl	8001da0 <RCC_APB1PeriphClockCmd>
 80023a4:	4865      	ldr	r0, [pc, #404]	; (800253c <usart_init+0x238>)
 80023a6:	2207      	movs	r2, #7
 80023a8:	2102      	movs	r1, #2
 80023aa:	f7ff fc85 	bl	8001cb8 <GPIO_PinAFConfig>
 80023ae:	4863      	ldr	r0, [pc, #396]	; (800253c <usart_init+0x238>)
 80023b0:	2207      	movs	r2, #7
 80023b2:	2103      	movs	r1, #3
 80023b4:	f7ff fc80 	bl	8001cb8 <GPIO_PinAFConfig>
 80023b8:	2600      	movs	r6, #0
 80023ba:	2302      	movs	r3, #2
 80023bc:	485f      	ldr	r0, [pc, #380]	; (800253c <usart_init+0x238>)
 80023be:	9309      	str	r3, [sp, #36]	; 0x24
 80023c0:	220c      	movs	r2, #12
 80023c2:	a908      	add	r1, sp, #32
 80023c4:	2701      	movs	r7, #1
 80023c6:	930a      	str	r3, [sp, #40]	; 0x28
 80023c8:	9208      	str	r2, [sp, #32]
 80023ca:	960b      	str	r6, [sp, #44]	; 0x2c
 80023cc:	970c      	str	r7, [sp, #48]	; 0x30
 80023ce:	f7ff fc0b 	bl	8001be8 <GPIO_Init>
 80023d2:	f44f 2340 	mov.w	r3, #786432	; 0xc0000
 80023d6:	485d      	ldr	r0, [pc, #372]	; (800254c <usart_init+0x248>)
 80023d8:	9504      	str	r5, [sp, #16]
 80023da:	a904      	add	r1, sp, #16
 80023dc:	f8ad 601c 	strh.w	r6, [sp, #28]
 80023e0:	9605      	str	r6, [sp, #20]
 80023e2:	9306      	str	r3, [sp, #24]
 80023e4:	f001 f942 	bl	800366c <USART_Init>
 80023e8:	2c00      	cmp	r4, #0
 80023ea:	d079      	beq.n	80024e0 <usart_init+0x1dc>
 80023ec:	4857      	ldr	r0, [pc, #348]	; (800254c <usart_init+0x248>)
 80023ee:	2101      	movs	r1, #1
 80023f0:	f001 f99c 	bl	800372c <USART_Cmd>
 80023f4:	4b56      	ldr	r3, [pc, #344]	; (8002550 <usart_init+0x24c>)
 80023f6:	e7c9      	b.n	800238c <usart_init+0x88>
 80023f8:	2101      	movs	r1, #1
 80023fa:	2002      	movs	r0, #2
 80023fc:	f7ff fcb8 	bl	8001d70 <RCC_AHB1PeriphClockCmd>
 8002400:	2101      	movs	r1, #1
 8002402:	2010      	movs	r0, #16
 8002404:	f7ff fcd8 	bl	8001db8 <RCC_APB2PeriphClockCmd>
 8002408:	4852      	ldr	r0, [pc, #328]	; (8002554 <usart_init+0x250>)
 800240a:	2207      	movs	r2, #7
 800240c:	2106      	movs	r1, #6
 800240e:	f7ff fc53 	bl	8001cb8 <GPIO_PinAFConfig>
 8002412:	2207      	movs	r2, #7
 8002414:	4611      	mov	r1, r2
 8002416:	484f      	ldr	r0, [pc, #316]	; (8002554 <usart_init+0x250>)
 8002418:	f7ff fc4e 	bl	8001cb8 <GPIO_PinAFConfig>
 800241c:	2600      	movs	r6, #0
 800241e:	2302      	movs	r3, #2
 8002420:	484c      	ldr	r0, [pc, #304]	; (8002554 <usart_init+0x250>)
 8002422:	9309      	str	r3, [sp, #36]	; 0x24
 8002424:	22c0      	movs	r2, #192	; 0xc0
 8002426:	a908      	add	r1, sp, #32
 8002428:	2701      	movs	r7, #1
 800242a:	930a      	str	r3, [sp, #40]	; 0x28
 800242c:	9208      	str	r2, [sp, #32]
 800242e:	960b      	str	r6, [sp, #44]	; 0x2c
 8002430:	970c      	str	r7, [sp, #48]	; 0x30
 8002432:	f7ff fbd9 	bl	8001be8 <GPIO_Init>
 8002436:	f44f 2340 	mov.w	r3, #786432	; 0xc0000
 800243a:	4847      	ldr	r0, [pc, #284]	; (8002558 <usart_init+0x254>)
 800243c:	9504      	str	r5, [sp, #16]
 800243e:	a904      	add	r1, sp, #16
 8002440:	f8ad 601c 	strh.w	r6, [sp, #28]
 8002444:	9605      	str	r6, [sp, #20]
 8002446:	9306      	str	r3, [sp, #24]
 8002448:	f001 f910 	bl	800366c <USART_Init>
 800244c:	2c00      	cmp	r4, #0
 800244e:	d030      	beq.n	80024b2 <usart_init+0x1ae>
 8002450:	4841      	ldr	r0, [pc, #260]	; (8002558 <usart_init+0x254>)
 8002452:	2101      	movs	r1, #1
 8002454:	f001 f96a 	bl	800372c <USART_Cmd>
 8002458:	4b40      	ldr	r3, [pc, #256]	; (800255c <usart_init+0x258>)
 800245a:	e797      	b.n	800238c <usart_init+0x88>
 800245c:	2101      	movs	r1, #1
 800245e:	4608      	mov	r0, r1
 8002460:	f7ff fc86 	bl	8001d70 <RCC_AHB1PeriphClockCmd>
 8002464:	f44f 4400 	mov.w	r4, #32768	; 0x8000
 8002468:	2300      	movs	r3, #0
 800246a:	4834      	ldr	r0, [pc, #208]	; (800253c <usart_init+0x238>)
 800246c:	930b      	str	r3, [sp, #44]	; 0x2c
 800246e:	2501      	movs	r5, #1
 8002470:	a908      	add	r1, sp, #32
 8002472:	930a      	str	r3, [sp, #40]	; 0x28
 8002474:	930c      	str	r3, [sp, #48]	; 0x30
 8002476:	9408      	str	r4, [sp, #32]
 8002478:	9509      	str	r5, [sp, #36]	; 0x24
 800247a:	f7ff fbb5 	bl	8001be8 <GPIO_Init>
 800247e:	4621      	mov	r1, r4
 8002480:	482e      	ldr	r0, [pc, #184]	; (800253c <usart_init+0x238>)
 8002482:	f7ff fc0f 	bl	8001ca4 <GPIO_ResetBits>
 8002486:	2064      	movs	r0, #100	; 0x64
 8002488:	f7fe fc52 	bl	8000d30 <_delay_ms>
 800248c:	4621      	mov	r1, r4
 800248e:	482b      	ldr	r0, [pc, #172]	; (800253c <usart_init+0x238>)
 8002490:	f7ff fc04 	bl	8001c9c <GPIO_SetBits>
 8002494:	f44f 70fa 	mov.w	r0, #500	; 0x1f4
 8002498:	f7fe fc4a 	bl	8000d30 <_delay_ms>
 800249c:	4930      	ldr	r1, [pc, #192]	; (8002560 <usart_init+0x25c>)
 800249e:	9100      	str	r1, [sp, #0]
 80024a0:	4b30      	ldr	r3, [pc, #192]	; (8002564 <usart_init+0x260>)
 80024a2:	4a31      	ldr	r2, [pc, #196]	; (8002568 <usart_init+0x264>)
 80024a4:	4831      	ldr	r0, [pc, #196]	; (800256c <usart_init+0x268>)
 80024a6:	4629      	mov	r1, r5
 80024a8:	f000 fcd6 	bl	8002e58 <USBD_Init>
 80024ac:	2000      	movs	r0, #0
 80024ae:	b00d      	add	sp, #52	; 0x34
 80024b0:	bdf0      	pop	{r4, r5, r6, r7, pc}
 80024b2:	4829      	ldr	r0, [pc, #164]	; (8002558 <usart_init+0x254>)
 80024b4:	463a      	mov	r2, r7
 80024b6:	f240 5125 	movw	r1, #1317	; 0x525
 80024ba:	f001 f94b 	bl	8003754 <USART_ITConfig>
 80024be:	2325      	movs	r3, #37	; 0x25
 80024c0:	a802      	add	r0, sp, #8
 80024c2:	f8ad 3008 	strh.w	r3, [sp, #8]
 80024c6:	f88d 400a 	strb.w	r4, [sp, #10]
 80024ca:	9703      	str	r7, [sp, #12]
 80024cc:	f7ff f900 	bl	80016d0 <NVIC_Init>
 80024d0:	4b22      	ldr	r3, [pc, #136]	; (800255c <usart_init+0x258>)
 80024d2:	f8a3 4080 	strh.w	r4, [r3, #128]	; 0x80
 80024d6:	f8a3 4082 	strh.w	r4, [r3, #130]	; 0x82
 80024da:	f8a3 4084 	strh.w	r4, [r3, #132]	; 0x84
 80024de:	e7b7      	b.n	8002450 <usart_init+0x14c>
 80024e0:	481a      	ldr	r0, [pc, #104]	; (800254c <usart_init+0x248>)
 80024e2:	463a      	mov	r2, r7
 80024e4:	f240 5125 	movw	r1, #1317	; 0x525
 80024e8:	f001 f934 	bl	8003754 <USART_ITConfig>
 80024ec:	2326      	movs	r3, #38	; 0x26
 80024ee:	a802      	add	r0, sp, #8
 80024f0:	f8ad 3008 	strh.w	r3, [sp, #8]
 80024f4:	f88d 400a 	strb.w	r4, [sp, #10]
 80024f8:	9703      	str	r7, [sp, #12]
 80024fa:	f7ff f8e9 	bl	80016d0 <NVIC_Init>
 80024fe:	4b17      	ldr	r3, [pc, #92]	; (800255c <usart_init+0x258>)
 8002500:	f8a3 4110 	strh.w	r4, [r3, #272]	; 0x110
 8002504:	f8a3 4112 	strh.w	r4, [r3, #274]	; 0x112
 8002508:	f8a3 4114 	strh.w	r4, [r3, #276]	; 0x114
 800250c:	e76e      	b.n	80023ec <usart_init+0xe8>
 800250e:	480d      	ldr	r0, [pc, #52]	; (8002544 <usart_init+0x240>)
 8002510:	463a      	mov	r2, r7
 8002512:	f240 5125 	movw	r1, #1317	; 0x525
 8002516:	f001 f91d 	bl	8003754 <USART_ITConfig>
 800251a:	2347      	movs	r3, #71	; 0x47
 800251c:	a802      	add	r0, sp, #8
 800251e:	f8ad 3008 	strh.w	r3, [sp, #8]
 8002522:	f88d 400a 	strb.w	r4, [sp, #10]
 8002526:	9703      	str	r7, [sp, #12]
 8002528:	f7ff f8d2 	bl	80016d0 <NVIC_Init>
 800252c:	4b0b      	ldr	r3, [pc, #44]	; (800255c <usart_init+0x258>)
 800252e:	f8a3 41a0 	strh.w	r4, [r3, #416]	; 0x1a0
 8002532:	f8a3 41a2 	strh.w	r4, [r3, #418]	; 0x1a2
 8002536:	f8a3 41a4 	strh.w	r4, [r3, #420]	; 0x1a4
 800253a:	e722      	b.n	8002382 <usart_init+0x7e>
 800253c:	40020000 	.word	0x40020000
 8002540:	40020800 	.word	0x40020800
 8002544:	40011400 	.word	0x40011400
 8002548:	20000404 	.word	0x20000404
 800254c:	40004400 	.word	0x40004400
 8002550:	20000374 	.word	0x20000374
 8002554:	40020400 	.word	0x40020400
 8002558:	40011000 	.word	0x40011000
 800255c:	200002e4 	.word	0x200002e4
 8002560:	200001c8 	.word	0x200001c8
 8002564:	200000d4 	.word	0x200000d4
 8002568:	200001ac 	.word	0x200001ac
 800256c:	20000494 	.word	0x20000494

08002570 <usart_rxsize>:
 8002570:	b2c0      	uxtb	r0, r0
 8002572:	b500      	push	{lr}
 8002574:	2806      	cmp	r0, #6
 8002576:	d805      	bhi.n	8002584 <usart_rxsize+0x14>
 8002578:	e8df f000 	tbb	[pc, r0]
 800257c:	04142228 	.word	0x04142228
 8002580:	0404      	.short	0x0404
 8002582:	07          	.byte	0x07
 8002583:	00          	.byte	0x00
 8002584:	2000      	movs	r0, #0
 8002586:	f85d fb04 	ldr.w	pc, [sp], #4
 800258a:	4812      	ldr	r0, [pc, #72]	; (80025d4 <usart_rxsize+0x64>)
 800258c:	2120      	movs	r1, #32
 800258e:	f001 f8fb 	bl	8003788 <USART_GetFlagStatus>
 8002592:	4b11      	ldr	r3, [pc, #68]	; (80025d8 <usart_rxsize+0x68>)
 8002594:	f893 208c 	ldrb.w	r2, [r3, #140]	; 0x8c
 8002598:	b16a      	cbz	r2, 80025b6 <usart_rxsize+0x46>
 800259a:	3800      	subs	r0, #0
 800259c:	bf18      	it	ne
 800259e:	2001      	movne	r0, #1
 80025a0:	f85d fb04 	ldr.w	pc, [sp], #4
 80025a4:	480d      	ldr	r0, [pc, #52]	; (80025dc <usart_rxsize+0x6c>)
 80025a6:	2120      	movs	r1, #32
 80025a8:	f001 f8ee 	bl	8003788 <USART_GetFlagStatus>
 80025ac:	4b0c      	ldr	r3, [pc, #48]	; (80025e0 <usart_rxsize+0x70>)
 80025ae:	f893 208c 	ldrb.w	r2, [r3, #140]	; 0x8c
 80025b2:	2a00      	cmp	r2, #0
 80025b4:	d1f1      	bne.n	800259a <usart_rxsize+0x2a>
 80025b6:	f8b3 0084 	ldrh.w	r0, [r3, #132]	; 0x84
 80025ba:	b280      	uxth	r0, r0
 80025bc:	f85d fb04 	ldr.w	pc, [sp], #4
 80025c0:	4808      	ldr	r0, [pc, #32]	; (80025e4 <usart_rxsize+0x74>)
 80025c2:	2120      	movs	r1, #32
 80025c4:	f001 f8e0 	bl	8003788 <USART_GetFlagStatus>
 80025c8:	4b07      	ldr	r3, [pc, #28]	; (80025e8 <usart_rxsize+0x78>)
 80025ca:	e7e3      	b.n	8002594 <usart_rxsize+0x24>
 80025cc:	f000 fafe 	bl	8002bcc <VCP_kbhit>
 80025d0:	f85d fb04 	ldr.w	pc, [sp], #4
 80025d4:	40011400 	.word	0x40011400
 80025d8:	20000404 	.word	0x20000404
 80025dc:	40004400 	.word	0x40004400
 80025e0:	20000374 	.word	0x20000374
 80025e4:	40011000 	.word	0x40011000
 80025e8:	200002e4 	.word	0x200002e4

080025ec <usart_tx>:
 80025ec:	b2c0      	uxtb	r0, r0
 80025ee:	b510      	push	{r4, lr}
 80025f0:	b2cc      	uxtb	r4, r1
 80025f2:	2806      	cmp	r0, #6
 80025f4:	d833      	bhi.n	800265e <usart_tx+0x72>
 80025f6:	e8df f000 	tbb	[pc, r0]
 80025fa:	0428      	.short	0x0428
 80025fc:	3232321c 	.word	0x3232321c
 8002600:	10          	.byte	0x10
 8002601:	00          	.byte	0x00
 8002602:	481b      	ldr	r0, [pc, #108]	; (8002670 <usart_tx+0x84>)
 8002604:	2180      	movs	r1, #128	; 0x80
 8002606:	f001 f8bf 	bl	8003788 <USART_GetFlagStatus>
 800260a:	2800      	cmp	r0, #0
 800260c:	d0f9      	beq.n	8002602 <usart_tx+0x16>
 800260e:	4621      	mov	r1, r4
 8002610:	4817      	ldr	r0, [pc, #92]	; (8002670 <usart_tx+0x84>)
 8002612:	e8bd 4010 	ldmia.w	sp!, {r4, lr}
 8002616:	f001 b895 	b.w	8003744 <USART_SendData>
 800261a:	4816      	ldr	r0, [pc, #88]	; (8002674 <usart_tx+0x88>)
 800261c:	2180      	movs	r1, #128	; 0x80
 800261e:	f001 f8b3 	bl	8003788 <USART_GetFlagStatus>
 8002622:	2800      	cmp	r0, #0
 8002624:	d0f9      	beq.n	800261a <usart_tx+0x2e>
 8002626:	4621      	mov	r1, r4
 8002628:	4812      	ldr	r0, [pc, #72]	; (8002674 <usart_tx+0x88>)
 800262a:	e8bd 4010 	ldmia.w	sp!, {r4, lr}
 800262e:	f001 b889 	b.w	8003744 <USART_SendData>
 8002632:	4811      	ldr	r0, [pc, #68]	; (8002678 <usart_tx+0x8c>)
 8002634:	2180      	movs	r1, #128	; 0x80
 8002636:	f001 f8a7 	bl	8003788 <USART_GetFlagStatus>
 800263a:	2800      	cmp	r0, #0
 800263c:	d0f9      	beq.n	8002632 <usart_tx+0x46>
 800263e:	4621      	mov	r1, r4
 8002640:	480d      	ldr	r0, [pc, #52]	; (8002678 <usart_tx+0x8c>)
 8002642:	e8bd 4010 	ldmia.w	sp!, {r4, lr}
 8002646:	f001 b87d 	b.w	8003744 <USART_SendData>
 800264a:	4620      	mov	r0, r4
 800264c:	f000 faac 	bl	8002ba8 <VCP_putchar>
 8002650:	4a0a      	ldr	r2, [pc, #40]	; (800267c <usart_tx+0x90>)
 8002652:	6813      	ldr	r3, [r2, #0]
 8002654:	2b64      	cmp	r3, #100	; 0x64
 8002656:	f103 0101 	add.w	r1, r3, #1
 800265a:	d001      	beq.n	8002660 <usart_tx+0x74>
 800265c:	6011      	str	r1, [r2, #0]
 800265e:	bd10      	pop	{r4, pc}
 8002660:	2300      	movs	r3, #0
 8002662:	e8bd 4010 	ldmia.w	sp!, {r4, lr}
 8002666:	2005      	movs	r0, #5
 8002668:	6013      	str	r3, [r2, #0]
 800266a:	f7fe bb61 	b.w	8000d30 <_delay_ms>
 800266e:	bf00      	nop
 8002670:	40011000 	.word	0x40011000
 8002674:	40011400 	.word	0x40011400
 8002678:	40004400 	.word	0x40004400
 800267c:	200002e0 	.word	0x200002e0

08002680 <usart_rx>:
 8002680:	b530      	push	{r4, r5, lr}
 8002682:	b2c0      	uxtb	r0, r0
 8002684:	b082      	sub	sp, #8
 8002686:	2806      	cmp	r0, #6
 8002688:	d80f      	bhi.n	80026aa <usart_rx+0x2a>
 800268a:	e8df f000 	tbb	[pc, r0]
 800268e:	6a04      	.short	0x6a04
 8002690:	0e0e0e3e 	.word	0x0e0e0e3e
 8002694:	11          	.byte	0x11
 8002695:	00          	.byte	0x00
 8002696:	f10d 0007 	add.w	r0, sp, #7
 800269a:	f000 faa3 	bl	8002be4 <VCP_getchar>
 800269e:	2800      	cmp	r0, #0
 80026a0:	d0f9      	beq.n	8002696 <usart_rx+0x16>
 80026a2:	f89d 0007 	ldrb.w	r0, [sp, #7]
 80026a6:	b002      	add	sp, #8
 80026a8:	bd30      	pop	{r4, r5, pc}
 80026aa:	2000      	movs	r0, #0
 80026ac:	b002      	add	sp, #8
 80026ae:	bd30      	pop	{r4, r5, pc}
 80026b0:	4c55      	ldr	r4, [pc, #340]	; (8002808 <usart_rx+0x188>)
 80026b2:	f894 51ac 	ldrb.w	r5, [r4, #428]	; 0x1ac
 80026b6:	2d00      	cmp	r5, #0
 80026b8:	f040 8081 	bne.w	80027be <usart_rx+0x13e>
 80026bc:	f8b4 21a0 	ldrh.w	r2, [r4, #416]	; 0x1a0
 80026c0:	f8b4 31a2 	ldrh.w	r3, [r4, #418]	; 0x1a2
 80026c4:	b292      	uxth	r2, r2
 80026c6:	b29b      	uxth	r3, r3
 80026c8:	429a      	cmp	r2, r3
 80026ca:	d0f7      	beq.n	80026bc <usart_rx+0x3c>
 80026cc:	f7fe fd10 	bl	80010f0 <_di>
 80026d0:	f8b4 21a0 	ldrh.w	r2, [r4, #416]	; 0x1a0
 80026d4:	f8b4 31a2 	ldrh.w	r3, [r4, #418]	; 0x1a2
 80026d8:	b292      	uxth	r2, r2
 80026da:	b29b      	uxth	r3, r3
 80026dc:	429a      	cmp	r2, r3
 80026de:	d069      	beq.n	80027b4 <usart_rx+0x134>
 80026e0:	f8b4 31a0 	ldrh.w	r3, [r4, #416]	; 0x1a0
 80026e4:	fa14 f383 	uxtah	r3, r4, r3
 80026e8:	f893 5120 	ldrb.w	r5, [r3, #288]	; 0x120
 80026ec:	f8b4 31a0 	ldrh.w	r3, [r4, #416]	; 0x1a0
 80026f0:	3301      	adds	r3, #1
 80026f2:	f003 037f 	and.w	r3, r3, #127	; 0x7f
 80026f6:	f8a4 31a0 	strh.w	r3, [r4, #416]	; 0x1a0
 80026fa:	f8b4 31a4 	ldrh.w	r3, [r4, #420]	; 0x1a4
 80026fe:	3b01      	subs	r3, #1
 8002700:	b29b      	uxth	r3, r3
 8002702:	b2ed      	uxtb	r5, r5
 8002704:	f8a4 31a4 	strh.w	r3, [r4, #420]	; 0x1a4
 8002708:	e054      	b.n	80027b4 <usart_rx+0x134>
 800270a:	4c3f      	ldr	r4, [pc, #252]	; (8002808 <usart_rx+0x188>)
 800270c:	f894 511c 	ldrb.w	r5, [r4, #284]	; 0x11c
 8002710:	2d00      	cmp	r5, #0
 8002712:	d16c      	bne.n	80027ee <usart_rx+0x16e>
 8002714:	f8b4 2110 	ldrh.w	r2, [r4, #272]	; 0x110
 8002718:	f8b4 3112 	ldrh.w	r3, [r4, #274]	; 0x112
 800271c:	b292      	uxth	r2, r2
 800271e:	b29b      	uxth	r3, r3
 8002720:	429a      	cmp	r2, r3
 8002722:	d0f7      	beq.n	8002714 <usart_rx+0x94>
 8002724:	f7fe fce4 	bl	80010f0 <_di>
 8002728:	f8b4 2110 	ldrh.w	r2, [r4, #272]	; 0x110
 800272c:	f8b4 3112 	ldrh.w	r3, [r4, #274]	; 0x112
 8002730:	b292      	uxth	r2, r2
 8002732:	b29b      	uxth	r3, r3
 8002734:	429a      	cmp	r2, r3
 8002736:	d03d      	beq.n	80027b4 <usart_rx+0x134>
 8002738:	f8b4 3110 	ldrh.w	r3, [r4, #272]	; 0x110
 800273c:	fa14 f383 	uxtah	r3, r4, r3
 8002740:	f893 5090 	ldrb.w	r5, [r3, #144]	; 0x90
 8002744:	f8b4 3110 	ldrh.w	r3, [r4, #272]	; 0x110
 8002748:	3301      	adds	r3, #1
 800274a:	f003 037f 	and.w	r3, r3, #127	; 0x7f
 800274e:	f8a4 3110 	strh.w	r3, [r4, #272]	; 0x110
 8002752:	f8b4 3114 	ldrh.w	r3, [r4, #276]	; 0x114
 8002756:	3b01      	subs	r3, #1
 8002758:	b29b      	uxth	r3, r3
 800275a:	b2ed      	uxtb	r5, r5
 800275c:	f8a4 3114 	strh.w	r3, [r4, #276]	; 0x114
 8002760:	e028      	b.n	80027b4 <usart_rx+0x134>
 8002762:	4c29      	ldr	r4, [pc, #164]	; (8002808 <usart_rx+0x188>)
 8002764:	f894 508c 	ldrb.w	r5, [r4, #140]	; 0x8c
 8002768:	2d00      	cmp	r5, #0
 800276a:	d134      	bne.n	80027d6 <usart_rx+0x156>
 800276c:	f8b4 2080 	ldrh.w	r2, [r4, #128]	; 0x80
 8002770:	f8b4 3082 	ldrh.w	r3, [r4, #130]	; 0x82
 8002774:	b292      	uxth	r2, r2
 8002776:	b29b      	uxth	r3, r3
 8002778:	429a      	cmp	r2, r3
 800277a:	d0f7      	beq.n	800276c <usart_rx+0xec>
 800277c:	f7fe fcb8 	bl	80010f0 <_di>
 8002780:	f8b4 2080 	ldrh.w	r2, [r4, #128]	; 0x80
 8002784:	f8b4 3082 	ldrh.w	r3, [r4, #130]	; 0x82
 8002788:	b292      	uxth	r2, r2
 800278a:	b29b      	uxth	r3, r3
 800278c:	429a      	cmp	r2, r3
 800278e:	d011      	beq.n	80027b4 <usart_rx+0x134>
 8002790:	f8b4 3080 	ldrh.w	r3, [r4, #128]	; 0x80
 8002794:	b29b      	uxth	r3, r3
 8002796:	5ce5      	ldrb	r5, [r4, r3]
 8002798:	f8b4 3080 	ldrh.w	r3, [r4, #128]	; 0x80
 800279c:	3301      	adds	r3, #1
 800279e:	f003 037f 	and.w	r3, r3, #127	; 0x7f
 80027a2:	f8a4 3080 	strh.w	r3, [r4, #128]	; 0x80
 80027a6:	f8b4 3084 	ldrh.w	r3, [r4, #132]	; 0x84
 80027aa:	3b01      	subs	r3, #1
 80027ac:	b29b      	uxth	r3, r3
 80027ae:	b2ed      	uxtb	r5, r5
 80027b0:	f8a4 3084 	strh.w	r3, [r4, #132]	; 0x84
 80027b4:	f88d 5007 	strb.w	r5, [sp, #7]
 80027b8:	f7fe fc9c 	bl	80010f4 <_ei>
 80027bc:	e771      	b.n	80026a2 <usart_rx+0x22>
 80027be:	4c13      	ldr	r4, [pc, #76]	; (800280c <usart_rx+0x18c>)
 80027c0:	2120      	movs	r1, #32
 80027c2:	4620      	mov	r0, r4
 80027c4:	f000 ffe0 	bl	8003788 <USART_GetFlagStatus>
 80027c8:	2800      	cmp	r0, #0
 80027ca:	d0f9      	beq.n	80027c0 <usart_rx+0x140>
 80027cc:	480f      	ldr	r0, [pc, #60]	; (800280c <usart_rx+0x18c>)
 80027ce:	f000 ffbd 	bl	800374c <USART_ReceiveData>
 80027d2:	b2c0      	uxtb	r0, r0
 80027d4:	e767      	b.n	80026a6 <usart_rx+0x26>
 80027d6:	4c0e      	ldr	r4, [pc, #56]	; (8002810 <usart_rx+0x190>)
 80027d8:	2120      	movs	r1, #32
 80027da:	4620      	mov	r0, r4
 80027dc:	f000 ffd4 	bl	8003788 <USART_GetFlagStatus>
 80027e0:	2800      	cmp	r0, #0
 80027e2:	d0f9      	beq.n	80027d8 <usart_rx+0x158>
 80027e4:	480a      	ldr	r0, [pc, #40]	; (8002810 <usart_rx+0x190>)
 80027e6:	f000 ffb1 	bl	800374c <USART_ReceiveData>
 80027ea:	b2c0      	uxtb	r0, r0
 80027ec:	e75b      	b.n	80026a6 <usart_rx+0x26>
 80027ee:	4c09      	ldr	r4, [pc, #36]	; (8002814 <usart_rx+0x194>)
 80027f0:	2120      	movs	r1, #32
 80027f2:	4620      	mov	r0, r4
 80027f4:	f000 ffc8 	bl	8003788 <USART_GetFlagStatus>
 80027f8:	2800      	cmp	r0, #0
 80027fa:	d0f9      	beq.n	80027f0 <usart_rx+0x170>
 80027fc:	4805      	ldr	r0, [pc, #20]	; (8002814 <usart_rx+0x194>)
 80027fe:	f000 ffa5 	bl	800374c <USART_ReceiveData>
 8002802:	b2c0      	uxtb	r0, r0
 8002804:	e74f      	b.n	80026a6 <usart_rx+0x26>
 8002806:	bf00      	nop
 8002808:	200002e4 	.word	0x200002e4
 800280c:	40011400 	.word	0x40011400
 8002810:	40011000 	.word	0x40011000
 8002814:	40004400 	.word	0x40004400

08002818 <usbd_cdc_EP0_RxReady>:
 8002818:	b510      	push	{r4, lr}
 800281a:	4c07      	ldr	r4, [pc, #28]	; (8002838 <usbd_cdc_EP0_RxReady+0x20>)
 800281c:	6820      	ldr	r0, [r4, #0]
 800281e:	28ff      	cmp	r0, #255	; 0xff
 8002820:	d007      	beq.n	8002832 <usbd_cdc_EP0_RxReady+0x1a>
 8002822:	4a06      	ldr	r2, [pc, #24]	; (800283c <usbd_cdc_EP0_RxReady+0x24>)
 8002824:	4b06      	ldr	r3, [pc, #24]	; (8002840 <usbd_cdc_EP0_RxReady+0x28>)
 8002826:	6812      	ldr	r2, [r2, #0]
 8002828:	689b      	ldr	r3, [r3, #8]
 800282a:	4906      	ldr	r1, [pc, #24]	; (8002844 <usbd_cdc_EP0_RxReady+0x2c>)
 800282c:	4798      	blx	r3
 800282e:	23ff      	movs	r3, #255	; 0xff
 8002830:	6023      	str	r3, [r4, #0]
 8002832:	2000      	movs	r0, #0
 8002834:	bd10      	pop	{r4, pc}
 8002836:	bf00      	nop
 8002838:	20000100 	.word	0x20000100
 800283c:	20000a88 	.word	0x20000a88
 8002840:	20000148 	.word	0x20000148
 8002844:	20000a9c 	.word	0x20000a9c

08002848 <USBD_cdc_GetCfgDesc>:
 8002848:	2343      	movs	r3, #67	; 0x43
 800284a:	4801      	ldr	r0, [pc, #4]	; (8002850 <USBD_cdc_GetCfgDesc+0x8>)
 800284c:	800b      	strh	r3, [r1, #0]
 800284e:	4770      	bx	lr
 8002850:	20000104 	.word	0x20000104

08002854 <usbd_cdc_SOF>:
 8002854:	4a1f      	ldr	r2, [pc, #124]	; (80028d4 <usbd_cdc_SOF+0x80>)
 8002856:	6813      	ldr	r3, [r2, #0]
 8002858:	2b05      	cmp	r3, #5
 800285a:	b570      	push	{r4, r5, r6, lr}
 800285c:	f103 0101 	add.w	r1, r3, #1
 8002860:	d002      	beq.n	8002868 <usbd_cdc_SOF+0x14>
 8002862:	6011      	str	r1, [r2, #0]
 8002864:	2000      	movs	r0, #0
 8002866:	bd70      	pop	{r4, r5, r6, pc}
 8002868:	4d1b      	ldr	r5, [pc, #108]	; (80028d8 <usbd_cdc_SOF+0x84>)
 800286a:	7829      	ldrb	r1, [r5, #0]
 800286c:	2300      	movs	r3, #0
 800286e:	2901      	cmp	r1, #1
 8002870:	6013      	str	r3, [r2, #0]
 8002872:	d0f7      	beq.n	8002864 <usbd_cdc_SOF+0x10>
 8002874:	4e19      	ldr	r6, [pc, #100]	; (80028dc <usbd_cdc_SOF+0x88>)
 8002876:	6831      	ldr	r1, [r6, #0]
 8002878:	f5b1 6f00 	cmp.w	r1, #2048	; 0x800
 800287c:	d020      	beq.n	80028c0 <usbd_cdc_SOF+0x6c>
 800287e:	4b18      	ldr	r3, [pc, #96]	; (80028e0 <usbd_cdc_SOF+0x8c>)
 8002880:	681c      	ldr	r4, [r3, #0]
 8002882:	42a1      	cmp	r1, r4
 8002884:	d023      	beq.n	80028ce <usbd_cdc_SOF+0x7a>
 8002886:	4a17      	ldr	r2, [pc, #92]	; (80028e4 <usbd_cdc_SOF+0x90>)
 8002888:	bf94      	ite	ls
 800288a:	1a64      	subls	r4, r4, r1
 800288c:	f5c1 6400 	rsbhi	r4, r1, #2048	; 0x800
 8002890:	fa12 f281 	uxtah	r2, r2, r1
 8002894:	f8d0 35ec 	ldr.w	r3, [r0, #1516]	; 0x5ec
 8002898:	f8b3 3039 	ldrh.w	r3, [r3, #57]	; 0x39
 800289c:	42a3      	cmp	r3, r4
 800289e:	d20b      	bcs.n	80028b8 <usbd_cdc_SOF+0x64>
 80028a0:	4419      	add	r1, r3
 80028a2:	1ae4      	subs	r4, r4, r3
 80028a4:	6031      	str	r1, [r6, #0]
 80028a6:	4910      	ldr	r1, [pc, #64]	; (80028e8 <usbd_cdc_SOF+0x94>)
 80028a8:	600c      	str	r4, [r1, #0]
 80028aa:	2101      	movs	r1, #1
 80028ac:	7029      	strb	r1, [r5, #0]
 80028ae:	2181      	movs	r1, #129	; 0x81
 80028b0:	f001 fd1a 	bl	80042e8 <DCD_EP_Tx>
 80028b4:	2000      	movs	r0, #0
 80028b6:	bd70      	pop	{r4, r5, r6, pc}
 80028b8:	4421      	add	r1, r4
 80028ba:	4623      	mov	r3, r4
 80028bc:	2400      	movs	r4, #0
 80028be:	e7f1      	b.n	80028a4 <usbd_cdc_SOF+0x50>
 80028c0:	4a07      	ldr	r2, [pc, #28]	; (80028e0 <usbd_cdc_SOF+0x8c>)
 80028c2:	6033      	str	r3, [r6, #0]
 80028c4:	6814      	ldr	r4, [r2, #0]
 80028c6:	b114      	cbz	r4, 80028ce <usbd_cdc_SOF+0x7a>
 80028c8:	4a06      	ldr	r2, [pc, #24]	; (80028e4 <usbd_cdc_SOF+0x90>)
 80028ca:	4619      	mov	r1, r3
 80028cc:	e7e2      	b.n	8002894 <usbd_cdc_SOF+0x40>
 80028ce:	2300      	movs	r3, #0
 80028d0:	702b      	strb	r3, [r5, #0]
 80028d2:	e7c7      	b.n	8002864 <usbd_cdc_SOF+0x10>
 80028d4:	20000a84 	.word	0x20000a84
 80028d8:	20000a8c 	.word	0x20000a8c
 80028dc:	20000a94 	.word	0x20000a94
 80028e0:	20000a98 	.word	0x20000a98
 80028e4:	20000aa4 	.word	0x20000aa4
 80028e8:	20000a90 	.word	0x20000a90

080028ec <usbd_cdc_DataOut>:
 80028ec:	b2c9      	uxtb	r1, r1
 80028ee:	eb01 0181 	add.w	r1, r1, r1, lsl #2
 80028f2:	b530      	push	{r4, r5, lr}
 80028f4:	eb00 01c1 	add.w	r1, r0, r1, lsl #3
 80028f8:	4d09      	ldr	r5, [pc, #36]	; (8002920 <usbd_cdc_DataOut+0x34>)
 80028fa:	4b0a      	ldr	r3, [pc, #40]	; (8002924 <usbd_cdc_DataOut+0x38>)
 80028fc:	f8b1 1388 	ldrh.w	r1, [r1, #904]	; 0x388
 8002900:	691b      	ldr	r3, [r3, #16]
 8002902:	4604      	mov	r4, r0
 8002904:	4628      	mov	r0, r5
 8002906:	4798      	blx	r3
 8002908:	f8d4 35ec 	ldr.w	r3, [r4, #1516]	; 0x5ec
 800290c:	462a      	mov	r2, r5
 800290e:	f8b3 3040 	ldrh.w	r3, [r3, #64]	; 0x40
 8002912:	2101      	movs	r1, #1
 8002914:	4620      	mov	r0, r4
 8002916:	f001 fcc1 	bl	800429c <DCD_EP_PrepareRx>
 800291a:	2000      	movs	r0, #0
 800291c:	bd30      	pop	{r4, r5, pc}
 800291e:	bf00      	nop
 8002920:	200012a4 	.word	0x200012a4
 8002924:	20000148 	.word	0x20000148

08002928 <usbd_cdc_Setup>:
 8002928:	b530      	push	{r4, r5, lr}
 800292a:	780b      	ldrb	r3, [r1, #0]
 800292c:	f013 0260 	ands.w	r2, r3, #96	; 0x60
 8002930:	460c      	mov	r4, r1
 8002932:	4605      	mov	r5, r0
 8002934:	d010      	beq.n	8002958 <usbd_cdc_Setup+0x30>
 8002936:	2a20      	cmp	r2, #32
 8002938:	d117      	bne.n	800296a <usbd_cdc_Setup+0x42>
 800293a:	88ca      	ldrh	r2, [r1, #6]
 800293c:	b1ca      	cbz	r2, 8002972 <usbd_cdc_Setup+0x4a>
 800293e:	061b      	lsls	r3, r3, #24
 8002940:	d534      	bpl.n	80029ac <usbd_cdc_Setup+0x84>
 8002942:	4b20      	ldr	r3, [pc, #128]	; (80029c4 <usbd_cdc_Setup+0x9c>)
 8002944:	4920      	ldr	r1, [pc, #128]	; (80029c8 <usbd_cdc_Setup+0xa0>)
 8002946:	689b      	ldr	r3, [r3, #8]
 8002948:	7860      	ldrb	r0, [r4, #1]
 800294a:	4798      	blx	r3
 800294c:	88e2      	ldrh	r2, [r4, #6]
 800294e:	491e      	ldr	r1, [pc, #120]	; (80029c8 <usbd_cdc_Setup+0xa0>)
 8002950:	4628      	mov	r0, r5
 8002952:	f000 fb09 	bl	8002f68 <USBD_CtlSendData>
 8002956:	e006      	b.n	8002966 <usbd_cdc_Setup+0x3e>
 8002958:	784b      	ldrb	r3, [r1, #1]
 800295a:	2b0a      	cmp	r3, #10
 800295c:	d00f      	beq.n	800297e <usbd_cdc_Setup+0x56>
 800295e:	2b0b      	cmp	r3, #11
 8002960:	d01f      	beq.n	80029a2 <usbd_cdc_Setup+0x7a>
 8002962:	2b06      	cmp	r3, #6
 8002964:	d010      	beq.n	8002988 <usbd_cdc_Setup+0x60>
 8002966:	2000      	movs	r0, #0
 8002968:	bd30      	pop	{r4, r5, pc}
 800296a:	f000 fd7b 	bl	8003464 <USBD_CtlError>
 800296e:	2002      	movs	r0, #2
 8002970:	bd30      	pop	{r4, r5, pc}
 8002972:	4b14      	ldr	r3, [pc, #80]	; (80029c4 <usbd_cdc_Setup+0x9c>)
 8002974:	7848      	ldrb	r0, [r1, #1]
 8002976:	689b      	ldr	r3, [r3, #8]
 8002978:	4611      	mov	r1, r2
 800297a:	4798      	blx	r3
 800297c:	e7f3      	b.n	8002966 <usbd_cdc_Setup+0x3e>
 800297e:	4913      	ldr	r1, [pc, #76]	; (80029cc <usbd_cdc_Setup+0xa4>)
 8002980:	2201      	movs	r2, #1
 8002982:	f000 faf1 	bl	8002f68 <USBD_CtlSendData>
 8002986:	e7ee      	b.n	8002966 <usbd_cdc_Setup+0x3e>
 8002988:	884b      	ldrh	r3, [r1, #2]
 800298a:	0a1b      	lsrs	r3, r3, #8
 800298c:	2b21      	cmp	r3, #33	; 0x21
 800298e:	d103      	bne.n	8002998 <usbd_cdc_Setup+0x70>
 8002990:	88ca      	ldrh	r2, [r1, #6]
 8002992:	2a3a      	cmp	r2, #58	; 0x3a
 8002994:	bf28      	it	cs
 8002996:	223a      	movcs	r2, #58	; 0x3a
 8002998:	490d      	ldr	r1, [pc, #52]	; (80029d0 <usbd_cdc_Setup+0xa8>)
 800299a:	4628      	mov	r0, r5
 800299c:	f000 fae4 	bl	8002f68 <USBD_CtlSendData>
 80029a0:	e7e1      	b.n	8002966 <usbd_cdc_Setup+0x3e>
 80029a2:	788b      	ldrb	r3, [r1, #2]
 80029a4:	b95b      	cbnz	r3, 80029be <usbd_cdc_Setup+0x96>
 80029a6:	4a09      	ldr	r2, [pc, #36]	; (80029cc <usbd_cdc_Setup+0xa4>)
 80029a8:	6013      	str	r3, [r2, #0]
 80029aa:	e7dc      	b.n	8002966 <usbd_cdc_Setup+0x3e>
 80029ac:	4909      	ldr	r1, [pc, #36]	; (80029d4 <usbd_cdc_Setup+0xac>)
 80029ae:	4b0a      	ldr	r3, [pc, #40]	; (80029d8 <usbd_cdc_Setup+0xb0>)
 80029b0:	7864      	ldrb	r4, [r4, #1]
 80029b2:	600c      	str	r4, [r1, #0]
 80029b4:	4904      	ldr	r1, [pc, #16]	; (80029c8 <usbd_cdc_Setup+0xa0>)
 80029b6:	601a      	str	r2, [r3, #0]
 80029b8:	f000 faf0 	bl	8002f9c <USBD_CtlPrepareRx>
 80029bc:	e7d3      	b.n	8002966 <usbd_cdc_Setup+0x3e>
 80029be:	f000 fd51 	bl	8003464 <USBD_CtlError>
 80029c2:	e7d0      	b.n	8002966 <usbd_cdc_Setup+0x3e>
 80029c4:	20000148 	.word	0x20000148
 80029c8:	20000a9c 	.word	0x20000a9c
 80029cc:	200012e4 	.word	0x200012e4
 80029d0:	20000116 	.word	0x20000116
 80029d4:	20000100 	.word	0x20000100
 80029d8:	20000a88 	.word	0x20000a88

080029dc <usbd_cdc_DeInit>:
 80029dc:	b510      	push	{r4, lr}
 80029de:	2181      	movs	r1, #129	; 0x81
 80029e0:	4604      	mov	r4, r0
 80029e2:	f001 fc41 	bl	8004268 <DCD_EP_Close>
 80029e6:	2101      	movs	r1, #1
 80029e8:	4620      	mov	r0, r4
 80029ea:	f001 fc3d 	bl	8004268 <DCD_EP_Close>
 80029ee:	2182      	movs	r1, #130	; 0x82
 80029f0:	4620      	mov	r0, r4
 80029f2:	f001 fc39 	bl	8004268 <DCD_EP_Close>
 80029f6:	4b02      	ldr	r3, [pc, #8]	; (8002a00 <usbd_cdc_DeInit+0x24>)
 80029f8:	685b      	ldr	r3, [r3, #4]
 80029fa:	4798      	blx	r3
 80029fc:	2000      	movs	r0, #0
 80029fe:	bd10      	pop	{r4, pc}
 8002a00:	20000148 	.word	0x20000148

08002a04 <usbd_cdc_Init>:
 8002a04:	f8d0 25ec 	ldr.w	r2, [r0, #1516]	; 0x5ec
 8002a08:	b510      	push	{r4, lr}
 8002a0a:	4604      	mov	r4, r0
 8002a0c:	f8b2 2039 	ldrh.w	r2, [r2, #57]	; 0x39
 8002a10:	2302      	movs	r3, #2
 8002a12:	2181      	movs	r1, #129	; 0x81
 8002a14:	f001 fbee 	bl	80041f4 <DCD_EP_Open>
 8002a18:	f8d4 25ec 	ldr.w	r2, [r4, #1516]	; 0x5ec
 8002a1c:	2302      	movs	r3, #2
 8002a1e:	f8b2 2040 	ldrh.w	r2, [r2, #64]	; 0x40
 8002a22:	2101      	movs	r1, #1
 8002a24:	4620      	mov	r0, r4
 8002a26:	f001 fbe5 	bl	80041f4 <DCD_EP_Open>
 8002a2a:	2303      	movs	r3, #3
 8002a2c:	2208      	movs	r2, #8
 8002a2e:	2182      	movs	r1, #130	; 0x82
 8002a30:	4620      	mov	r0, r4
 8002a32:	f001 fbdf 	bl	80041f4 <DCD_EP_Open>
 8002a36:	4a08      	ldr	r2, [pc, #32]	; (8002a58 <usbd_cdc_Init+0x54>)
 8002a38:	4b08      	ldr	r3, [pc, #32]	; (8002a5c <usbd_cdc_Init+0x58>)
 8002a3a:	2102      	movs	r1, #2
 8002a3c:	8091      	strh	r1, [r2, #4]
 8002a3e:	681b      	ldr	r3, [r3, #0]
 8002a40:	4798      	blx	r3
 8002a42:	f8d4 35ec 	ldr.w	r3, [r4, #1516]	; 0x5ec
 8002a46:	4a06      	ldr	r2, [pc, #24]	; (8002a60 <usbd_cdc_Init+0x5c>)
 8002a48:	f8b3 3040 	ldrh.w	r3, [r3, #64]	; 0x40
 8002a4c:	2101      	movs	r1, #1
 8002a4e:	4620      	mov	r0, r4
 8002a50:	f001 fc24 	bl	800429c <DCD_EP_PrepareRx>
 8002a54:	2000      	movs	r0, #0
 8002a56:	bd10      	pop	{r4, pc}
 8002a58:	20000198 	.word	0x20000198
 8002a5c:	20000148 	.word	0x20000148
 8002a60:	200012a4 	.word	0x200012a4

08002a64 <usbd_cdc_DataIn>:
 8002a64:	b570      	push	{r4, r5, r6, lr}
 8002a66:	4b13      	ldr	r3, [pc, #76]	; (8002ab4 <usbd_cdc_DataIn+0x50>)
 8002a68:	781a      	ldrb	r2, [r3, #0]
 8002a6a:	2a01      	cmp	r2, #1
 8002a6c:	d001      	beq.n	8002a72 <usbd_cdc_DataIn+0xe>
 8002a6e:	2000      	movs	r0, #0
 8002a70:	bd70      	pop	{r4, r5, r6, pc}
 8002a72:	4c11      	ldr	r4, [pc, #68]	; (8002ab8 <usbd_cdc_DataIn+0x54>)
 8002a74:	6821      	ldr	r1, [r4, #0]
 8002a76:	b199      	cbz	r1, 8002aa0 <usbd_cdc_DataIn+0x3c>
 8002a78:	f8d0 35ec 	ldr.w	r3, [r0, #1516]	; 0x5ec
 8002a7c:	4d0f      	ldr	r5, [pc, #60]	; (8002abc <usbd_cdc_DataIn+0x58>)
 8002a7e:	f8b3 3039 	ldrh.w	r3, [r3, #57]	; 0x39
 8002a82:	4299      	cmp	r1, r3
 8002a84:	d90f      	bls.n	8002aa6 <usbd_cdc_DataIn+0x42>
 8002a86:	1ace      	subs	r6, r1, r3
 8002a88:	6829      	ldr	r1, [r5, #0]
 8002a8a:	b28a      	uxth	r2, r1
 8002a8c:	4419      	add	r1, r3
 8002a8e:	6026      	str	r6, [r4, #0]
 8002a90:	4c0b      	ldr	r4, [pc, #44]	; (8002ac0 <usbd_cdc_DataIn+0x5c>)
 8002a92:	6029      	str	r1, [r5, #0]
 8002a94:	4422      	add	r2, r4
 8002a96:	2181      	movs	r1, #129	; 0x81
 8002a98:	f001 fc26 	bl	80042e8 <DCD_EP_Tx>
 8002a9c:	2000      	movs	r0, #0
 8002a9e:	bd70      	pop	{r4, r5, r6, pc}
 8002aa0:	7019      	strb	r1, [r3, #0]
 8002aa2:	2000      	movs	r0, #0
 8002aa4:	bd70      	pop	{r4, r5, r6, pc}
 8002aa6:	682a      	ldr	r2, [r5, #0]
 8002aa8:	460b      	mov	r3, r1
 8002aaa:	2600      	movs	r6, #0
 8002aac:	4411      	add	r1, r2
 8002aae:	b292      	uxth	r2, r2
 8002ab0:	e7ed      	b.n	8002a8e <usbd_cdc_DataIn+0x2a>
 8002ab2:	bf00      	nop
 8002ab4:	20000a8c 	.word	0x20000a8c
 8002ab8:	20000a90 	.word	0x20000a90
 8002abc:	20000a94 	.word	0x20000a94
 8002ac0:	20000aa4 	.word	0x20000aa4

08002ac4 <VCP_Init>:
 8002ac4:	2000      	movs	r0, #0
 8002ac6:	4770      	bx	lr

08002ac8 <VCP_Ctrl>:
 8002ac8:	2820      	cmp	r0, #32
 8002aca:	b410      	push	{r4}
 8002acc:	d014      	beq.n	8002af8 <VCP_Ctrl+0x30>
 8002ace:	2821      	cmp	r0, #33	; 0x21
 8002ad0:	d10f      	bne.n	8002af2 <VCP_Ctrl+0x2a>
 8002ad2:	4b10      	ldr	r3, [pc, #64]	; (8002b14 <VCP_Ctrl+0x4c>)
 8002ad4:	681a      	ldr	r2, [r3, #0]
 8002ad6:	700a      	strb	r2, [r1, #0]
 8002ad8:	681a      	ldr	r2, [r3, #0]
 8002ada:	0a12      	lsrs	r2, r2, #8
 8002adc:	704a      	strb	r2, [r1, #1]
 8002ade:	885a      	ldrh	r2, [r3, #2]
 8002ae0:	708a      	strb	r2, [r1, #2]
 8002ae2:	78da      	ldrb	r2, [r3, #3]
 8002ae4:	70ca      	strb	r2, [r1, #3]
 8002ae6:	791a      	ldrb	r2, [r3, #4]
 8002ae8:	710a      	strb	r2, [r1, #4]
 8002aea:	795a      	ldrb	r2, [r3, #5]
 8002aec:	714a      	strb	r2, [r1, #5]
 8002aee:	799b      	ldrb	r3, [r3, #6]
 8002af0:	718b      	strb	r3, [r1, #6]
 8002af2:	2000      	movs	r0, #0
 8002af4:	bc10      	pop	{r4}
 8002af6:	4770      	bx	lr
 8002af8:	4b06      	ldr	r3, [pc, #24]	; (8002b14 <VCP_Ctrl+0x4c>)
 8002afa:	f891 c004 	ldrb.w	ip, [r1, #4]
 8002afe:	7948      	ldrb	r0, [r1, #5]
 8002b00:	798a      	ldrb	r2, [r1, #6]
 8002b02:	680c      	ldr	r4, [r1, #0]
 8002b04:	7158      	strb	r0, [r3, #5]
 8002b06:	f883 c004 	strb.w	ip, [r3, #4]
 8002b0a:	719a      	strb	r2, [r3, #6]
 8002b0c:	601c      	str	r4, [r3, #0]
 8002b0e:	2000      	movs	r0, #0
 8002b10:	bc10      	pop	{r4}
 8002b12:	4770      	bx	lr
 8002b14:	2000015c 	.word	0x2000015c

08002b18 <VCP_DataTx>:
 8002b18:	b510      	push	{r4, lr}
 8002b1a:	b199      	cbz	r1, 8002b44 <VCP_DataTx+0x2c>
 8002b1c:	eb00 0e01 	add.w	lr, r0, r1
 8002b20:	4c09      	ldr	r4, [pc, #36]	; (8002b48 <VCP_DataTx+0x30>)
 8002b22:	490a      	ldr	r1, [pc, #40]	; (8002b4c <VCP_DataTx+0x34>)
 8002b24:	3801      	subs	r0, #1
 8002b26:	f10e 3eff 	add.w	lr, lr, #4294967295	; 0xffffffff
 8002b2a:	680a      	ldr	r2, [r1, #0]
 8002b2c:	f810 cf01 	ldrb.w	ip, [r0, #1]!
 8002b30:	f804 c002 	strb.w	ip, [r4, r2]
 8002b34:	1c53      	adds	r3, r2, #1
 8002b36:	f5b3 6f00 	cmp.w	r3, #2048	; 0x800
 8002b3a:	bf08      	it	eq
 8002b3c:	2300      	moveq	r3, #0
 8002b3e:	4586      	cmp	lr, r0
 8002b40:	600b      	str	r3, [r1, #0]
 8002b42:	d1f2      	bne.n	8002b2a <VCP_DataTx+0x12>
 8002b44:	2000      	movs	r0, #0
 8002b46:	bd10      	pop	{r4, pc}
 8002b48:	20000aa4 	.word	0x20000aa4
 8002b4c:	20000a98 	.word	0x20000a98

08002b50 <VCP_DataRx>:
 8002b50:	b570      	push	{r4, r5, r6, lr}
 8002b52:	b1f1      	cbz	r1, 8002b92 <VCP_DataRx+0x42>
 8002b54:	4b10      	ldr	r3, [pc, #64]	; (8002b98 <VCP_DataRx+0x48>)
 8002b56:	4c11      	ldr	r4, [pc, #68]	; (8002b9c <VCP_DataRx+0x4c>)
 8002b58:	681e      	ldr	r6, [r3, #0]
 8002b5a:	4d11      	ldr	r5, [pc, #68]	; (8002ba0 <VCP_DataRx+0x50>)
 8002b5c:	6823      	ldr	r3, [r4, #0]
 8002b5e:	4401      	add	r1, r0
 8002b60:	f101 3eff 	add.w	lr, r1, #4294967295	; 0xffffffff
 8002b64:	3801      	subs	r0, #1
 8002b66:	e002      	b.n	8002b6e <VCP_DataRx+0x1e>
 8002b68:	4570      	cmp	r0, lr
 8002b6a:	4613      	mov	r3, r2
 8002b6c:	d011      	beq.n	8002b92 <VCP_DataRx+0x42>
 8002b6e:	2b7f      	cmp	r3, #127	; 0x7f
 8002b70:	bf08      	it	eq
 8002b72:	2100      	moveq	r1, #0
 8002b74:	f103 0201 	add.w	r2, r3, #1
 8002b78:	bf08      	it	eq
 8002b7a:	460a      	moveq	r2, r1
 8002b7c:	f810 cf01 	ldrb.w	ip, [r0, #1]!
 8002b80:	f805 c003 	strb.w	ip, [r5, r3]
 8002b84:	bf18      	it	ne
 8002b86:	4611      	movne	r1, r2
 8002b88:	4296      	cmp	r6, r2
 8002b8a:	6021      	str	r1, [r4, #0]
 8002b8c:	d1ec      	bne.n	8002b68 <VCP_DataRx+0x18>
 8002b8e:	2002      	movs	r0, #2
 8002b90:	bd70      	pop	{r4, r5, r6, pc}
 8002b92:	2000      	movs	r0, #0
 8002b94:	bd70      	pop	{r4, r5, r6, pc}
 8002b96:	bf00      	nop
 8002b98:	200012e8 	.word	0x200012e8
 8002b9c:	200012ec 	.word	0x200012ec
 8002ba0:	200012f0 	.word	0x200012f0

08002ba4 <VCP_DeInit>:
 8002ba4:	2000      	movs	r0, #0
 8002ba6:	4770      	bx	lr

08002ba8 <VCP_putchar>:
 8002ba8:	4a06      	ldr	r2, [pc, #24]	; (8002bc4 <VCP_putchar+0x1c>)
 8002baa:	6811      	ldr	r1, [r2, #0]
 8002bac:	b410      	push	{r4}
 8002bae:	1c4b      	adds	r3, r1, #1
 8002bb0:	4c05      	ldr	r4, [pc, #20]	; (8002bc8 <VCP_putchar+0x20>)
 8002bb2:	f5b3 6f00 	cmp.w	r3, #2048	; 0x800
 8002bb6:	5460      	strb	r0, [r4, r1]
 8002bb8:	bf08      	it	eq
 8002bba:	2300      	moveq	r3, #0
 8002bbc:	bc10      	pop	{r4}
 8002bbe:	6013      	str	r3, [r2, #0]
 8002bc0:	4770      	bx	lr
 8002bc2:	bf00      	nop
 8002bc4:	20000a98 	.word	0x20000a98
 8002bc8:	20000aa4 	.word	0x20000aa4

08002bcc <VCP_kbhit>:
 8002bcc:	4a03      	ldr	r2, [pc, #12]	; (8002bdc <VCP_kbhit+0x10>)
 8002bce:	4b04      	ldr	r3, [pc, #16]	; (8002be0 <VCP_kbhit+0x14>)
 8002bd0:	6810      	ldr	r0, [r2, #0]
 8002bd2:	681b      	ldr	r3, [r3, #0]
 8002bd4:	1ac0      	subs	r0, r0, r3
 8002bd6:	bf18      	it	ne
 8002bd8:	2001      	movne	r0, #1
 8002bda:	4770      	bx	lr
 8002bdc:	200012ec 	.word	0x200012ec
 8002be0:	200012e8 	.word	0x200012e8

08002be4 <VCP_getchar>:
 8002be4:	4b0b      	ldr	r3, [pc, #44]	; (8002c14 <VCP_getchar+0x30>)
 8002be6:	4a0c      	ldr	r2, [pc, #48]	; (8002c18 <VCP_getchar+0x34>)
 8002be8:	b410      	push	{r4}
 8002bea:	6811      	ldr	r1, [r2, #0]
 8002bec:	681c      	ldr	r4, [r3, #0]
 8002bee:	428c      	cmp	r4, r1
 8002bf0:	4603      	mov	r3, r0
 8002bf2:	d00c      	beq.n	8002c0e <VCP_getchar+0x2a>
 8002bf4:	4c09      	ldr	r4, [pc, #36]	; (8002c1c <VCP_getchar+0x38>)
 8002bf6:	5c61      	ldrb	r1, [r4, r1]
 8002bf8:	7019      	strb	r1, [r3, #0]
 8002bfa:	6811      	ldr	r1, [r2, #0]
 8002bfc:	bc10      	pop	{r4}
 8002bfe:	2001      	movs	r0, #1
 8002c00:	297f      	cmp	r1, #127	; 0x7f
 8002c02:	eb01 0300 	add.w	r3, r1, r0
 8002c06:	bf08      	it	eq
 8002c08:	2300      	moveq	r3, #0
 8002c0a:	6013      	str	r3, [r2, #0]
 8002c0c:	4770      	bx	lr
 8002c0e:	2000      	movs	r0, #0
 8002c10:	bc10      	pop	{r4}
 8002c12:	4770      	bx	lr
 8002c14:	200012ec 	.word	0x200012ec
 8002c18:	200012e8 	.word	0x200012e8
 8002c1c:	200012f0 	.word	0x200012f0

08002c20 <USBD_Resume>:
 8002c20:	b510      	push	{r4, lr}
 8002c22:	f8d0 35e4 	ldr.w	r3, [r0, #1508]	; 0x5e4
 8002c26:	4604      	mov	r4, r0
 8002c28:	691b      	ldr	r3, [r3, #16]
 8002c2a:	4798      	blx	r3
 8002c2c:	2303      	movs	r3, #3
 8002c2e:	f884 3112 	strb.w	r3, [r4, #274]	; 0x112
 8002c32:	2000      	movs	r0, #0
 8002c34:	bd10      	pop	{r4, pc}
 8002c36:	bf00      	nop

08002c38 <USBD_Suspend>:
 8002c38:	b500      	push	{lr}
 8002c3a:	f8d0 35e4 	ldr.w	r3, [r0, #1508]	; 0x5e4
 8002c3e:	2204      	movs	r2, #4
 8002c40:	f880 2112 	strb.w	r2, [r0, #274]	; 0x112
 8002c44:	68db      	ldr	r3, [r3, #12]
 8002c46:	4798      	blx	r3
 8002c48:	2000      	movs	r0, #0
 8002c4a:	f85d fb04 	ldr.w	pc, [sp], #4
 8002c4e:	bf00      	nop

08002c50 <USBD_SOF>:
 8002c50:	f8d0 35e0 	ldr.w	r3, [r0, #1504]	; 0x5e0
 8002c54:	69db      	ldr	r3, [r3, #28]
 8002c56:	b500      	push	{lr}
 8002c58:	b103      	cbz	r3, 8002c5c <USBD_SOF+0xc>
 8002c5a:	4798      	blx	r3
 8002c5c:	2000      	movs	r0, #0
 8002c5e:	f85d fb04 	ldr.w	pc, [sp], #4
 8002c62:	bf00      	nop

08002c64 <USBD_IsoINIncomplete>:
 8002c64:	b500      	push	{lr}
 8002c66:	f8d0 35e0 	ldr.w	r3, [r0, #1504]	; 0x5e0
 8002c6a:	6a1b      	ldr	r3, [r3, #32]
 8002c6c:	4798      	blx	r3
 8002c6e:	2000      	movs	r0, #0
 8002c70:	f85d fb04 	ldr.w	pc, [sp], #4

08002c74 <USBD_IsoOUTIncomplete>:
 8002c74:	b500      	push	{lr}
 8002c76:	f8d0 35e0 	ldr.w	r3, [r0, #1504]	; 0x5e0
 8002c7a:	6a5b      	ldr	r3, [r3, #36]	; 0x24
 8002c7c:	4798      	blx	r3
 8002c7e:	2000      	movs	r0, #0
 8002c80:	f85d fb04 	ldr.w	pc, [sp], #4

08002c84 <USBD_DevConnected>:
 8002c84:	b500      	push	{lr}
 8002c86:	f8d0 35e4 	ldr.w	r3, [r0, #1508]	; 0x5e4
 8002c8a:	695b      	ldr	r3, [r3, #20]
 8002c8c:	4798      	blx	r3
 8002c8e:	2000      	movs	r0, #0
 8002c90:	f85d fb04 	ldr.w	pc, [sp], #4

08002c94 <USBD_DevDisconnected>:
 8002c94:	f8d0 35e4 	ldr.w	r3, [r0, #1508]	; 0x5e4
 8002c98:	b510      	push	{r4, lr}
 8002c9a:	4604      	mov	r4, r0
 8002c9c:	699b      	ldr	r3, [r3, #24]
 8002c9e:	4798      	blx	r3
 8002ca0:	f8d4 35e0 	ldr.w	r3, [r4, #1504]	; 0x5e0
 8002ca4:	2100      	movs	r1, #0
 8002ca6:	685b      	ldr	r3, [r3, #4]
 8002ca8:	4620      	mov	r0, r4
 8002caa:	4798      	blx	r3
 8002cac:	2000      	movs	r0, #0
 8002cae:	bd10      	pop	{r4, pc}

08002cb0 <USBD_Reset>:
 8002cb0:	2300      	movs	r3, #0
 8002cb2:	b510      	push	{r4, lr}
 8002cb4:	4619      	mov	r1, r3
 8002cb6:	4604      	mov	r4, r0
 8002cb8:	2240      	movs	r2, #64	; 0x40
 8002cba:	f001 fa9b 	bl	80041f4 <DCD_EP_Open>
 8002cbe:	2180      	movs	r1, #128	; 0x80
 8002cc0:	2300      	movs	r3, #0
 8002cc2:	2240      	movs	r2, #64	; 0x40
 8002cc4:	4620      	mov	r0, r4
 8002cc6:	f001 fa95 	bl	80041f4 <DCD_EP_Open>
 8002cca:	f8d4 35e4 	ldr.w	r3, [r4, #1508]	; 0x5e4
 8002cce:	78a0      	ldrb	r0, [r4, #2]
 8002cd0:	2201      	movs	r2, #1
 8002cd2:	f884 2112 	strb.w	r2, [r4, #274]	; 0x112
 8002cd6:	685b      	ldr	r3, [r3, #4]
 8002cd8:	4798      	blx	r3
 8002cda:	2000      	movs	r0, #0
 8002cdc:	bd10      	pop	{r4, pc}
 8002cde:	bf00      	nop

08002ce0 <USBD_SetupStage>:
 8002ce0:	b510      	push	{r4, lr}
 8002ce2:	b082      	sub	sp, #8
 8002ce4:	4669      	mov	r1, sp
 8002ce6:	4604      	mov	r4, r0
 8002ce8:	f000 fbaa 	bl	8003440 <USBD_ParseSetupRequest>
 8002cec:	f89d 1000 	ldrb.w	r1, [sp]
 8002cf0:	f001 031f 	and.w	r3, r1, #31
 8002cf4:	2b01      	cmp	r3, #1
 8002cf6:	d00a      	beq.n	8002d0e <USBD_SetupStage+0x2e>
 8002cf8:	2b02      	cmp	r3, #2
 8002cfa:	d016      	beq.n	8002d2a <USBD_SetupStage+0x4a>
 8002cfc:	b173      	cbz	r3, 8002d1c <USBD_SetupStage+0x3c>
 8002cfe:	f001 0180 	and.w	r1, r1, #128	; 0x80
 8002d02:	4620      	mov	r0, r4
 8002d04:	f001 fb14 	bl	8004330 <DCD_EP_Stall>
 8002d08:	2000      	movs	r0, #0
 8002d0a:	b002      	add	sp, #8
 8002d0c:	bd10      	pop	{r4, pc}
 8002d0e:	4669      	mov	r1, sp
 8002d10:	4620      	mov	r0, r4
 8002d12:	f000 faf9 	bl	8003308 <USBD_StdItfReq>
 8002d16:	2000      	movs	r0, #0
 8002d18:	b002      	add	sp, #8
 8002d1a:	bd10      	pop	{r4, pc}
 8002d1c:	4669      	mov	r1, sp
 8002d1e:	4620      	mov	r0, r4
 8002d20:	f000 f976 	bl	8003010 <USBD_StdDevReq>
 8002d24:	2000      	movs	r0, #0
 8002d26:	b002      	add	sp, #8
 8002d28:	bd10      	pop	{r4, pc}
 8002d2a:	4669      	mov	r1, sp
 8002d2c:	4620      	mov	r0, r4
 8002d2e:	f000 fb15 	bl	800335c <USBD_StdEPReq>
 8002d32:	2000      	movs	r0, #0
 8002d34:	b002      	add	sp, #8
 8002d36:	bd10      	pop	{r4, pc}

08002d38 <USBD_DataInStage>:
 8002d38:	f011 01ff 	ands.w	r1, r1, #255	; 0xff
 8002d3c:	b530      	push	{r4, r5, lr}
 8002d3e:	4604      	mov	r4, r0
 8002d40:	d105      	bne.n	8002d4e <USBD_DataInStage+0x16>
 8002d42:	f890 3111 	ldrb.w	r3, [r0, #273]	; 0x111
 8002d46:	2b02      	cmp	r3, #2
 8002d48:	d00d      	beq.n	8002d66 <USBD_DataInStage+0x2e>
 8002d4a:	2000      	movs	r0, #0
 8002d4c:	bd30      	pop	{r4, r5, pc}
 8002d4e:	f8d0 35e0 	ldr.w	r3, [r0, #1504]	; 0x5e0
 8002d52:	695b      	ldr	r3, [r3, #20]
 8002d54:	2b00      	cmp	r3, #0
 8002d56:	d0f8      	beq.n	8002d4a <USBD_DataInStage+0x12>
 8002d58:	f890 2112 	ldrb.w	r2, [r0, #274]	; 0x112
 8002d5c:	2a03      	cmp	r2, #3
 8002d5e:	d1f4      	bne.n	8002d4a <USBD_DataInStage+0x12>
 8002d60:	4798      	blx	r3
 8002d62:	2000      	movs	r0, #0
 8002d64:	bd30      	pop	{r4, r5, pc}
 8002d66:	f8d0 2134 	ldr.w	r2, [r0, #308]	; 0x134
 8002d6a:	f8d0 3120 	ldr.w	r3, [r0, #288]	; 0x120
 8002d6e:	429a      	cmp	r2, r3
 8002d70:	d910      	bls.n	8002d94 <USBD_DataInStage+0x5c>
 8002d72:	78c1      	ldrb	r1, [r0, #3]
 8002d74:	2901      	cmp	r1, #1
 8002d76:	f8d0 1124 	ldr.w	r1, [r0, #292]	; 0x124
 8002d7a:	eba2 0203 	sub.w	r2, r2, r3
 8002d7e:	bf08      	it	eq
 8002d80:	18c9      	addeq	r1, r1, r3
 8002d82:	f8c0 2134 	str.w	r2, [r0, #308]	; 0x134
 8002d86:	bf08      	it	eq
 8002d88:	f8c0 1124 	streq.w	r1, [r0, #292]	; 0x124
 8002d8c:	b292      	uxth	r2, r2
 8002d8e:	f000 f8fb 	bl	8002f88 <USBD_CtlContinueSendData>
 8002d92:	e7da      	b.n	8002d4a <USBD_DataInStage+0x12>
 8002d94:	f8d0 2138 	ldr.w	r2, [r0, #312]	; 0x138
 8002d98:	fbb2 f5f3 	udiv	r5, r2, r3
 8002d9c:	fb03 2515 	mls	r5, r3, r5, r2
 8002da0:	b965      	cbnz	r5, 8002dbc <USBD_DataInStage+0x84>
 8002da2:	4293      	cmp	r3, r2
 8002da4:	d80a      	bhi.n	8002dbc <USBD_DataInStage+0x84>
 8002da6:	f8d0 313c 	ldr.w	r3, [r0, #316]	; 0x13c
 8002daa:	429a      	cmp	r2, r3
 8002dac:	d206      	bcs.n	8002dbc <USBD_DataInStage+0x84>
 8002dae:	462a      	mov	r2, r5
 8002db0:	4629      	mov	r1, r5
 8002db2:	f000 f8e9 	bl	8002f88 <USBD_CtlContinueSendData>
 8002db6:	f8c4 513c 	str.w	r5, [r4, #316]	; 0x13c
 8002dba:	e7c6      	b.n	8002d4a <USBD_DataInStage+0x12>
 8002dbc:	f8d4 35e0 	ldr.w	r3, [r4, #1504]	; 0x5e0
 8002dc0:	68db      	ldr	r3, [r3, #12]
 8002dc2:	b11b      	cbz	r3, 8002dcc <USBD_DataInStage+0x94>
 8002dc4:	f894 2112 	ldrb.w	r2, [r4, #274]	; 0x112
 8002dc8:	2a03      	cmp	r2, #3
 8002dca:	d003      	beq.n	8002dd4 <USBD_DataInStage+0x9c>
 8002dcc:	4620      	mov	r0, r4
 8002dce:	f000 f90f 	bl	8002ff0 <USBD_CtlReceiveStatus>
 8002dd2:	e7ba      	b.n	8002d4a <USBD_DataInStage+0x12>
 8002dd4:	4620      	mov	r0, r4
 8002dd6:	4798      	blx	r3
 8002dd8:	e7f8      	b.n	8002dcc <USBD_DataInStage+0x94>
 8002dda:	bf00      	nop

08002ddc <USBD_DataOutStage>:
 8002ddc:	f011 01ff 	ands.w	r1, r1, #255	; 0xff
 8002de0:	b510      	push	{r4, lr}
 8002de2:	4604      	mov	r4, r0
 8002de4:	d105      	bne.n	8002df2 <USBD_DataOutStage+0x16>
 8002de6:	f890 3111 	ldrb.w	r3, [r0, #273]	; 0x111
 8002dea:	2b03      	cmp	r3, #3
 8002dec:	d00d      	beq.n	8002e0a <USBD_DataOutStage+0x2e>
 8002dee:	2000      	movs	r0, #0
 8002df0:	bd10      	pop	{r4, pc}
 8002df2:	f8d0 35e0 	ldr.w	r3, [r0, #1504]	; 0x5e0
 8002df6:	699b      	ldr	r3, [r3, #24]
 8002df8:	2b00      	cmp	r3, #0
 8002dfa:	d0f8      	beq.n	8002dee <USBD_DataOutStage+0x12>
 8002dfc:	f890 2112 	ldrb.w	r2, [r0, #274]	; 0x112
 8002e00:	2a03      	cmp	r2, #3
 8002e02:	d1f4      	bne.n	8002dee <USBD_DataOutStage+0x12>
 8002e04:	4798      	blx	r3
 8002e06:	2000      	movs	r0, #0
 8002e08:	bd10      	pop	{r4, pc}
 8002e0a:	f8d0 338c 	ldr.w	r3, [r0, #908]	; 0x38c
 8002e0e:	f8d0 2378 	ldr.w	r2, [r0, #888]	; 0x378
 8002e12:	4293      	cmp	r3, r2
 8002e14:	d912      	bls.n	8002e3c <USBD_DataOutStage+0x60>
 8002e16:	78c1      	ldrb	r1, [r0, #3]
 8002e18:	2901      	cmp	r1, #1
 8002e1a:	f8d0 137c 	ldr.w	r1, [r0, #892]	; 0x37c
 8002e1e:	eba3 0302 	sub.w	r3, r3, r2
 8002e22:	bf04      	itt	eq
 8002e24:	1889      	addeq	r1, r1, r2
 8002e26:	f8c0 137c 	streq.w	r1, [r0, #892]	; 0x37c
 8002e2a:	429a      	cmp	r2, r3
 8002e2c:	bf28      	it	cs
 8002e2e:	461a      	movcs	r2, r3
 8002e30:	f8c0 338c 	str.w	r3, [r0, #908]	; 0x38c
 8002e34:	b292      	uxth	r2, r2
 8002e36:	f000 f8c1 	bl	8002fbc <USBD_CtlContinueRx>
 8002e3a:	e7d8      	b.n	8002dee <USBD_DataOutStage+0x12>
 8002e3c:	f8d0 35e0 	ldr.w	r3, [r0, #1504]	; 0x5e0
 8002e40:	691b      	ldr	r3, [r3, #16]
 8002e42:	b11b      	cbz	r3, 8002e4c <USBD_DataOutStage+0x70>
 8002e44:	f890 2112 	ldrb.w	r2, [r0, #274]	; 0x112
 8002e48:	2a03      	cmp	r2, #3
 8002e4a:	d003      	beq.n	8002e54 <USBD_DataOutStage+0x78>
 8002e4c:	4620      	mov	r0, r4
 8002e4e:	f000 f8bf 	bl	8002fd0 <USBD_CtlSendStatus>
 8002e52:	e7cc      	b.n	8002dee <USBD_DataOutStage+0x12>
 8002e54:	4798      	blx	r3
 8002e56:	e7f9      	b.n	8002e4c <USBD_DataOutStage+0x70>

08002e58 <USBD_Init>:
 8002e58:	e92d 41f0 	stmdb	sp!, {r4, r5, r6, r7, r8, lr}
 8002e5c:	4604      	mov	r4, r0
 8002e5e:	4615      	mov	r5, r2
 8002e60:	461e      	mov	r6, r3
 8002e62:	f8dd 8018 	ldr.w	r8, [sp, #24]
 8002e66:	460f      	mov	r7, r1
 8002e68:	f000 fcb8 	bl	80037dc <USB_OTG_BSP_Init>
 8002e6c:	4620      	mov	r0, r4
 8002e6e:	4639      	mov	r1, r7
 8002e70:	f8c4 65e0 	str.w	r6, [r4, #1504]	; 0x5e0
 8002e74:	f8c4 85e4 	str.w	r8, [r4, #1508]	; 0x5e4
 8002e78:	f8c4 55e8 	str.w	r5, [r4, #1512]	; 0x5e8
 8002e7c:	f001 f970 	bl	8004160 <DCD_Init>
 8002e80:	f8d4 35e4 	ldr.w	r3, [r4, #1508]	; 0x5e4
 8002e84:	681b      	ldr	r3, [r3, #0]
 8002e86:	4798      	blx	r3
 8002e88:	4620      	mov	r0, r4
 8002e8a:	e8bd 41f0 	ldmia.w	sp!, {r4, r5, r6, r7, r8, lr}
 8002e8e:	f000 bced 	b.w	800386c <USB_OTG_BSP_EnableInterrupt>
 8002e92:	bf00      	nop

08002e94 <USBD_SetCfg>:
 8002e94:	f8d0 35e0 	ldr.w	r3, [r0, #1504]	; 0x5e0
 8002e98:	b510      	push	{r4, lr}
 8002e9a:	4604      	mov	r4, r0
 8002e9c:	b2c9      	uxtb	r1, r1
 8002e9e:	681b      	ldr	r3, [r3, #0]
 8002ea0:	4798      	blx	r3
 8002ea2:	f8d4 35e4 	ldr.w	r3, [r4, #1508]	; 0x5e4
 8002ea6:	689b      	ldr	r3, [r3, #8]
 8002ea8:	4798      	blx	r3
 8002eaa:	2000      	movs	r0, #0
 8002eac:	bd10      	pop	{r4, pc}
 8002eae:	bf00      	nop

08002eb0 <USBD_ClrCfg>:
 8002eb0:	b500      	push	{lr}
 8002eb2:	f8d0 35e0 	ldr.w	r3, [r0, #1504]	; 0x5e0
 8002eb6:	b2c9      	uxtb	r1, r1
 8002eb8:	685b      	ldr	r3, [r3, #4]
 8002eba:	4798      	blx	r3
 8002ebc:	2000      	movs	r0, #0
 8002ebe:	f85d fb04 	ldr.w	pc, [sp], #4
 8002ec2:	bf00      	nop

08002ec4 <USBD_USR_DeviceDescriptor>:
 8002ec4:	2312      	movs	r3, #18
 8002ec6:	4801      	ldr	r0, [pc, #4]	; (8002ecc <USBD_USR_DeviceDescriptor+0x8>)
 8002ec8:	800b      	strh	r3, [r1, #0]
 8002eca:	4770      	bx	lr
 8002ecc:	20000198 	.word	0x20000198

08002ed0 <USBD_USR_LangIDStrDescriptor>:
 8002ed0:	2304      	movs	r3, #4
 8002ed2:	4801      	ldr	r0, [pc, #4]	; (8002ed8 <USBD_USR_LangIDStrDescriptor+0x8>)
 8002ed4:	800b      	strh	r3, [r1, #0]
 8002ed6:	4770      	bx	lr
 8002ed8:	20000194 	.word	0x20000194

08002edc <USBD_USR_ProductStrDescriptor>:
 8002edc:	b510      	push	{r4, lr}
 8002ede:	4c04      	ldr	r4, [pc, #16]	; (8002ef0 <USBD_USR_ProductStrDescriptor+0x14>)
 8002ee0:	4804      	ldr	r0, [pc, #16]	; (8002ef4 <USBD_USR_ProductStrDescriptor+0x18>)
 8002ee2:	460a      	mov	r2, r1
 8002ee4:	4621      	mov	r1, r4
 8002ee6:	f000 fad7 	bl	8003498 <USBD_GetString>
 8002eea:	4620      	mov	r0, r4
 8002eec:	bd10      	pop	{r4, pc}
 8002eee:	bf00      	nop
 8002ef0:	20001374 	.word	0x20001374
 8002ef4:	08004a60 	.word	0x08004a60

08002ef8 <USBD_USR_ManufacturerStrDescriptor>:
 8002ef8:	b510      	push	{r4, lr}
 8002efa:	4c04      	ldr	r4, [pc, #16]	; (8002f0c <USBD_USR_ManufacturerStrDescriptor+0x14>)
 8002efc:	4804      	ldr	r0, [pc, #16]	; (8002f10 <USBD_USR_ManufacturerStrDescriptor+0x18>)
 8002efe:	460a      	mov	r2, r1
 8002f00:	4621      	mov	r1, r4
 8002f02:	f000 fac9 	bl	8003498 <USBD_GetString>
 8002f06:	4620      	mov	r0, r4
 8002f08:	bd10      	pop	{r4, pc}
 8002f0a:	bf00      	nop
 8002f0c:	20001374 	.word	0x20001374
 8002f10:	08004a78 	.word	0x08004a78

08002f14 <USBD_USR_SerialStrDescriptor>:
 8002f14:	b510      	push	{r4, lr}
 8002f16:	4c04      	ldr	r4, [pc, #16]	; (8002f28 <USBD_USR_SerialStrDescriptor+0x14>)
 8002f18:	4804      	ldr	r0, [pc, #16]	; (8002f2c <USBD_USR_SerialStrDescriptor+0x18>)
 8002f1a:	460a      	mov	r2, r1
 8002f1c:	4621      	mov	r1, r4
 8002f1e:	f000 fabb 	bl	8003498 <USBD_GetString>
 8002f22:	4620      	mov	r0, r4
 8002f24:	bd10      	pop	{r4, pc}
 8002f26:	bf00      	nop
 8002f28:	20001374 	.word	0x20001374
 8002f2c:	08004a8c 	.word	0x08004a8c

08002f30 <USBD_USR_ConfigStrDescriptor>:
 8002f30:	b510      	push	{r4, lr}
 8002f32:	4c04      	ldr	r4, [pc, #16]	; (8002f44 <USBD_USR_ConfigStrDescriptor+0x14>)
 8002f34:	4804      	ldr	r0, [pc, #16]	; (8002f48 <USBD_USR_ConfigStrDescriptor+0x18>)
 8002f36:	460a      	mov	r2, r1
 8002f38:	4621      	mov	r1, r4
 8002f3a:	f000 faad 	bl	8003498 <USBD_GetString>
 8002f3e:	4620      	mov	r0, r4
 8002f40:	bd10      	pop	{r4, pc}
 8002f42:	bf00      	nop
 8002f44:	20001374 	.word	0x20001374
 8002f48:	08004a9c 	.word	0x08004a9c

08002f4c <USBD_USR_InterfaceStrDescriptor>:
 8002f4c:	b510      	push	{r4, lr}
 8002f4e:	4c04      	ldr	r4, [pc, #16]	; (8002f60 <USBD_USR_InterfaceStrDescriptor+0x14>)
 8002f50:	4804      	ldr	r0, [pc, #16]	; (8002f64 <USBD_USR_InterfaceStrDescriptor+0x18>)
 8002f52:	460a      	mov	r2, r1
 8002f54:	4621      	mov	r1, r4
 8002f56:	f000 fa9f 	bl	8003498 <USBD_GetString>
 8002f5a:	4620      	mov	r0, r4
 8002f5c:	bd10      	pop	{r4, pc}
 8002f5e:	bf00      	nop
 8002f60:	20001374 	.word	0x20001374
 8002f64:	08004aa8 	.word	0x08004aa8

08002f68 <USBD_CtlSendData>:
 8002f68:	b500      	push	{lr}
 8002f6a:	b293      	uxth	r3, r2
 8002f6c:	460a      	mov	r2, r1
 8002f6e:	2102      	movs	r1, #2
 8002f70:	f8c0 3134 	str.w	r3, [r0, #308]	; 0x134
 8002f74:	f8c0 3138 	str.w	r3, [r0, #312]	; 0x138
 8002f78:	f880 1111 	strb.w	r1, [r0, #273]	; 0x111
 8002f7c:	2100      	movs	r1, #0
 8002f7e:	f001 f9b3 	bl	80042e8 <DCD_EP_Tx>
 8002f82:	2000      	movs	r0, #0
 8002f84:	f85d fb04 	ldr.w	pc, [sp], #4

08002f88 <USBD_CtlContinueSendData>:
 8002f88:	b500      	push	{lr}
 8002f8a:	b293      	uxth	r3, r2
 8002f8c:	460a      	mov	r2, r1
 8002f8e:	2100      	movs	r1, #0
 8002f90:	f001 f9aa 	bl	80042e8 <DCD_EP_Tx>
 8002f94:	2000      	movs	r0, #0
 8002f96:	f85d fb04 	ldr.w	pc, [sp], #4
 8002f9a:	bf00      	nop

08002f9c <USBD_CtlPrepareRx>:
 8002f9c:	b500      	push	{lr}
 8002f9e:	b293      	uxth	r3, r2
 8002fa0:	460a      	mov	r2, r1
 8002fa2:	2103      	movs	r1, #3
 8002fa4:	f8c0 338c 	str.w	r3, [r0, #908]	; 0x38c
 8002fa8:	f8c0 3390 	str.w	r3, [r0, #912]	; 0x390
 8002fac:	f880 1111 	strb.w	r1, [r0, #273]	; 0x111
 8002fb0:	2100      	movs	r1, #0
 8002fb2:	f001 f973 	bl	800429c <DCD_EP_PrepareRx>
 8002fb6:	2000      	movs	r0, #0
 8002fb8:	f85d fb04 	ldr.w	pc, [sp], #4

08002fbc <USBD_CtlContinueRx>:
 8002fbc:	b500      	push	{lr}
 8002fbe:	b293      	uxth	r3, r2
 8002fc0:	460a      	mov	r2, r1
 8002fc2:	2100      	movs	r1, #0
 8002fc4:	f001 f96a 	bl	800429c <DCD_EP_PrepareRx>
 8002fc8:	2000      	movs	r0, #0
 8002fca:	f85d fb04 	ldr.w	pc, [sp], #4
 8002fce:	bf00      	nop

08002fd0 <USBD_CtlSendStatus>:
 8002fd0:	b510      	push	{r4, lr}
 8002fd2:	2300      	movs	r3, #0
 8002fd4:	2104      	movs	r1, #4
 8002fd6:	4604      	mov	r4, r0
 8002fd8:	461a      	mov	r2, r3
 8002fda:	f880 1111 	strb.w	r1, [r0, #273]	; 0x111
 8002fde:	4619      	mov	r1, r3
 8002fe0:	f001 f982 	bl	80042e8 <DCD_EP_Tx>
 8002fe4:	4620      	mov	r0, r4
 8002fe6:	f001 f8ab 	bl	8004140 <USB_OTG_EP0_OutStart>
 8002fea:	2000      	movs	r0, #0
 8002fec:	bd10      	pop	{r4, pc}
 8002fee:	bf00      	nop

08002ff0 <USBD_CtlReceiveStatus>:
 8002ff0:	b510      	push	{r4, lr}
 8002ff2:	2300      	movs	r3, #0
 8002ff4:	2105      	movs	r1, #5
 8002ff6:	4604      	mov	r4, r0
 8002ff8:	461a      	mov	r2, r3
 8002ffa:	f880 1111 	strb.w	r1, [r0, #273]	; 0x111
 8002ffe:	4619      	mov	r1, r3
 8003000:	f001 f94c 	bl	800429c <DCD_EP_PrepareRx>
 8003004:	4620      	mov	r0, r4
 8003006:	f001 f89b 	bl	8004140 <USB_OTG_EP0_OutStart>
 800300a:	2000      	movs	r0, #0
 800300c:	bd10      	pop	{r4, pc}
 800300e:	bf00      	nop

08003010 <USBD_StdDevReq>:
 8003010:	b570      	push	{r4, r5, r6, lr}
 8003012:	784b      	ldrb	r3, [r1, #1]
 8003014:	b082      	sub	sp, #8
 8003016:	460c      	mov	r4, r1
 8003018:	4605      	mov	r5, r0
 800301a:	2b09      	cmp	r3, #9
 800301c:	d813      	bhi.n	8003046 <USBD_StdDevReq+0x36>
 800301e:	e8df f003 	tbb	[pc, r3]
 8003022:	4130      	.short	0x4130
 8003024:	6f125612 	.word	0x6f125612
 8003028:	05221287 	.word	0x05221287
 800302c:	7889      	ldrb	r1, [r1, #2]
 800302e:	4eb2      	ldr	r6, [pc, #712]	; (80032f8 <USBD_StdDevReq+0x2e8>)
 8003030:	2901      	cmp	r1, #1
 8003032:	7031      	strb	r1, [r6, #0]
 8003034:	d807      	bhi.n	8003046 <USBD_StdDevReq+0x36>
 8003036:	f890 3112 	ldrb.w	r3, [r0, #274]	; 0x112
 800303a:	2b02      	cmp	r3, #2
 800303c:	f000 80b5 	beq.w	80031aa <USBD_StdDevReq+0x19a>
 8003040:	2b03      	cmp	r3, #3
 8003042:	f000 8096 	beq.w	8003172 <USBD_StdDevReq+0x162>
 8003046:	f994 3000 	ldrsb.w	r3, [r4]
 800304a:	2b00      	cmp	r3, #0
 800304c:	db01      	blt.n	8003052 <USBD_StdDevReq+0x42>
 800304e:	88e3      	ldrh	r3, [r4, #6]
 8003050:	b993      	cbnz	r3, 8003078 <USBD_StdDevReq+0x68>
 8003052:	2180      	movs	r1, #128	; 0x80
 8003054:	4628      	mov	r0, r5
 8003056:	f001 f96b 	bl	8004330 <DCD_EP_Stall>
 800305a:	4628      	mov	r0, r5
 800305c:	f001 f870 	bl	8004140 <USB_OTG_EP0_OutStart>
 8003060:	2000      	movs	r0, #0
 8003062:	b002      	add	sp, #8
 8003064:	bd70      	pop	{r4, r5, r6, pc}
 8003066:	88ca      	ldrh	r2, [r1, #6]
 8003068:	2a01      	cmp	r2, #1
 800306a:	d077      	beq.n	800315c <USBD_StdDevReq+0x14c>
 800306c:	f991 3000 	ldrsb.w	r3, [r1]
 8003070:	2b00      	cmp	r3, #0
 8003072:	dbee      	blt.n	8003052 <USBD_StdDevReq+0x42>
 8003074:	2a00      	cmp	r2, #0
 8003076:	d0ec      	beq.n	8003052 <USBD_StdDevReq+0x42>
 8003078:	2100      	movs	r1, #0
 800307a:	4628      	mov	r0, r5
 800307c:	f001 f958 	bl	8004330 <DCD_EP_Stall>
 8003080:	e7eb      	b.n	800305a <USBD_StdDevReq+0x4a>
 8003082:	f890 3112 	ldrb.w	r3, [r0, #274]	; 0x112
 8003086:	3b02      	subs	r3, #2
 8003088:	2b01      	cmp	r3, #1
 800308a:	d8dc      	bhi.n	8003046 <USBD_StdDevReq+0x36>
 800308c:	f8d0 3114 	ldr.w	r3, [r0, #276]	; 0x114
 8003090:	499a      	ldr	r1, [pc, #616]	; (80032fc <USBD_StdDevReq+0x2ec>)
 8003092:	2b00      	cmp	r3, #0
 8003094:	bf0c      	ite	eq
 8003096:	2301      	moveq	r3, #1
 8003098:	2303      	movne	r3, #3
 800309a:	2201      	movs	r2, #1
 800309c:	600b      	str	r3, [r1, #0]
 800309e:	f7ff ff63 	bl	8002f68 <USBD_CtlSendData>
 80030a2:	e7dd      	b.n	8003060 <USBD_StdDevReq+0x50>
 80030a4:	f890 3112 	ldrb.w	r3, [r0, #274]	; 0x112
 80030a8:	3b02      	subs	r3, #2
 80030aa:	2b01      	cmp	r3, #1
 80030ac:	d8cb      	bhi.n	8003046 <USBD_StdDevReq+0x36>
 80030ae:	884b      	ldrh	r3, [r1, #2]
 80030b0:	2b01      	cmp	r3, #1
 80030b2:	d1d5      	bne.n	8003060 <USBD_StdDevReq+0x50>
 80030b4:	f8d0 35e0 	ldr.w	r3, [r0, #1504]	; 0x5e0
 80030b8:	2200      	movs	r2, #0
 80030ba:	689b      	ldr	r3, [r3, #8]
 80030bc:	f8c0 2114 	str.w	r2, [r0, #276]	; 0x114
 80030c0:	4621      	mov	r1, r4
 80030c2:	4628      	mov	r0, r5
 80030c4:	4798      	blx	r3
 80030c6:	4628      	mov	r0, r5
 80030c8:	f7ff ff82 	bl	8002fd0 <USBD_CtlSendStatus>
 80030cc:	e7c8      	b.n	8003060 <USBD_StdDevReq+0x50>
 80030ce:	884b      	ldrh	r3, [r1, #2]
 80030d0:	2b01      	cmp	r3, #1
 80030d2:	f000 8100 	beq.w	80032d6 <USBD_StdDevReq+0x2c6>
 80030d6:	2b02      	cmp	r3, #2
 80030d8:	d1c2      	bne.n	8003060 <USBD_StdDevReq+0x50>
 80030da:	888b      	ldrh	r3, [r1, #4]
 80030dc:	b2da      	uxtb	r2, r3
 80030de:	2a00      	cmp	r2, #0
 80030e0:	d1be      	bne.n	8003060 <USBD_StdDevReq+0x50>
 80030e2:	6901      	ldr	r1, [r0, #16]
 80030e4:	0a1b      	lsrs	r3, r3, #8
 80030e6:	684a      	ldr	r2, [r1, #4]
 80030e8:	3b01      	subs	r3, #1
 80030ea:	4610      	mov	r0, r2
 80030ec:	2b04      	cmp	r3, #4
 80030ee:	f200 80d9 	bhi.w	80032a4 <USBD_StdDevReq+0x294>
 80030f2:	e8df f013 	tbh	[pc, r3, lsl #1]
 80030f6:	00e1      	.short	0x00e1
 80030f8:	00d300dc 	.word	0x00d300dc
 80030fc:	00e600eb 	.word	0x00e600eb
 8003100:	684b      	ldr	r3, [r1, #4]
 8003102:	2b00      	cmp	r3, #0
 8003104:	d19f      	bne.n	8003046 <USBD_StdDevReq+0x36>
 8003106:	f890 3112 	ldrb.w	r3, [r0, #274]	; 0x112
 800310a:	8849      	ldrh	r1, [r1, #2]
 800310c:	2b03      	cmp	r3, #3
 800310e:	d09a      	beq.n	8003046 <USBD_StdDevReq+0x36>
 8003110:	f001 047f 	and.w	r4, r1, #127	; 0x7f
 8003114:	f880 4113 	strb.w	r4, [r0, #275]	; 0x113
 8003118:	4621      	mov	r1, r4
 800311a:	f001 f943 	bl	80043a4 <DCD_EP_SetAddress>
 800311e:	4628      	mov	r0, r5
 8003120:	f7ff ff56 	bl	8002fd0 <USBD_CtlSendStatus>
 8003124:	2c00      	cmp	r4, #0
 8003126:	d03c      	beq.n	80031a2 <USBD_StdDevReq+0x192>
 8003128:	2302      	movs	r3, #2
 800312a:	f885 3112 	strb.w	r3, [r5, #274]	; 0x112
 800312e:	e797      	b.n	8003060 <USBD_StdDevReq+0x50>
 8003130:	884a      	ldrh	r2, [r1, #2]
 8003132:	0a13      	lsrs	r3, r2, #8
 8003134:	3b01      	subs	r3, #1
 8003136:	2b06      	cmp	r3, #6
 8003138:	d885      	bhi.n	8003046 <USBD_StdDevReq+0x36>
 800313a:	a101      	add	r1, pc, #4	; (adr r1, 8003140 <USBD_StdDevReq+0x130>)
 800313c:	f851 f023 	ldr.w	pc, [r1, r3, lsl #2]
 8003140:	0800321d 	.word	0x0800321d
 8003144:	080031e1 	.word	0x080031e1
 8003148:	080031cf 	.word	0x080031cf
 800314c:	08003047 	.word	0x08003047
 8003150:	08003047 	.word	0x08003047
 8003154:	08003047 	.word	0x08003047
 8003158:	08003047 	.word	0x08003047
 800315c:	f890 3112 	ldrb.w	r3, [r0, #274]	; 0x112
 8003160:	2b02      	cmp	r3, #2
 8003162:	d030      	beq.n	80031c6 <USBD_StdDevReq+0x1b6>
 8003164:	2b03      	cmp	r3, #3
 8003166:	d017      	beq.n	8003198 <USBD_StdDevReq+0x188>
 8003168:	f991 3000 	ldrsb.w	r3, [r1]
 800316c:	2b00      	cmp	r3, #0
 800316e:	da83      	bge.n	8003078 <USBD_StdDevReq+0x68>
 8003170:	e76f      	b.n	8003052 <USBD_StdDevReq+0x42>
 8003172:	2900      	cmp	r1, #0
 8003174:	f000 80b5 	beq.w	80032e2 <USBD_StdDevReq+0x2d2>
 8003178:	f890 1110 	ldrb.w	r1, [r0, #272]	; 0x110
 800317c:	2901      	cmp	r1, #1
 800317e:	d007      	beq.n	8003190 <USBD_StdDevReq+0x180>
 8003180:	f7ff fe96 	bl	8002eb0 <USBD_ClrCfg>
 8003184:	7831      	ldrb	r1, [r6, #0]
 8003186:	f885 1110 	strb.w	r1, [r5, #272]	; 0x110
 800318a:	4628      	mov	r0, r5
 800318c:	f7ff fe82 	bl	8002e94 <USBD_SetCfg>
 8003190:	4628      	mov	r0, r5
 8003192:	f7ff ff1d 	bl	8002fd0 <USBD_CtlSendStatus>
 8003196:	e763      	b.n	8003060 <USBD_StdDevReq+0x50>
 8003198:	f500 7188 	add.w	r1, r0, #272	; 0x110
 800319c:	f7ff fee4 	bl	8002f68 <USBD_CtlSendData>
 80031a0:	e75e      	b.n	8003060 <USBD_StdDevReq+0x50>
 80031a2:	2301      	movs	r3, #1
 80031a4:	f885 3112 	strb.w	r3, [r5, #274]	; 0x112
 80031a8:	e75a      	b.n	8003060 <USBD_StdDevReq+0x50>
 80031aa:	2900      	cmp	r1, #0
 80031ac:	d0f0      	beq.n	8003190 <USBD_StdDevReq+0x180>
 80031ae:	2101      	movs	r1, #1
 80031b0:	2303      	movs	r3, #3
 80031b2:	f880 1110 	strb.w	r1, [r0, #272]	; 0x110
 80031b6:	f880 3112 	strb.w	r3, [r0, #274]	; 0x112
 80031ba:	f7ff fe6b 	bl	8002e94 <USBD_SetCfg>
 80031be:	4628      	mov	r0, r5
 80031c0:	f7ff ff06 	bl	8002fd0 <USBD_CtlSendStatus>
 80031c4:	e74c      	b.n	8003060 <USBD_StdDevReq+0x50>
 80031c6:	494e      	ldr	r1, [pc, #312]	; (8003300 <USBD_StdDevReq+0x2f0>)
 80031c8:	f7ff fece 	bl	8002f68 <USBD_CtlSendData>
 80031cc:	e748      	b.n	8003060 <USBD_StdDevReq+0x50>
 80031ce:	b2d2      	uxtb	r2, r2
 80031d0:	2a05      	cmp	r2, #5
 80031d2:	f63f af38 	bhi.w	8003046 <USBD_StdDevReq+0x36>
 80031d6:	e8df f002 	tbb	[pc, r2]
 80031da:	5159      	.short	0x5159
 80031dc:	31394149 	.word	0x31394149
 80031e0:	f8d0 35e0 	ldr.w	r3, [r0, #1504]	; 0x5e0
 80031e4:	7880      	ldrb	r0, [r0, #2]
 80031e6:	6a9b      	ldr	r3, [r3, #40]	; 0x28
 80031e8:	f10d 0106 	add.w	r1, sp, #6
 80031ec:	4798      	blx	r3
 80031ee:	2302      	movs	r3, #2
 80031f0:	7043      	strb	r3, [r0, #1]
 80031f2:	f8c5 05ec 	str.w	r0, [r5, #1516]	; 0x5ec
 80031f6:	f8bd 2006 	ldrh.w	r2, [sp, #6]
 80031fa:	2a00      	cmp	r2, #0
 80031fc:	f43f af30 	beq.w	8003060 <USBD_StdDevReq+0x50>
 8003200:	88e3      	ldrh	r3, [r4, #6]
 8003202:	2b00      	cmp	r3, #0
 8003204:	f43f af2c 	beq.w	8003060 <USBD_StdDevReq+0x50>
 8003208:	429a      	cmp	r2, r3
 800320a:	bf28      	it	cs
 800320c:	461a      	movcs	r2, r3
 800320e:	4601      	mov	r1, r0
 8003210:	4628      	mov	r0, r5
 8003212:	f8ad 2006 	strh.w	r2, [sp, #6]
 8003216:	f7ff fea7 	bl	8002f68 <USBD_CtlSendData>
 800321a:	e721      	b.n	8003060 <USBD_StdDevReq+0x50>
 800321c:	f8d0 35e8 	ldr.w	r3, [r0, #1512]	; 0x5e8
 8003220:	7880      	ldrb	r0, [r0, #2]
 8003222:	681b      	ldr	r3, [r3, #0]
 8003224:	f10d 0106 	add.w	r1, sp, #6
 8003228:	4798      	blx	r3
 800322a:	88e3      	ldrh	r3, [r4, #6]
 800322c:	2b40      	cmp	r3, #64	; 0x40
 800322e:	d069      	beq.n	8003304 <USBD_StdDevReq+0x2f4>
 8003230:	f895 2112 	ldrb.w	r2, [r5, #274]	; 0x112
 8003234:	2a01      	cmp	r2, #1
 8003236:	d1de      	bne.n	80031f6 <USBD_StdDevReq+0x1e6>
 8003238:	2208      	movs	r2, #8
 800323a:	e7e2      	b.n	8003202 <USBD_StdDevReq+0x1f2>
 800323c:	f8d0 35e8 	ldr.w	r3, [r0, #1512]	; 0x5e8
 8003240:	7880      	ldrb	r0, [r0, #2]
 8003242:	699b      	ldr	r3, [r3, #24]
 8003244:	f10d 0106 	add.w	r1, sp, #6
 8003248:	4798      	blx	r3
 800324a:	e7d4      	b.n	80031f6 <USBD_StdDevReq+0x1e6>
 800324c:	f8d0 35e8 	ldr.w	r3, [r0, #1512]	; 0x5e8
 8003250:	7880      	ldrb	r0, [r0, #2]
 8003252:	695b      	ldr	r3, [r3, #20]
 8003254:	f10d 0106 	add.w	r1, sp, #6
 8003258:	4798      	blx	r3
 800325a:	e7cc      	b.n	80031f6 <USBD_StdDevReq+0x1e6>
 800325c:	f8d0 35e8 	ldr.w	r3, [r0, #1512]	; 0x5e8
 8003260:	7880      	ldrb	r0, [r0, #2]
 8003262:	691b      	ldr	r3, [r3, #16]
 8003264:	f10d 0106 	add.w	r1, sp, #6
 8003268:	4798      	blx	r3
 800326a:	e7c4      	b.n	80031f6 <USBD_StdDevReq+0x1e6>
 800326c:	f8d0 35e8 	ldr.w	r3, [r0, #1512]	; 0x5e8
 8003270:	7880      	ldrb	r0, [r0, #2]
 8003272:	68db      	ldr	r3, [r3, #12]
 8003274:	f10d 0106 	add.w	r1, sp, #6
 8003278:	4798      	blx	r3
 800327a:	e7bc      	b.n	80031f6 <USBD_StdDevReq+0x1e6>
 800327c:	f8d0 35e8 	ldr.w	r3, [r0, #1512]	; 0x5e8
 8003280:	7880      	ldrb	r0, [r0, #2]
 8003282:	689b      	ldr	r3, [r3, #8]
 8003284:	f10d 0106 	add.w	r1, sp, #6
 8003288:	4798      	blx	r3
 800328a:	e7b4      	b.n	80031f6 <USBD_StdDevReq+0x1e6>
 800328c:	f8d0 35e8 	ldr.w	r3, [r0, #1512]	; 0x5e8
 8003290:	7880      	ldrb	r0, [r0, #2]
 8003292:	685b      	ldr	r3, [r3, #4]
 8003294:	f10d 0106 	add.w	r1, sp, #6
 8003298:	4798      	blx	r3
 800329a:	e7ac      	b.n	80031f6 <USBD_StdDevReq+0x1e6>
 800329c:	2303      	movs	r3, #3
 800329e:	f363 1006 	bfi	r0, r3, #4, #3
 80032a2:	4602      	mov	r2, r0
 80032a4:	604a      	str	r2, [r1, #4]
 80032a6:	4628      	mov	r0, r5
 80032a8:	f7ff fe92 	bl	8002fd0 <USBD_CtlSendStatus>
 80032ac:	e6d8      	b.n	8003060 <USBD_StdDevReq+0x50>
 80032ae:	2302      	movs	r3, #2
 80032b0:	f363 1006 	bfi	r0, r3, #4, #3
 80032b4:	4602      	mov	r2, r0
 80032b6:	e7f5      	b.n	80032a4 <USBD_StdDevReq+0x294>
 80032b8:	2301      	movs	r3, #1
 80032ba:	f363 1006 	bfi	r0, r3, #4, #3
 80032be:	4602      	mov	r2, r0
 80032c0:	e7f0      	b.n	80032a4 <USBD_StdDevReq+0x294>
 80032c2:	2305      	movs	r3, #5
 80032c4:	f363 1006 	bfi	r0, r3, #4, #3
 80032c8:	4602      	mov	r2, r0
 80032ca:	e7eb      	b.n	80032a4 <USBD_StdDevReq+0x294>
 80032cc:	2304      	movs	r3, #4
 80032ce:	f363 1006 	bfi	r0, r3, #4, #3
 80032d2:	4602      	mov	r2, r0
 80032d4:	e7e6      	b.n	80032a4 <USBD_StdDevReq+0x294>
 80032d6:	f8d0 25e0 	ldr.w	r2, [r0, #1504]	; 0x5e0
 80032da:	f8c0 3114 	str.w	r3, [r0, #276]	; 0x114
 80032de:	6893      	ldr	r3, [r2, #8]
 80032e0:	e6ee      	b.n	80030c0 <USBD_StdDevReq+0xb0>
 80032e2:	2302      	movs	r3, #2
 80032e4:	f880 3112 	strb.w	r3, [r0, #274]	; 0x112
 80032e8:	f880 1110 	strb.w	r1, [r0, #272]	; 0x110
 80032ec:	f7ff fde0 	bl	8002eb0 <USBD_ClrCfg>
 80032f0:	4628      	mov	r0, r5
 80032f2:	f7ff fe6d 	bl	8002fd0 <USBD_CtlSendStatus>
 80032f6:	e6b3      	b.n	8003060 <USBD_StdDevReq+0x50>
 80032f8:	20001370 	.word	0x20001370
 80032fc:	200013a8 	.word	0x200013a8
 8003300:	200013ac 	.word	0x200013ac
 8003304:	2208      	movs	r2, #8
 8003306:	e77f      	b.n	8003208 <USBD_StdDevReq+0x1f8>

08003308 <USBD_StdItfReq>:
 8003308:	b530      	push	{r4, r5, lr}
 800330a:	f890 3112 	ldrb.w	r3, [r0, #274]	; 0x112
 800330e:	2b03      	cmp	r3, #3
 8003310:	4604      	mov	r4, r0
 8003312:	460d      	mov	r5, r1
 8003314:	d10a      	bne.n	800332c <USBD_StdItfReq+0x24>
 8003316:	790b      	ldrb	r3, [r1, #4]
 8003318:	2b01      	cmp	r3, #1
 800331a:	d807      	bhi.n	800332c <USBD_StdItfReq+0x24>
 800331c:	f8d0 35e0 	ldr.w	r3, [r0, #1504]	; 0x5e0
 8003320:	689b      	ldr	r3, [r3, #8]
 8003322:	4798      	blx	r3
 8003324:	88eb      	ldrh	r3, [r5, #6]
 8003326:	b1ab      	cbz	r3, 8003354 <USBD_StdItfReq+0x4c>
 8003328:	2000      	movs	r0, #0
 800332a:	bd30      	pop	{r4, r5, pc}
 800332c:	f995 3000 	ldrsb.w	r3, [r5]
 8003330:	2b00      	cmp	r3, #0
 8003332:	db01      	blt.n	8003338 <USBD_StdItfReq+0x30>
 8003334:	88eb      	ldrh	r3, [r5, #6]
 8003336:	b943      	cbnz	r3, 800334a <USBD_StdItfReq+0x42>
 8003338:	2180      	movs	r1, #128	; 0x80
 800333a:	4620      	mov	r0, r4
 800333c:	f000 fff8 	bl	8004330 <DCD_EP_Stall>
 8003340:	4620      	mov	r0, r4
 8003342:	f000 fefd 	bl	8004140 <USB_OTG_EP0_OutStart>
 8003346:	2000      	movs	r0, #0
 8003348:	bd30      	pop	{r4, r5, pc}
 800334a:	2100      	movs	r1, #0
 800334c:	4620      	mov	r0, r4
 800334e:	f000 ffef 	bl	8004330 <DCD_EP_Stall>
 8003352:	e7f5      	b.n	8003340 <USBD_StdItfReq+0x38>
 8003354:	4620      	mov	r0, r4
 8003356:	f7ff fe3b 	bl	8002fd0 <USBD_CtlSendStatus>
 800335a:	e7e5      	b.n	8003328 <USBD_StdItfReq+0x20>

0800335c <USBD_StdEPReq>:
 800335c:	b530      	push	{r4, r5, lr}
 800335e:	460c      	mov	r4, r1
 8003360:	888a      	ldrh	r2, [r1, #4]
 8003362:	7863      	ldrb	r3, [r4, #1]
 8003364:	2b01      	cmp	r3, #1
 8003366:	4605      	mov	r5, r0
 8003368:	b2d1      	uxtb	r1, r2
 800336a:	d004      	beq.n	8003376 <USBD_StdEPReq+0x1a>
 800336c:	2b03      	cmp	r3, #3
 800336e:	d035      	beq.n	80033dc <USBD_StdEPReq+0x80>
 8003370:	b1bb      	cbz	r3, 80033a2 <USBD_StdEPReq+0x46>
 8003372:	2000      	movs	r0, #0
 8003374:	bd30      	pop	{r4, r5, pc}
 8003376:	f890 3112 	ldrb.w	r3, [r0, #274]	; 0x112
 800337a:	2b02      	cmp	r3, #2
 800337c:	d015      	beq.n	80033aa <USBD_StdEPReq+0x4e>
 800337e:	2b03      	cmp	r3, #3
 8003380:	d043      	beq.n	800340a <USBD_StdEPReq+0xae>
 8003382:	f994 3000 	ldrsb.w	r3, [r4]
 8003386:	2b00      	cmp	r3, #0
 8003388:	db47      	blt.n	800341a <USBD_StdEPReq+0xbe>
 800338a:	88e3      	ldrh	r3, [r4, #6]
 800338c:	2b00      	cmp	r3, #0
 800338e:	d044      	beq.n	800341a <USBD_StdEPReq+0xbe>
 8003390:	2100      	movs	r1, #0
 8003392:	4628      	mov	r0, r5
 8003394:	f000 ffcc 	bl	8004330 <DCD_EP_Stall>
 8003398:	4628      	mov	r0, r5
 800339a:	f000 fed1 	bl	8004140 <USB_OTG_EP0_OutStart>
 800339e:	2000      	movs	r0, #0
 80033a0:	bd30      	pop	{r4, r5, pc}
 80033a2:	f890 3112 	ldrb.w	r3, [r0, #274]	; 0x112
 80033a6:	2b02      	cmp	r3, #2
 80033a8:	d104      	bne.n	80033b4 <USBD_StdEPReq+0x58>
 80033aa:	064a      	lsls	r2, r1, #25
 80033ac:	d0e1      	beq.n	8003372 <USBD_StdEPReq+0x16>
 80033ae:	f000 ffbf 	bl	8004330 <DCD_EP_Stall>
 80033b2:	e7de      	b.n	8003372 <USBD_StdEPReq+0x16>
 80033b4:	2b03      	cmp	r3, #3
 80033b6:	d1e4      	bne.n	8003382 <USBD_StdEPReq+0x26>
 80033b8:	0613      	lsls	r3, r2, #24
 80033ba:	d433      	bmi.n	8003424 <USBD_StdEPReq+0xc8>
 80033bc:	eb01 0181 	add.w	r1, r1, r1, lsl #2
 80033c0:	eb00 01c1 	add.w	r1, r0, r1, lsl #3
 80033c4:	f891 3372 	ldrb.w	r3, [r1, #882]	; 0x372
 80033c8:	3b00      	subs	r3, #0
 80033ca:	bf18      	it	ne
 80033cc:	2301      	movne	r3, #1
 80033ce:	491b      	ldr	r1, [pc, #108]	; (800343c <USBD_StdEPReq+0xe0>)
 80033d0:	2202      	movs	r2, #2
 80033d2:	4628      	mov	r0, r5
 80033d4:	600b      	str	r3, [r1, #0]
 80033d6:	f7ff fdc7 	bl	8002f68 <USBD_CtlSendData>
 80033da:	e7ca      	b.n	8003372 <USBD_StdEPReq+0x16>
 80033dc:	f890 3112 	ldrb.w	r3, [r0, #274]	; 0x112
 80033e0:	2b02      	cmp	r3, #2
 80033e2:	d0e2      	beq.n	80033aa <USBD_StdEPReq+0x4e>
 80033e4:	2b03      	cmp	r3, #3
 80033e6:	d1cc      	bne.n	8003382 <USBD_StdEPReq+0x26>
 80033e8:	8863      	ldrh	r3, [r4, #2]
 80033ea:	b91b      	cbnz	r3, 80033f4 <USBD_StdEPReq+0x98>
 80033ec:	064a      	lsls	r2, r1, #25
 80033ee:	d001      	beq.n	80033f4 <USBD_StdEPReq+0x98>
 80033f0:	f000 ff9e 	bl	8004330 <DCD_EP_Stall>
 80033f4:	f8d5 35e0 	ldr.w	r3, [r5, #1504]	; 0x5e0
 80033f8:	4621      	mov	r1, r4
 80033fa:	689b      	ldr	r3, [r3, #8]
 80033fc:	4628      	mov	r0, r5
 80033fe:	4798      	blx	r3
 8003400:	4628      	mov	r0, r5
 8003402:	f7ff fde5 	bl	8002fd0 <USBD_CtlSendStatus>
 8003406:	2000      	movs	r0, #0
 8003408:	bd30      	pop	{r4, r5, pc}
 800340a:	8863      	ldrh	r3, [r4, #2]
 800340c:	2b00      	cmp	r3, #0
 800340e:	d1b0      	bne.n	8003372 <USBD_StdEPReq+0x16>
 8003410:	064b      	lsls	r3, r1, #25
 8003412:	d0f5      	beq.n	8003400 <USBD_StdEPReq+0xa4>
 8003414:	f000 ffaa 	bl	800436c <DCD_EP_ClrStall>
 8003418:	e7ec      	b.n	80033f4 <USBD_StdEPReq+0x98>
 800341a:	2180      	movs	r1, #128	; 0x80
 800341c:	4628      	mov	r0, r5
 800341e:	f000 ff87 	bl	8004330 <DCD_EP_Stall>
 8003422:	e7b9      	b.n	8003398 <USBD_StdEPReq+0x3c>
 8003424:	f001 017f 	and.w	r1, r1, #127	; 0x7f
 8003428:	eb01 0181 	add.w	r1, r1, r1, lsl #2
 800342c:	eb00 01c1 	add.w	r1, r0, r1, lsl #3
 8003430:	f891 311a 	ldrb.w	r3, [r1, #282]	; 0x11a
 8003434:	3b00      	subs	r3, #0
 8003436:	bf18      	it	ne
 8003438:	2301      	movne	r3, #1
 800343a:	e7c8      	b.n	80033ce <USBD_StdEPReq+0x72>
 800343c:	200013b0 	.word	0x200013b0

08003440 <USBD_ParseSetupRequest>:
 8003440:	f8b0 35c8 	ldrh.w	r3, [r0, #1480]	; 0x5c8
 8003444:	800b      	strh	r3, [r1, #0]
 8003446:	f8b0 35ca 	ldrh.w	r3, [r0, #1482]	; 0x5ca
 800344a:	804b      	strh	r3, [r1, #2]
 800344c:	f8b0 35cc 	ldrh.w	r3, [r0, #1484]	; 0x5cc
 8003450:	808b      	strh	r3, [r1, #4]
 8003452:	f8b0 35ce 	ldrh.w	r3, [r0, #1486]	; 0x5ce
 8003456:	80cb      	strh	r3, [r1, #6]
 8003458:	2201      	movs	r2, #1
 800345a:	f8c0 313c 	str.w	r3, [r0, #316]	; 0x13c
 800345e:	f880 2111 	strb.w	r2, [r0, #273]	; 0x111
 8003462:	4770      	bx	lr

08003464 <USBD_CtlError>:
 8003464:	b510      	push	{r4, lr}
 8003466:	f991 3000 	ldrsb.w	r3, [r1]
 800346a:	2b00      	cmp	r3, #0
 800346c:	4604      	mov	r4, r0
 800346e:	db01      	blt.n	8003474 <USBD_CtlError+0x10>
 8003470:	88cb      	ldrh	r3, [r1, #6]
 8003472:	b943      	cbnz	r3, 8003486 <USBD_CtlError+0x22>
 8003474:	4620      	mov	r0, r4
 8003476:	2180      	movs	r1, #128	; 0x80
 8003478:	f000 ff5a 	bl	8004330 <DCD_EP_Stall>
 800347c:	4620      	mov	r0, r4
 800347e:	e8bd 4010 	ldmia.w	sp!, {r4, lr}
 8003482:	f000 be5d 	b.w	8004140 <USB_OTG_EP0_OutStart>
 8003486:	2100      	movs	r1, #0
 8003488:	f000 ff52 	bl	8004330 <DCD_EP_Stall>
 800348c:	4620      	mov	r0, r4
 800348e:	e8bd 4010 	ldmia.w	sp!, {r4, lr}
 8003492:	f000 be55 	b.w	8004140 <USB_OTG_EP0_OutStart>
 8003496:	bf00      	nop

08003498 <USBD_GetString>:
 8003498:	b430      	push	{r4, r5}
 800349a:	b300      	cbz	r0, 80034de <USBD_GetString+0x46>
 800349c:	7803      	ldrb	r3, [r0, #0]
 800349e:	b303      	cbz	r3, 80034e2 <USBD_GetString+0x4a>
 80034a0:	4603      	mov	r3, r0
 80034a2:	461c      	mov	r4, r3
 80034a4:	f813 5f01 	ldrb.w	r5, [r3, #1]!
 80034a8:	2d00      	cmp	r5, #0
 80034aa:	d1fa      	bne.n	80034a2 <USBD_GetString+0xa>
 80034ac:	f1c0 0301 	rsb	r3, r0, #1
 80034b0:	4423      	add	r3, r4
 80034b2:	b2db      	uxtb	r3, r3
 80034b4:	3301      	adds	r3, #1
 80034b6:	005b      	lsls	r3, r3, #1
 80034b8:	b2dc      	uxtb	r4, r3
 80034ba:	8013      	strh	r3, [r2, #0]
 80034bc:	2303      	movs	r3, #3
 80034be:	700c      	strb	r4, [r1, #0]
 80034c0:	704b      	strb	r3, [r1, #1]
 80034c2:	7804      	ldrb	r4, [r0, #0]
 80034c4:	b15c      	cbz	r4, 80034de <USBD_GetString+0x46>
 80034c6:	2302      	movs	r3, #2
 80034c8:	2500      	movs	r5, #0
 80034ca:	1c5a      	adds	r2, r3, #1
 80034cc:	b2d2      	uxtb	r2, r2
 80034ce:	54cc      	strb	r4, [r1, r3]
 80034d0:	548d      	strb	r5, [r1, r2]
 80034d2:	f810 4f01 	ldrb.w	r4, [r0, #1]!
 80034d6:	3302      	adds	r3, #2
 80034d8:	b2db      	uxtb	r3, r3
 80034da:	2c00      	cmp	r4, #0
 80034dc:	d1f5      	bne.n	80034ca <USBD_GetString+0x32>
 80034de:	bc30      	pop	{r4, r5}
 80034e0:	4770      	bx	lr
 80034e2:	2402      	movs	r4, #2
 80034e4:	4623      	mov	r3, r4
 80034e6:	e7e8      	b.n	80034ba <USBD_GetString+0x22>

080034e8 <USBD_USR_Init>:
 80034e8:	4b01      	ldr	r3, [pc, #4]	; (80034f0 <USBD_USR_Init+0x8>)
 80034ea:	2201      	movs	r2, #1
 80034ec:	601a      	str	r2, [r3, #0]
 80034ee:	4770      	bx	lr
 80034f0:	200013b4 	.word	0x200013b4

080034f4 <USBD_USR_DeviceReset>:
 80034f4:	4b01      	ldr	r3, [pc, #4]	; (80034fc <USBD_USR_DeviceReset+0x8>)
 80034f6:	2201      	movs	r2, #1
 80034f8:	601a      	str	r2, [r3, #0]
 80034fa:	4770      	bx	lr
 80034fc:	200013b4 	.word	0x200013b4

08003500 <USBD_USR_DeviceConfigured>:
 8003500:	4b01      	ldr	r3, [pc, #4]	; (8003508 <USBD_USR_DeviceConfigured+0x8>)
 8003502:	2202      	movs	r2, #2
 8003504:	601a      	str	r2, [r3, #0]
 8003506:	4770      	bx	lr
 8003508:	200013b4 	.word	0x200013b4

0800350c <USBD_USR_DeviceResumed>:
 800350c:	4b01      	ldr	r3, [pc, #4]	; (8003514 <USBD_USR_DeviceResumed+0x8>)
 800350e:	2201      	movs	r2, #1
 8003510:	601a      	str	r2, [r3, #0]
 8003512:	4770      	bx	lr
 8003514:	200013b4 	.word	0x200013b4

08003518 <USBD_USR_DeviceConnected>:
 8003518:	4b01      	ldr	r3, [pc, #4]	; (8003520 <USBD_USR_DeviceConnected+0x8>)
 800351a:	2201      	movs	r2, #1
 800351c:	601a      	str	r2, [r3, #0]
 800351e:	4770      	bx	lr
 8003520:	200013b4 	.word	0x200013b4

08003524 <USBD_USR_DeviceDisconnected>:
 8003524:	4b01      	ldr	r3, [pc, #4]	; (800352c <USBD_USR_DeviceDisconnected+0x8>)
 8003526:	2201      	movs	r2, #1
 8003528:	601a      	str	r2, [r3, #0]
 800352a:	4770      	bx	lr
 800352c:	200013b4 	.word	0x200013b4

08003530 <USBD_USR_DeviceSuspended>:
 8003530:	4b01      	ldr	r3, [pc, #4]	; (8003538 <USBD_USR_DeviceSuspended+0x8>)
 8003532:	2201      	movs	r2, #1
 8003534:	601a      	str	r2, [r3, #0]
 8003536:	4770      	bx	lr
 8003538:	200013b4 	.word	0x200013b4

0800353c <_stdout_default>:
 800353c:	2000      	movs	r0, #0
 800353e:	4770      	bx	lr

08003540 <_stdin_default>:
 8003540:	2000      	movs	r0, #0
 8003542:	4770      	bx	lr

08003544 <_stdpoll_default>:
 8003544:	2000      	movs	r0, #0
 8003546:	4770      	bx	lr

08003548 <_stdout_install>:
 8003548:	4b01      	ldr	r3, [pc, #4]	; (8003550 <_stdout_install+0x8>)
 800354a:	6018      	str	r0, [r3, #0]
 800354c:	4770      	bx	lr
 800354e:	bf00      	nop
 8003550:	200001ec 	.word	0x200001ec

08003554 <_stdin_install>:
 8003554:	4b01      	ldr	r3, [pc, #4]	; (800355c <_stdin_install+0x8>)
 8003556:	6018      	str	r0, [r3, #0]
 8003558:	4770      	bx	lr
 800355a:	bf00      	nop
 800355c:	200001e8 	.word	0x200001e8

08003560 <_stdpoll_install>:
 8003560:	4b01      	ldr	r3, [pc, #4]	; (8003568 <_stdpoll_install+0x8>)
 8003562:	6018      	str	r0, [r3, #0]
 8003564:	4770      	bx	lr
 8003566:	bf00      	nop
 8003568:	200001e4 	.word	0x200001e4

0800356c <_putchar>:
 800356c:	b500      	push	{lr}
 800356e:	4b03      	ldr	r3, [pc, #12]	; (800357c <_putchar+0x10>)
 8003570:	681b      	ldr	r3, [r3, #0]
 8003572:	4798      	blx	r3
 8003574:	2000      	movs	r0, #0
 8003576:	f85d fb04 	ldr.w	pc, [sp], #4
 800357a:	bf00      	nop
 800357c:	200001ec 	.word	0x200001ec

08003580 <hexdump>:
 8003580:	e92d 4ff0 	stmdb	sp!, {r4, r5, r6, r7, r8, r9, sl, fp, lr}
 8003584:	4681      	mov	r9, r0
 8003586:	f020 080f 	bic.w	r8, r0, #15
 800358a:	468b      	mov	fp, r1
 800358c:	2900      	cmp	r1, #0
 800358e:	d06a      	beq.n	8003666 <hexdump+0xe6>
 8003590:	f108 0810 	add.w	r8, r8, #16
 8003594:	f04f 0a00 	mov.w	sl, #0
 8003598:	200a      	movs	r0, #10
 800359a:	f7ff ffe7 	bl	800356c <_putchar>
 800359e:	f1a8 0410 	sub.w	r4, r8, #16
 80035a2:	251c      	movs	r5, #28
 80035a4:	fa44 f005 	asr.w	r0, r4, r5
 80035a8:	f000 000f 	and.w	r0, r0, #15
 80035ac:	2809      	cmp	r0, #9
 80035ae:	bfcc      	ite	gt
 80035b0:	3037      	addgt	r0, #55	; 0x37
 80035b2:	3030      	addle	r0, #48	; 0x30
 80035b4:	3d04      	subs	r5, #4
 80035b6:	f7ff ffd9 	bl	800356c <_putchar>
 80035ba:	1d2b      	adds	r3, r5, #4
 80035bc:	d1f2      	bne.n	80035a4 <hexdump+0x24>
 80035be:	2020      	movs	r0, #32
 80035c0:	f7ff ffd4 	bl	800356c <_putchar>
 80035c4:	4627      	mov	r7, r4
 80035c6:	2600      	movs	r6, #0
 80035c8:	e00f      	b.n	80035ea <hexdump+0x6a>
 80035ca:	2020      	movs	r0, #32
 80035cc:	f7ff ffce 	bl	800356c <_putchar>
 80035d0:	2020      	movs	r0, #32
 80035d2:	f7ff ffcb 	bl	800356c <_putchar>
 80035d6:	2020      	movs	r0, #32
 80035d8:	f7ff ffc8 	bl	800356c <_putchar>
 80035dc:	2e07      	cmp	r6, #7
 80035de:	d01f      	beq.n	8003620 <hexdump+0xa0>
 80035e0:	3601      	adds	r6, #1
 80035e2:	2e10      	cmp	r6, #16
 80035e4:	f107 0701 	add.w	r7, r7, #1
 80035e8:	d020      	beq.n	800362c <hexdump+0xac>
 80035ea:	454f      	cmp	r7, r9
 80035ec:	d3ed      	bcc.n	80035ca <hexdump+0x4a>
 80035ee:	783d      	ldrb	r5, [r7, #0]
 80035f0:	2d9f      	cmp	r5, #159	; 0x9f
 80035f2:	ea4f 1015 	mov.w	r0, r5, lsr #4
 80035f6:	bf98      	it	ls
 80035f8:	3030      	addls	r0, #48	; 0x30
 80035fa:	f005 050f 	and.w	r5, r5, #15
 80035fe:	bf88      	it	hi
 8003600:	3037      	addhi	r0, #55	; 0x37
 8003602:	f7ff ffb3 	bl	800356c <_putchar>
 8003606:	2d09      	cmp	r5, #9
 8003608:	bf94      	ite	ls
 800360a:	f105 0030 	addls.w	r0, r5, #48	; 0x30
 800360e:	f105 0037 	addhi.w	r0, r5, #55	; 0x37
 8003612:	f7ff ffab 	bl	800356c <_putchar>
 8003616:	2020      	movs	r0, #32
 8003618:	f7ff ffa8 	bl	800356c <_putchar>
 800361c:	2e07      	cmp	r6, #7
 800361e:	d1df      	bne.n	80035e0 <hexdump+0x60>
 8003620:	2020      	movs	r0, #32
 8003622:	f7ff ffa3 	bl	800356c <_putchar>
 8003626:	3701      	adds	r7, #1
 8003628:	2608      	movs	r6, #8
 800362a:	e7de      	b.n	80035ea <hexdump+0x6a>
 800362c:	2020      	movs	r0, #32
 800362e:	f7ff ff9d 	bl	800356c <_putchar>
 8003632:	207c      	movs	r0, #124	; 0x7c
 8003634:	f7ff ff9a 	bl	800356c <_putchar>
 8003638:	7823      	ldrb	r3, [r4, #0]
 800363a:	f1a3 0220 	sub.w	r2, r3, #32
 800363e:	2a5e      	cmp	r2, #94	; 0x5e
 8003640:	f04f 002e 	mov.w	r0, #46	; 0x2e
 8003644:	f104 0401 	add.w	r4, r4, #1
 8003648:	bf98      	it	ls
 800364a:	4618      	movls	r0, r3
 800364c:	f7ff ff8e 	bl	800356c <_putchar>
 8003650:	4544      	cmp	r4, r8
 8003652:	d1f1      	bne.n	8003638 <hexdump+0xb8>
 8003654:	207c      	movs	r0, #124	; 0x7c
 8003656:	f10a 0a10 	add.w	sl, sl, #16
 800365a:	f7ff ff87 	bl	800356c <_putchar>
 800365e:	45d3      	cmp	fp, sl
 8003660:	f108 0810 	add.w	r8, r8, #16
 8003664:	d898      	bhi.n	8003598 <hexdump+0x18>
 8003666:	2000      	movs	r0, #0
 8003668:	e8bd 8ff0 	ldmia.w	sp!, {r4, r5, r6, r7, r8, r9, sl, fp, pc}

0800366c <USART_Init>:
 800366c:	6902      	ldr	r2, [r0, #16]
 800366e:	88cb      	ldrh	r3, [r1, #6]
 8003670:	f422 5240 	bic.w	r2, r2, #12288	; 0x3000
 8003674:	4313      	orrs	r3, r2
 8003676:	b29b      	uxth	r3, r3
 8003678:	b530      	push	{r4, r5, lr}
 800367a:	898a      	ldrh	r2, [r1, #12]
 800367c:	6103      	str	r3, [r0, #16]
 800367e:	4604      	mov	r4, r0
 8003680:	888b      	ldrh	r3, [r1, #4]
 8003682:	8908      	ldrh	r0, [r1, #8]
 8003684:	460d      	mov	r5, r1
 8003686:	4303      	orrs	r3, r0
 8003688:	68e1      	ldr	r1, [r4, #12]
 800368a:	8968      	ldrh	r0, [r5, #10]
 800368c:	f421 51b0 	bic.w	r1, r1, #5632	; 0x1600
 8003690:	4303      	orrs	r3, r0
 8003692:	f021 010c 	bic.w	r1, r1, #12
 8003696:	b29b      	uxth	r3, r3
 8003698:	430b      	orrs	r3, r1
 800369a:	b29b      	uxth	r3, r3
 800369c:	60e3      	str	r3, [r4, #12]
 800369e:	6963      	ldr	r3, [r4, #20]
 80036a0:	f423 7340 	bic.w	r3, r3, #768	; 0x300
 80036a4:	4313      	orrs	r3, r2
 80036a6:	b29b      	uxth	r3, r3
 80036a8:	b084      	sub	sp, #16
 80036aa:	6163      	str	r3, [r4, #20]
 80036ac:	4668      	mov	r0, sp
 80036ae:	f7fe fb19 	bl	8001ce4 <RCC_GetClocksFreq>
 80036b2:	4b1c      	ldr	r3, [pc, #112]	; (8003724 <USART_Init+0xb8>)
 80036b4:	429c      	cmp	r4, r3
 80036b6:	d005      	beq.n	80036c4 <USART_Init+0x58>
 80036b8:	f503 6380 	add.w	r3, r3, #1024	; 0x400
 80036bc:	429c      	cmp	r4, r3
 80036be:	d001      	beq.n	80036c4 <USART_Init+0x58>
 80036c0:	9b02      	ldr	r3, [sp, #8]
 80036c2:	e000      	b.n	80036c6 <USART_Init+0x5a>
 80036c4:	9b03      	ldr	r3, [sp, #12]
 80036c6:	68e2      	ldr	r2, [r4, #12]
 80036c8:	4817      	ldr	r0, [pc, #92]	; (8003728 <USART_Init+0xbc>)
 80036ca:	f412 4f00 	tst.w	r2, #32768	; 0x8000
 80036ce:	682a      	ldr	r2, [r5, #0]
 80036d0:	68e5      	ldr	r5, [r4, #12]
 80036d2:	eb03 0383 	add.w	r3, r3, r3, lsl #2
 80036d6:	bf14      	ite	ne
 80036d8:	0052      	lslne	r2, r2, #1
 80036da:	0092      	lsleq	r2, r2, #2
 80036dc:	eb03 0383 	add.w	r3, r3, r3, lsl #2
 80036e0:	fbb3 f3f2 	udiv	r3, r3, r2
 80036e4:	fba0 2103 	umull	r2, r1, r0, r3
 80036e8:	0949      	lsrs	r1, r1, #5
 80036ea:	f04f 0c64 	mov.w	ip, #100	; 0x64
 80036ee:	010a      	lsls	r2, r1, #4
 80036f0:	fb0c 3311 	mls	r3, ip, r1, r3
 80036f4:	0429      	lsls	r1, r5, #16
 80036f6:	d50a      	bpl.n	800370e <USART_Init+0xa2>
 80036f8:	00db      	lsls	r3, r3, #3
 80036fa:	3332      	adds	r3, #50	; 0x32
 80036fc:	fba0 0303 	umull	r0, r3, r0, r3
 8003700:	f3c3 1342 	ubfx	r3, r3, #5, #3
 8003704:	4313      	orrs	r3, r2
 8003706:	b29b      	uxth	r3, r3
 8003708:	60a3      	str	r3, [r4, #8]
 800370a:	b004      	add	sp, #16
 800370c:	bd30      	pop	{r4, r5, pc}
 800370e:	011b      	lsls	r3, r3, #4
 8003710:	3332      	adds	r3, #50	; 0x32
 8003712:	fba0 0303 	umull	r0, r3, r0, r3
 8003716:	f3c3 1343 	ubfx	r3, r3, #5, #4
 800371a:	4313      	orrs	r3, r2
 800371c:	b29b      	uxth	r3, r3
 800371e:	60a3      	str	r3, [r4, #8]
 8003720:	b004      	add	sp, #16
 8003722:	bd30      	pop	{r4, r5, pc}
 8003724:	40011000 	.word	0x40011000
 8003728:	51eb851f 	.word	0x51eb851f

0800372c <USART_Cmd>:
 800372c:	68c3      	ldr	r3, [r0, #12]
 800372e:	b119      	cbz	r1, 8003738 <USART_Cmd+0xc>
 8003730:	f443 5300 	orr.w	r3, r3, #8192	; 0x2000
 8003734:	60c3      	str	r3, [r0, #12]
 8003736:	4770      	bx	lr
 8003738:	f64d 72ff 	movw	r2, #57343	; 0xdfff
 800373c:	4013      	ands	r3, r2
 800373e:	60c3      	str	r3, [r0, #12]
 8003740:	4770      	bx	lr
 8003742:	bf00      	nop

08003744 <USART_SendData>:
 8003744:	f3c1 0108 	ubfx	r1, r1, #0, #9
 8003748:	6041      	str	r1, [r0, #4]
 800374a:	4770      	bx	lr

0800374c <USART_ReceiveData>:
 800374c:	6840      	ldr	r0, [r0, #4]
 800374e:	f3c0 0008 	ubfx	r0, r0, #0, #9
 8003752:	4770      	bx	lr

08003754 <USART_ITConfig>:
 8003754:	f001 0c1f 	and.w	ip, r1, #31
 8003758:	f3c1 1142 	ubfx	r1, r1, #5, #3
 800375c:	2301      	movs	r3, #1
 800375e:	2901      	cmp	r1, #1
 8003760:	fa03 f30c 	lsl.w	r3, r3, ip
 8003764:	d00d      	beq.n	8003782 <USART_ITConfig+0x2e>
 8003766:	2902      	cmp	r1, #2
 8003768:	bf0c      	ite	eq
 800376a:	3010      	addeq	r0, #16
 800376c:	3014      	addne	r0, #20
 800376e:	b11a      	cbz	r2, 8003778 <USART_ITConfig+0x24>
 8003770:	6802      	ldr	r2, [r0, #0]
 8003772:	4313      	orrs	r3, r2
 8003774:	6003      	str	r3, [r0, #0]
 8003776:	4770      	bx	lr
 8003778:	6802      	ldr	r2, [r0, #0]
 800377a:	ea22 0303 	bic.w	r3, r2, r3
 800377e:	6003      	str	r3, [r0, #0]
 8003780:	4770      	bx	lr
 8003782:	300c      	adds	r0, #12
 8003784:	e7f3      	b.n	800376e <USART_ITConfig+0x1a>
 8003786:	bf00      	nop

08003788 <USART_GetFlagStatus>:
 8003788:	6803      	ldr	r3, [r0, #0]
 800378a:	b289      	uxth	r1, r1
 800378c:	4219      	tst	r1, r3
 800378e:	bf14      	ite	ne
 8003790:	2001      	movne	r0, #1
 8003792:	2000      	moveq	r0, #0
 8003794:	4770      	bx	lr
 8003796:	bf00      	nop

08003798 <USART_GetITStatus>:
 8003798:	f3c1 1c42 	ubfx	ip, r1, #5, #3
 800379c:	b500      	push	{lr}
 800379e:	2301      	movs	r3, #1
 80037a0:	f001 0e1f 	and.w	lr, r1, #31
 80037a4:	f1bc 0f01 	cmp.w	ip, #1
 80037a8:	4602      	mov	r2, r0
 80037aa:	b289      	uxth	r1, r1
 80037ac:	fa03 f30e 	lsl.w	r3, r3, lr
 80037b0:	d010      	beq.n	80037d4 <USART_GetITStatus+0x3c>
 80037b2:	f1bc 0f02 	cmp.w	ip, #2
 80037b6:	bf0c      	ite	eq
 80037b8:	6900      	ldreq	r0, [r0, #16]
 80037ba:	6950      	ldrne	r0, [r2, #20]
 80037bc:	4018      	ands	r0, r3
 80037be:	6812      	ldr	r2, [r2, #0]
 80037c0:	b130      	cbz	r0, 80037d0 <USART_GetITStatus+0x38>
 80037c2:	0a09      	lsrs	r1, r1, #8
 80037c4:	2301      	movs	r3, #1
 80037c6:	408b      	lsls	r3, r1
 80037c8:	4213      	tst	r3, r2
 80037ca:	bf14      	ite	ne
 80037cc:	2001      	movne	r0, #1
 80037ce:	2000      	moveq	r0, #0
 80037d0:	f85d fb04 	ldr.w	pc, [sp], #4
 80037d4:	68c0      	ldr	r0, [r0, #12]
 80037d6:	4018      	ands	r0, r3
 80037d8:	e7f1      	b.n	80037be <USART_GetITStatus+0x26>
 80037da:	bf00      	nop

080037dc <USB_OTG_BSP_Init>:
 80037dc:	b530      	push	{r4, r5, lr}
 80037de:	2101      	movs	r1, #1
 80037e0:	b086      	sub	sp, #24
 80037e2:	4c21      	ldr	r4, [pc, #132]	; (8003868 <USB_OTG_BSP_Init+0x8c>)
 80037e4:	4608      	mov	r0, r1
 80037e6:	f7fe fac3 	bl	8001d70 <RCC_AHB1PeriphClockCmd>
 80037ea:	f44f 50d8 	mov.w	r0, #6912	; 0x1b00
 80037ee:	2300      	movs	r3, #0
 80037f0:	2202      	movs	r2, #2
 80037f2:	a901      	add	r1, sp, #4
 80037f4:	9001      	str	r0, [sp, #4]
 80037f6:	4620      	mov	r0, r4
 80037f8:	9304      	str	r3, [sp, #16]
 80037fa:	9305      	str	r3, [sp, #20]
 80037fc:	9203      	str	r2, [sp, #12]
 80037fe:	9202      	str	r2, [sp, #8]
 8003800:	f7fe f9f2 	bl	8001be8 <GPIO_Init>
 8003804:	4620      	mov	r0, r4
 8003806:	220a      	movs	r2, #10
 8003808:	2108      	movs	r1, #8
 800380a:	f7fe fa55 	bl	8001cb8 <GPIO_PinAFConfig>
 800380e:	4620      	mov	r0, r4
 8003810:	220a      	movs	r2, #10
 8003812:	2109      	movs	r1, #9
 8003814:	f7fe fa50 	bl	8001cb8 <GPIO_PinAFConfig>
 8003818:	4620      	mov	r0, r4
 800381a:	220a      	movs	r2, #10
 800381c:	210b      	movs	r1, #11
 800381e:	f7fe fa4b 	bl	8001cb8 <GPIO_PinAFConfig>
 8003822:	4620      	mov	r0, r4
 8003824:	220a      	movs	r2, #10
 8003826:	210c      	movs	r1, #12
 8003828:	f7fe fa46 	bl	8001cb8 <GPIO_PinAFConfig>
 800382c:	f44f 6380 	mov.w	r3, #1024	; 0x400
 8003830:	2501      	movs	r5, #1
 8003832:	a901      	add	r1, sp, #4
 8003834:	9301      	str	r3, [sp, #4]
 8003836:	2202      	movs	r2, #2
 8003838:	2301      	movs	r3, #1
 800383a:	4620      	mov	r0, r4
 800383c:	9203      	str	r2, [sp, #12]
 800383e:	9304      	str	r3, [sp, #16]
 8003840:	9505      	str	r5, [sp, #20]
 8003842:	f7fe f9d1 	bl	8001be8 <GPIO_Init>
 8003846:	220a      	movs	r2, #10
 8003848:	4611      	mov	r1, r2
 800384a:	4620      	mov	r0, r4
 800384c:	f7fe fa34 	bl	8001cb8 <GPIO_PinAFConfig>
 8003850:	4629      	mov	r1, r5
 8003852:	2080      	movs	r0, #128	; 0x80
 8003854:	f7fe fa98 	bl	8001d88 <RCC_AHB2PeriphClockCmd>
 8003858:	4629      	mov	r1, r5
 800385a:	f04f 5080 	mov.w	r0, #268435456	; 0x10000000
 800385e:	f7fe fab7 	bl	8001dd0 <RCC_APB1PeriphResetCmd>
 8003862:	b006      	add	sp, #24
 8003864:	bd30      	pop	{r4, r5, pc}
 8003866:	bf00      	nop
 8003868:	40020000 	.word	0x40020000

0800386c <USB_OTG_BSP_EnableInterrupt>:
 800386c:	b500      	push	{lr}
 800386e:	f44f 60c0 	mov.w	r0, #1536	; 0x600
 8003872:	b082      	sub	sp, #8
 8003874:	f7fd ff22 	bl	80016bc <NVIC_PriorityGroupConfig>
 8003878:	f240 1143 	movw	r1, #323	; 0x143
 800387c:	2203      	movs	r2, #3
 800387e:	2301      	movs	r3, #1
 8003880:	4668      	mov	r0, sp
 8003882:	f8ad 1000 	strh.w	r1, [sp]
 8003886:	f88d 2002 	strb.w	r2, [sp, #2]
 800388a:	9301      	str	r3, [sp, #4]
 800388c:	f7fd ff20 	bl	80016d0 <NVIC_Init>
 8003890:	b002      	add	sp, #8
 8003892:	f85d fb04 	ldr.w	pc, [sp], #4
 8003896:	bf00      	nop

08003898 <USB_OTG_BSP_uDelay>:
 8003898:	4770      	bx	lr
 800389a:	bf00      	nop

0800389c <USB_OTG_BSP_mDelay>:
 800389c:	4770      	bx	lr
 800389e:	bf00      	nop

080038a0 <OTG_FS_IRQHandler>:
 80038a0:	4801      	ldr	r0, [pc, #4]	; (80038a8 <OTG_FS_IRQHandler+0x8>)
 80038a2:	f000 bd89 	b.w	80043b8 <USBD_OTG_ISR_Handler>
 80038a6:	bf00      	nop
 80038a8:	20000494 	.word	0x20000494

080038ac <USB_OTG_CoreReset.isra.0>:
 80038ac:	b530      	push	{r4, r5, lr}
 80038ae:	b082      	sub	sp, #8
 80038b0:	2300      	movs	r3, #0
 80038b2:	4c12      	ldr	r4, [pc, #72]	; (80038fc <USB_OTG_CoreReset.isra.0+0x50>)
 80038b4:	9301      	str	r3, [sp, #4]
 80038b6:	4605      	mov	r5, r0
 80038b8:	2003      	movs	r0, #3
 80038ba:	f7ff ffed 	bl	8003898 <USB_OTG_BSP_uDelay>
 80038be:	68eb      	ldr	r3, [r5, #12]
 80038c0:	3c01      	subs	r4, #1
 80038c2:	691a      	ldr	r2, [r3, #16]
 80038c4:	9201      	str	r2, [sp, #4]
 80038c6:	d016      	beq.n	80038f6 <USB_OTG_CoreReset.isra.0+0x4a>
 80038c8:	9a01      	ldr	r2, [sp, #4]
 80038ca:	2a00      	cmp	r2, #0
 80038cc:	daf4      	bge.n	80038b8 <USB_OTG_CoreReset.isra.0+0xc>
 80038ce:	9901      	ldr	r1, [sp, #4]
 80038d0:	4a0a      	ldr	r2, [pc, #40]	; (80038fc <USB_OTG_CoreReset.isra.0+0x50>)
 80038d2:	f041 0101 	orr.w	r1, r1, #1
 80038d6:	9101      	str	r1, [sp, #4]
 80038d8:	9901      	ldr	r1, [sp, #4]
 80038da:	6119      	str	r1, [r3, #16]
 80038dc:	6919      	ldr	r1, [r3, #16]
 80038de:	9101      	str	r1, [sp, #4]
 80038e0:	3a01      	subs	r2, #1
 80038e2:	d002      	beq.n	80038ea <USB_OTG_CoreReset.isra.0+0x3e>
 80038e4:	9901      	ldr	r1, [sp, #4]
 80038e6:	07c9      	lsls	r1, r1, #31
 80038e8:	d4f8      	bmi.n	80038dc <USB_OTG_CoreReset.isra.0+0x30>
 80038ea:	2003      	movs	r0, #3
 80038ec:	b002      	add	sp, #8
 80038ee:	e8bd 4030 	ldmia.w	sp!, {r4, r5, lr}
 80038f2:	f7ff bfd1 	b.w	8003898 <USB_OTG_BSP_uDelay>
 80038f6:	b002      	add	sp, #8
 80038f8:	bd30      	pop	{r4, r5, pc}
 80038fa:	bf00      	nop
 80038fc:	00030d41 	.word	0x00030d41

08003900 <USB_OTG_WritePacket>:
 8003900:	b430      	push	{r4, r5}
 8003902:	78c4      	ldrb	r4, [r0, #3]
 8003904:	b2d2      	uxtb	r2, r2
 8003906:	b29b      	uxth	r3, r3
 8003908:	b96c      	cbnz	r4, 8003926 <USB_OTG_WritePacket+0x26>
 800390a:	f102 0534 	add.w	r5, r2, #52	; 0x34
 800390e:	1cda      	adds	r2, r3, #3
 8003910:	1092      	asrs	r2, r2, #2
 8003912:	f850 5025 	ldr.w	r5, [r0, r5, lsl #2]
 8003916:	d006      	beq.n	8003926 <USB_OTG_WritePacket+0x26>
 8003918:	4623      	mov	r3, r4
 800391a:	3301      	adds	r3, #1
 800391c:	f851 0b04 	ldr.w	r0, [r1], #4
 8003920:	6028      	str	r0, [r5, #0]
 8003922:	429a      	cmp	r2, r3
 8003924:	d1f9      	bne.n	800391a <USB_OTG_WritePacket+0x1a>
 8003926:	2000      	movs	r0, #0
 8003928:	bc30      	pop	{r4, r5}
 800392a:	4770      	bx	lr

0800392c <USB_OTG_ReadPacket>:
 800392c:	fa1f fc82 	uxth.w	ip, r2
 8003930:	f10c 0c03 	add.w	ip, ip, #3
 8003934:	ea5f 0cac 	movs.w	ip, ip, asr #2
 8003938:	b430      	push	{r4, r5}
 800393a:	f8d0 50d0 	ldr.w	r5, [r0, #208]	; 0xd0
 800393e:	d00b      	beq.n	8003958 <USB_OTG_ReadPacket+0x2c>
 8003940:	460a      	mov	r2, r1
 8003942:	2300      	movs	r3, #0
 8003944:	3301      	adds	r3, #1
 8003946:	682c      	ldr	r4, [r5, #0]
 8003948:	f842 4b04 	str.w	r4, [r2], #4
 800394c:	459c      	cmp	ip, r3
 800394e:	d1f9      	bne.n	8003944 <USB_OTG_ReadPacket+0x18>
 8003950:	eb01 008c 	add.w	r0, r1, ip, lsl #2
 8003954:	bc30      	pop	{r4, r5}
 8003956:	4770      	bx	lr
 8003958:	4608      	mov	r0, r1
 800395a:	bc30      	pop	{r4, r5}
 800395c:	4770      	bx	lr
 800395e:	bf00      	nop

08003960 <USB_OTG_SelectCore>:
 8003960:	2201      	movs	r2, #1
 8003962:	2340      	movs	r3, #64	; 0x40
 8003964:	4291      	cmp	r1, r2
 8003966:	e92d 41f0 	stmdb	sp!, {r4, r5, r6, r7, r8, lr}
 800396a:	8042      	strh	r2, [r0, #2]
 800396c:	8083      	strh	r3, [r0, #4]
 800396e:	d057      	beq.n	8003a20 <USB_OTG_SelectCore+0xc0>
 8003970:	2900      	cmp	r1, #0
 8003972:	d041      	beq.n	80039f8 <USB_OTG_SelectCore+0x98>
 8003974:	7843      	ldrb	r3, [r0, #1]
 8003976:	7806      	ldrb	r6, [r0, #0]
 8003978:	2200      	movs	r2, #0
 800397a:	f44f 6100 	mov.w	r1, #2048	; 0x800
 800397e:	60c2      	str	r2, [r0, #12]
 8003980:	6101      	str	r1, [r0, #16]
 8003982:	2b00      	cmp	r3, #0
 8003984:	d061      	beq.n	8003a4a <USB_OTG_SelectCore+0xea>
 8003986:	469e      	mov	lr, r3
 8003988:	f44f 6560 	mov.w	r5, #3584	; 0xe00
 800398c:	f44f 6788 	mov.w	r7, #1088	; 0x440
 8003990:	f44f 6880 	mov.w	r8, #1024	; 0x400
 8003994:	f502 6310 	add.w	r3, r2, #2304	; 0x900
 8003998:	f100 0c14 	add.w	ip, r0, #20
 800399c:	2100      	movs	r1, #0
 800399e:	f84c 3f04 	str.w	r3, [ip, #4]!
 80039a2:	3101      	adds	r1, #1
 80039a4:	f503 7400 	add.w	r4, r3, #512	; 0x200
 80039a8:	4571      	cmp	r1, lr
 80039aa:	f8cc 403c 	str.w	r4, [ip, #60]	; 0x3c
 80039ae:	f103 0320 	add.w	r3, r3, #32
 80039b2:	d3f4      	bcc.n	800399e <USB_OTG_SelectCore+0x3e>
 80039b4:	f8c0 8014 	str.w	r8, [r0, #20]
 80039b8:	f8c0 70cc 	str.w	r7, [r0, #204]	; 0xcc
 80039bc:	b1be      	cbz	r6, 80039ee <USB_OTG_SelectCore+0x8e>
 80039be:	f100 038c 	add.w	r3, r0, #140	; 0x8c
 80039c2:	f502 61a0 	add.w	r1, r2, #1280	; 0x500
 80039c6:	00b4      	lsls	r4, r6, #2
 80039c8:	eb03 0c86 	add.w	ip, r3, r6, lsl #2
 80039cc:	f843 1f04 	str.w	r1, [r3, #4]!
 80039d0:	459c      	cmp	ip, r3
 80039d2:	f101 0120 	add.w	r1, r1, #32
 80039d6:	d1f9      	bne.n	80039cc <USB_OTG_SelectCore+0x6c>
 80039d8:	f100 03cc 	add.w	r3, r0, #204	; 0xcc
 80039dc:	f502 5280 	add.w	r2, r2, #4096	; 0x1000
 80039e0:	1919      	adds	r1, r3, r4
 80039e2:	f843 2f04 	str.w	r2, [r3, #4]!
 80039e6:	4299      	cmp	r1, r3
 80039e8:	f502 5280 	add.w	r2, r2, #4096	; 0x1000
 80039ec:	d1f9      	bne.n	80039e2 <USB_OTG_SelectCore+0x82>
 80039ee:	f8c0 510c 	str.w	r5, [r0, #268]	; 0x10c
 80039f2:	2000      	movs	r0, #0
 80039f4:	e8bd 81f0 	ldmia.w	sp!, {r4, r5, r6, r7, r8, pc}
 80039f8:	f44f 63a0 	mov.w	r3, #1280	; 0x500
 80039fc:	80c3      	strh	r3, [r0, #6]
 80039fe:	4b17      	ldr	r3, [pc, #92]	; (8003a5c <USB_OTG_SelectCore+0xfc>)
 8003a00:	72c1      	strb	r1, [r0, #11]
 8003a02:	f240 620c 	movw	r2, #1548	; 0x60c
 8003a06:	4d16      	ldr	r5, [pc, #88]	; (8003a60 <USB_OTG_SelectCore+0x100>)
 8003a08:	4f16      	ldr	r7, [pc, #88]	; (8003a64 <USB_OTG_SelectCore+0x104>)
 8003a0a:	f8df 805c 	ldr.w	r8, [pc, #92]	; 8003a68 <USB_OTG_SelectCore+0x108>
 8003a0e:	4917      	ldr	r1, [pc, #92]	; (8003a6c <USB_OTG_SelectCore+0x10c>)
 8003a10:	8002      	strh	r2, [r0, #0]
 8003a12:	f04f 0e06 	mov.w	lr, #6
 8003a16:	260c      	movs	r6, #12
 8003a18:	461a      	mov	r2, r3
 8003a1a:	60c3      	str	r3, [r0, #12]
 8003a1c:	6101      	str	r1, [r0, #16]
 8003a1e:	e7b9      	b.n	8003994 <USB_OTG_SelectCore+0x34>
 8003a20:	2302      	movs	r3, #2
 8003a22:	f44f 72a0 	mov.w	r2, #320	; 0x140
 8003a26:	f44f 6481 	mov.w	r4, #1032	; 0x408
 8003a2a:	7203      	strb	r3, [r0, #8]
 8003a2c:	f04f 43a0 	mov.w	r3, #1342177280	; 0x50000000
 8003a30:	72c1      	strb	r1, [r0, #11]
 8003a32:	80c2      	strh	r2, [r0, #6]
 8003a34:	4d0e      	ldr	r5, [pc, #56]	; (8003a70 <USB_OTG_SelectCore+0x110>)
 8003a36:	4f0f      	ldr	r7, [pc, #60]	; (8003a74 <USB_OTG_SelectCore+0x114>)
 8003a38:	f8df 803c 	ldr.w	r8, [pc, #60]	; 8003a78 <USB_OTG_SelectCore+0x118>
 8003a3c:	490f      	ldr	r1, [pc, #60]	; (8003a7c <USB_OTG_SelectCore+0x11c>)
 8003a3e:	8004      	strh	r4, [r0, #0]
 8003a40:	f04f 0e04 	mov.w	lr, #4
 8003a44:	2608      	movs	r6, #8
 8003a46:	461a      	mov	r2, r3
 8003a48:	e7e7      	b.n	8003a1a <USB_OTG_SelectCore+0xba>
 8003a4a:	f44f 6560 	mov.w	r5, #3584	; 0xe00
 8003a4e:	f44f 6788 	mov.w	r7, #1088	; 0x440
 8003a52:	461a      	mov	r2, r3
 8003a54:	f44f 6880 	mov.w	r8, #1024	; 0x400
 8003a58:	e7ac      	b.n	80039b4 <USB_OTG_SelectCore+0x54>
 8003a5a:	bf00      	nop
 8003a5c:	40040000 	.word	0x40040000
 8003a60:	40040e00 	.word	0x40040e00
 8003a64:	40040440 	.word	0x40040440
 8003a68:	40040400 	.word	0x40040400
 8003a6c:	40040800 	.word	0x40040800
 8003a70:	50000e00 	.word	0x50000e00
 8003a74:	50000440 	.word	0x50000440
 8003a78:	50000400 	.word	0x50000400
 8003a7c:	50000800 	.word	0x50000800

08003a80 <USB_OTG_CoreInit>:
 8003a80:	b530      	push	{r4, r5, lr}
 8003a82:	7a03      	ldrb	r3, [r0, #8]
 8003a84:	68c2      	ldr	r2, [r0, #12]
 8003a86:	2b01      	cmp	r3, #1
 8003a88:	4604      	mov	r4, r0
 8003a8a:	f04f 0500 	mov.w	r5, #0
 8003a8e:	d11a      	bne.n	8003ac6 <USB_OTG_CoreInit+0x46>
 8003a90:	6b95      	ldr	r5, [r2, #56]	; 0x38
 8003a92:	7a41      	ldrb	r1, [r0, #9]
 8003a94:	f36f 4510 	bfc	r5, #16, #1
 8003a98:	b191      	cbz	r1, 8003ac0 <USB_OTG_CoreInit+0x40>
 8003a9a:	f363 5514 	bfi	r5, r3, #20, #1
 8003a9e:	6395      	str	r5, [r2, #56]	; 0x38
 8003aa0:	68d3      	ldr	r3, [r2, #12]
 8003aa2:	f423 0394 	bic.w	r3, r3, #4849664	; 0x4a0000
 8003aa6:	f023 03d8 	bic.w	r3, r3, #216	; 0xd8
 8003aaa:	f043 0310 	orr.w	r3, r3, #16
 8003aae:	60d3      	str	r3, [r2, #12]
 8003ab0:	4620      	mov	r0, r4
 8003ab2:	f7ff fefb 	bl	80038ac <USB_OTG_CoreReset.isra.0>
 8003ab6:	78e3      	ldrb	r3, [r4, #3]
 8003ab8:	2b01      	cmp	r3, #1
 8003aba:	d02c      	beq.n	8003b16 <USB_OTG_CoreInit+0x96>
 8003abc:	2000      	movs	r0, #0
 8003abe:	bd30      	pop	{r4, r5, pc}
 8003ac0:	f3c5 5300 	ubfx	r3, r5, #20, #1
 8003ac4:	e7e9      	b.n	8003a9a <USB_OTG_CoreInit+0x1a>
 8003ac6:	68d3      	ldr	r3, [r2, #12]
 8003ac8:	f043 0340 	orr.w	r3, r3, #64	; 0x40
 8003acc:	60d3      	str	r3, [r2, #12]
 8003ace:	f7ff feed 	bl	80038ac <USB_OTG_CoreReset.isra.0>
 8003ad2:	7a23      	ldrb	r3, [r4, #8]
 8003ad4:	7a62      	ldrb	r2, [r4, #9]
 8003ad6:	68e1      	ldr	r1, [r4, #12]
 8003ad8:	f1a3 0303 	sub.w	r3, r3, #3
 8003adc:	fab3 f383 	clz	r3, r3
 8003ae0:	095b      	lsrs	r3, r3, #5
 8003ae2:	3a00      	subs	r2, #0
 8003ae4:	ea4f 0343 	mov.w	r3, r3, lsl #1
 8003ae8:	bf18      	it	ne
 8003aea:	2201      	movne	r2, #1
 8003aec:	f043 030d 	orr.w	r3, r3, #13
 8003af0:	ea43 1302 	orr.w	r3, r3, r2, lsl #4
 8003af4:	f363 4517 	bfi	r5, r3, #16, #8
 8003af8:	638d      	str	r5, [r1, #56]	; 0x38
 8003afa:	2014      	movs	r0, #20
 8003afc:	f7ff fece 	bl	800389c <USB_OTG_BSP_mDelay>
 8003b00:	7a21      	ldrb	r1, [r4, #8]
 8003b02:	68e2      	ldr	r2, [r4, #12]
 8003b04:	2903      	cmp	r1, #3
 8003b06:	68d3      	ldr	r3, [r2, #12]
 8003b08:	d012      	beq.n	8003b30 <USB_OTG_CoreInit+0xb0>
 8003b0a:	60d3      	str	r3, [r2, #12]
 8003b0c:	78e3      	ldrb	r3, [r4, #3]
 8003b0e:	2b01      	cmp	r3, #1
 8003b10:	d1d4      	bne.n	8003abc <USB_OTG_CoreInit+0x3c>
 8003b12:	68e1      	ldr	r1, [r4, #12]
 8003b14:	e002      	b.n	8003b1c <USB_OTG_CoreInit+0x9c>
 8003b16:	68e1      	ldr	r1, [r4, #12]
 8003b18:	232a      	movs	r3, #42	; 0x2a
 8003b1a:	608b      	str	r3, [r1, #8]
 8003b1c:	688b      	ldr	r3, [r1, #8]
 8003b1e:	f023 023e 	bic.w	r2, r3, #62	; 0x3e
 8003b22:	f042 022a 	orr.w	r2, r2, #42	; 0x2a
 8003b26:	f362 0307 	bfi	r3, r2, #0, #8
 8003b2a:	608b      	str	r3, [r1, #8]
 8003b2c:	2000      	movs	r0, #0
 8003b2e:	bd30      	pop	{r4, r5, pc}
 8003b30:	f443 3380 	orr.w	r3, r3, #65536	; 0x10000
 8003b34:	60d3      	str	r3, [r2, #12]
 8003b36:	6b15      	ldr	r5, [r2, #48]	; 0x30
 8003b38:	4b0a      	ldr	r3, [pc, #40]	; (8003b64 <USB_OTG_CoreInit+0xe4>)
 8003b3a:	ea03 4315 	and.w	r3, r3, r5, lsr #16
 8003b3e:	f443 53a1 	orr.w	r3, r3, #5152	; 0x1420
 8003b42:	f043 030d 	orr.w	r3, r3, #13
 8003b46:	f363 451f 	bfi	r5, r3, #16, #16
 8003b4a:	6315      	str	r5, [r2, #48]	; 0x30
 8003b4c:	20c8      	movs	r0, #200	; 0xc8
 8003b4e:	f7ff fea5 	bl	800389c <USB_OTG_BSP_mDelay>
 8003b52:	68e3      	ldr	r3, [r4, #12]
 8003b54:	f445 0500 	orr.w	r5, r5, #8388608	; 0x800000
 8003b58:	631d      	str	r5, [r3, #48]	; 0x30
 8003b5a:	20c8      	movs	r0, #200	; 0xc8
 8003b5c:	f7ff fe9e 	bl	800389c <USB_OTG_BSP_mDelay>
 8003b60:	e7d4      	b.n	8003b0c <USB_OTG_CoreInit+0x8c>
 8003b62:	bf00      	nop
 8003b64:	ffffe300 	.word	0xffffe300

08003b68 <USB_OTG_EnableGlobalInt>:
 8003b68:	4603      	mov	r3, r0
 8003b6a:	2000      	movs	r0, #0
 8003b6c:	68da      	ldr	r2, [r3, #12]
 8003b6e:	6893      	ldr	r3, [r2, #8]
 8003b70:	f043 0301 	orr.w	r3, r3, #1
 8003b74:	6093      	str	r3, [r2, #8]
 8003b76:	4770      	bx	lr

08003b78 <USB_OTG_DisableGlobalInt>:
 8003b78:	4603      	mov	r3, r0
 8003b7a:	2000      	movs	r0, #0
 8003b7c:	68da      	ldr	r2, [r3, #12]
 8003b7e:	6893      	ldr	r3, [r2, #8]
 8003b80:	f023 0301 	bic.w	r3, r3, #1
 8003b84:	6093      	str	r3, [r2, #8]
 8003b86:	4770      	bx	lr

08003b88 <USB_OTG_FlushTxFifo>:
 8003b88:	b500      	push	{lr}
 8003b8a:	b082      	sub	sp, #8
 8003b8c:	2300      	movs	r3, #0
 8003b8e:	9301      	str	r3, [sp, #4]
 8003b90:	9b01      	ldr	r3, [sp, #4]
 8003b92:	f043 0320 	orr.w	r3, r3, #32
 8003b96:	9301      	str	r3, [sp, #4]
 8003b98:	9b01      	ldr	r3, [sp, #4]
 8003b9a:	f361 138a 	bfi	r3, r1, #6, #5
 8003b9e:	9301      	str	r3, [sp, #4]
 8003ba0:	68c1      	ldr	r1, [r0, #12]
 8003ba2:	9a01      	ldr	r2, [sp, #4]
 8003ba4:	4b07      	ldr	r3, [pc, #28]	; (8003bc4 <USB_OTG_FlushTxFifo+0x3c>)
 8003ba6:	610a      	str	r2, [r1, #16]
 8003ba8:	690a      	ldr	r2, [r1, #16]
 8003baa:	9201      	str	r2, [sp, #4]
 8003bac:	3b01      	subs	r3, #1
 8003bae:	d002      	beq.n	8003bb6 <USB_OTG_FlushTxFifo+0x2e>
 8003bb0:	9a01      	ldr	r2, [sp, #4]
 8003bb2:	0692      	lsls	r2, r2, #26
 8003bb4:	d4f8      	bmi.n	8003ba8 <USB_OTG_FlushTxFifo+0x20>
 8003bb6:	2003      	movs	r0, #3
 8003bb8:	f7ff fe6e 	bl	8003898 <USB_OTG_BSP_uDelay>
 8003bbc:	2000      	movs	r0, #0
 8003bbe:	b002      	add	sp, #8
 8003bc0:	f85d fb04 	ldr.w	pc, [sp], #4
 8003bc4:	00030d41 	.word	0x00030d41

08003bc8 <USB_OTG_SetCurrentMode>:
 8003bc8:	b510      	push	{r4, lr}
 8003bca:	68c4      	ldr	r4, [r0, #12]
 8003bcc:	68e3      	ldr	r3, [r4, #12]
 8003bce:	b2c9      	uxtb	r1, r1
 8003bd0:	f3c3 6207 	ubfx	r2, r3, #24, #8
 8003bd4:	f022 0260 	bic.w	r2, r2, #96	; 0x60
 8003bd8:	2901      	cmp	r1, #1
 8003bda:	f362 631f 	bfi	r3, r2, #24, #8
 8003bde:	d008      	beq.n	8003bf2 <USB_OTG_SetCurrentMode+0x2a>
 8003be0:	b909      	cbnz	r1, 8003be6 <USB_OTG_SetCurrentMode+0x1e>
 8003be2:	f043 4380 	orr.w	r3, r3, #1073741824	; 0x40000000
 8003be6:	2032      	movs	r0, #50	; 0x32
 8003be8:	60e3      	str	r3, [r4, #12]
 8003bea:	f7ff fe57 	bl	800389c <USB_OTG_BSP_mDelay>
 8003bee:	2000      	movs	r0, #0
 8003bf0:	bd10      	pop	{r4, pc}
 8003bf2:	f043 5300 	orr.w	r3, r3, #536870912	; 0x20000000
 8003bf6:	e7f6      	b.n	8003be6 <USB_OTG_SetCurrentMode+0x1e>

08003bf8 <USB_OTG_IsDeviceMode>:
 8003bf8:	68c3      	ldr	r3, [r0, #12]
 8003bfa:	6958      	ldr	r0, [r3, #20]
 8003bfc:	43c0      	mvns	r0, r0
 8003bfe:	f000 0001 	and.w	r0, r0, #1
 8003c02:	4770      	bx	lr

08003c04 <USB_OTG_ReadCoreItr>:
 8003c04:	68c3      	ldr	r3, [r0, #12]
 8003c06:	6958      	ldr	r0, [r3, #20]
 8003c08:	699b      	ldr	r3, [r3, #24]
 8003c0a:	4018      	ands	r0, r3
 8003c0c:	4770      	bx	lr
 8003c0e:	bf00      	nop

08003c10 <USB_OTG_EnableDevInt>:
 8003c10:	b410      	push	{r4}
 8003c12:	68c3      	ldr	r3, [r0, #12]
 8003c14:	4c0a      	ldr	r4, [pc, #40]	; (8003c40 <USB_OTG_EnableDevInt+0x30>)
 8003c16:	f04f 31ff 	mov.w	r1, #4294967295	; 0xffffffff
 8003c1a:	4602      	mov	r2, r0
 8003c1c:	2000      	movs	r0, #0
 8003c1e:	6198      	str	r0, [r3, #24]
 8003c20:	6159      	str	r1, [r3, #20]
 8003c22:	6059      	str	r1, [r3, #4]
 8003c24:	6159      	str	r1, [r3, #20]
 8003c26:	619c      	str	r4, [r3, #24]
 8003c28:	78d1      	ldrb	r1, [r2, #3]
 8003c2a:	4a06      	ldr	r2, [pc, #24]	; (8003c44 <USB_OTG_EnableDevInt+0x34>)
 8003c2c:	699c      	ldr	r4, [r3, #24]
 8003c2e:	fab1 f181 	clz	r1, r1
 8003c32:	0949      	lsrs	r1, r1, #5
 8003c34:	ea42 1201 	orr.w	r2, r2, r1, lsl #4
 8003c38:	4322      	orrs	r2, r4
 8003c3a:	619a      	str	r2, [r3, #24]
 8003c3c:	bc10      	pop	{r4}
 8003c3e:	4770      	bx	lr
 8003c40:	80000800 	.word	0x80000800
 8003c44:	403c380c 	.word	0x403c380c

08003c48 <USB_OTG_CoreInitDev>:
 8003c48:	f8d0 310c 	ldr.w	r3, [r0, #268]	; 0x10c
 8003c4c:	6902      	ldr	r2, [r0, #16]
 8003c4e:	2100      	movs	r1, #0
 8003c50:	b5f0      	push	{r4, r5, r6, r7, lr}
 8003c52:	6019      	str	r1, [r3, #0]
 8003c54:	6813      	ldr	r3, [r2, #0]
 8003c56:	f361 23cc 	bfi	r3, r1, #11, #2
 8003c5a:	6013      	str	r3, [r2, #0]
 8003c5c:	7ac3      	ldrb	r3, [r0, #11]
 8003c5e:	2b01      	cmp	r3, #1
 8003c60:	b082      	sub	sp, #8
 8003c62:	4604      	mov	r4, r0
 8003c64:	d06c      	beq.n	8003d40 <USB_OTG_CoreInitDev+0xf8>
 8003c66:	68c1      	ldr	r1, [r0, #12]
 8003c68:	2300      	movs	r3, #0
 8003c6a:	9301      	str	r3, [sp, #4]
 8003c6c:	9b01      	ldr	r3, [sp, #4]
 8003c6e:	f043 0320 	orr.w	r3, r3, #32
 8003c72:	9301      	str	r3, [sp, #4]
 8003c74:	9a01      	ldr	r2, [sp, #4]
 8003c76:	4b3d      	ldr	r3, [pc, #244]	; (8003d6c <USB_OTG_CoreInitDev+0x124>)
 8003c78:	2010      	movs	r0, #16
 8003c7a:	f360 128a 	bfi	r2, r0, #6, #5
 8003c7e:	9201      	str	r2, [sp, #4]
 8003c80:	9a01      	ldr	r2, [sp, #4]
 8003c82:	610a      	str	r2, [r1, #16]
 8003c84:	690a      	ldr	r2, [r1, #16]
 8003c86:	9201      	str	r2, [sp, #4]
 8003c88:	3b01      	subs	r3, #1
 8003c8a:	d002      	beq.n	8003c92 <USB_OTG_CoreInitDev+0x4a>
 8003c8c:	9a01      	ldr	r2, [sp, #4]
 8003c8e:	0690      	lsls	r0, r2, #26
 8003c90:	d4f8      	bmi.n	8003c84 <USB_OTG_CoreInitDev+0x3c>
 8003c92:	2003      	movs	r0, #3
 8003c94:	f7ff fe00 	bl	8003898 <USB_OTG_BSP_uDelay>
 8003c98:	2300      	movs	r3, #0
 8003c9a:	9300      	str	r3, [sp, #0]
 8003c9c:	9b00      	ldr	r3, [sp, #0]
 8003c9e:	68e1      	ldr	r1, [r4, #12]
 8003ca0:	f043 0310 	orr.w	r3, r3, #16
 8003ca4:	9300      	str	r3, [sp, #0]
 8003ca6:	9a00      	ldr	r2, [sp, #0]
 8003ca8:	4b30      	ldr	r3, [pc, #192]	; (8003d6c <USB_OTG_CoreInitDev+0x124>)
 8003caa:	610a      	str	r2, [r1, #16]
 8003cac:	690a      	ldr	r2, [r1, #16]
 8003cae:	9200      	str	r2, [sp, #0]
 8003cb0:	3b01      	subs	r3, #1
 8003cb2:	d002      	beq.n	8003cba <USB_OTG_CoreInitDev+0x72>
 8003cb4:	9a00      	ldr	r2, [sp, #0]
 8003cb6:	06d2      	lsls	r2, r2, #27
 8003cb8:	d4f8      	bmi.n	8003cac <USB_OTG_CoreInitDev+0x64>
 8003cba:	2003      	movs	r0, #3
 8003cbc:	f7ff fdec 	bl	8003898 <USB_OTG_BSP_uDelay>
 8003cc0:	6926      	ldr	r6, [r4, #16]
 8003cc2:	2500      	movs	r5, #0
 8003cc4:	f04f 33ff 	mov.w	r3, #4294967295	; 0xffffffff
 8003cc8:	6135      	str	r5, [r6, #16]
 8003cca:	6175      	str	r5, [r6, #20]
 8003ccc:	61b3      	str	r3, [r6, #24]
 8003cce:	61f5      	str	r5, [r6, #28]
 8003cd0:	7860      	ldrb	r0, [r4, #1]
 8003cd2:	b330      	cbz	r0, 8003d22 <USB_OTG_CoreInitDev+0xda>
 8003cd4:	f104 0214 	add.w	r2, r4, #20
 8003cd8:	ea4f 0c80 	mov.w	ip, r0, lsl #2
 8003cdc:	27ff      	movs	r7, #255	; 0xff
 8003cde:	eb02 0080 	add.w	r0, r2, r0, lsl #2
 8003ce2:	f852 3f04 	ldr.w	r3, [r2, #4]!
 8003ce6:	6819      	ldr	r1, [r3, #0]
 8003ce8:	2900      	cmp	r1, #0
 8003cea:	bfb4      	ite	lt
 8003cec:	f04f 4190 	movlt.w	r1, #1207959552	; 0x48000000
 8003cf0:	2100      	movge	r1, #0
 8003cf2:	4282      	cmp	r2, r0
 8003cf4:	6019      	str	r1, [r3, #0]
 8003cf6:	611d      	str	r5, [r3, #16]
 8003cf8:	609f      	str	r7, [r3, #8]
 8003cfa:	d1f2      	bne.n	8003ce2 <USB_OTG_CoreInitDev+0x9a>
 8003cfc:	f104 0250 	add.w	r2, r4, #80	; 0x50
 8003d00:	eb02 000c 	add.w	r0, r2, ip
 8003d04:	2700      	movs	r7, #0
 8003d06:	25ff      	movs	r5, #255	; 0xff
 8003d08:	f852 3f04 	ldr.w	r3, [r2, #4]!
 8003d0c:	6819      	ldr	r1, [r3, #0]
 8003d0e:	2900      	cmp	r1, #0
 8003d10:	bfb4      	ite	lt
 8003d12:	f04f 4190 	movlt.w	r1, #1207959552	; 0x48000000
 8003d16:	2100      	movge	r1, #0
 8003d18:	4290      	cmp	r0, r2
 8003d1a:	6019      	str	r1, [r3, #0]
 8003d1c:	611f      	str	r7, [r3, #16]
 8003d1e:	609d      	str	r5, [r3, #8]
 8003d20:	d1f2      	bne.n	8003d08 <USB_OTG_CoreInitDev+0xc0>
 8003d22:	6933      	ldr	r3, [r6, #16]
 8003d24:	f443 7380 	orr.w	r3, r3, #256	; 0x100
 8003d28:	6133      	str	r3, [r6, #16]
 8003d2a:	78e3      	ldrb	r3, [r4, #3]
 8003d2c:	2b01      	cmp	r3, #1
 8003d2e:	d101      	bne.n	8003d34 <USB_OTG_CoreInitDev+0xec>
 8003d30:	4b0f      	ldr	r3, [pc, #60]	; (8003d70 <USB_OTG_CoreInitDev+0x128>)
 8003d32:	6333      	str	r3, [r6, #48]	; 0x30
 8003d34:	4620      	mov	r0, r4
 8003d36:	f7ff ff6b 	bl	8003c10 <USB_OTG_EnableDevInt>
 8003d3a:	2000      	movs	r0, #0
 8003d3c:	b002      	add	sp, #8
 8003d3e:	bdf0      	pop	{r4, r5, r6, r7, pc}
 8003d40:	6813      	ldr	r3, [r2, #0]
 8003d42:	68c1      	ldr	r1, [r0, #12]
 8003d44:	f043 0303 	orr.w	r3, r3, #3
 8003d48:	2080      	movs	r0, #128	; 0x80
 8003d4a:	6013      	str	r3, [r2, #0]
 8003d4c:	6248      	str	r0, [r1, #36]	; 0x24
 8003d4e:	4b09      	ldr	r3, [pc, #36]	; (8003d74 <USB_OTG_CoreInitDev+0x12c>)
 8003d50:	4a09      	ldr	r2, [pc, #36]	; (8003d78 <USB_OTG_CoreInitDev+0x130>)
 8003d52:	f500 1000 	add.w	r0, r0, #2097152	; 0x200000
 8003d56:	6288      	str	r0, [r1, #40]	; 0x28
 8003d58:	f8c1 3104 	str.w	r3, [r1, #260]	; 0x104
 8003d5c:	f44f 73a0 	mov.w	r3, #320	; 0x140
 8003d60:	f8c1 2108 	str.w	r2, [r1, #264]	; 0x108
 8003d64:	f8c1 310c 	str.w	r3, [r1, #268]	; 0x10c
 8003d68:	e77e      	b.n	8003c68 <USB_OTG_CoreInitDev+0x20>
 8003d6a:	bf00      	nop
 8003d6c:	00030d41 	.word	0x00030d41
 8003d70:	00810103 	.word	0x00810103
 8003d74:	008000a0 	.word	0x008000a0
 8003d78:	00200120 	.word	0x00200120

08003d7c <USB_OTG_GetDeviceSpeed>:
 8003d7c:	6903      	ldr	r3, [r0, #16]
 8003d7e:	6898      	ldr	r0, [r3, #8]
 8003d80:	f3c0 0041 	ubfx	r0, r0, #1, #2
 8003d84:	2802      	cmp	r0, #2
 8003d86:	bf1a      	itte	ne
 8003d88:	f000 0001 	andne.w	r0, r0, #1
 8003d8c:	f1c0 0003 	rsbne	r0, r0, #3
 8003d90:	2001      	moveq	r0, #1
 8003d92:	4770      	bx	lr

08003d94 <USB_OTG_EP0Activate>:
 8003d94:	6903      	ldr	r3, [r0, #16]
 8003d96:	6981      	ldr	r1, [r0, #24]
 8003d98:	689a      	ldr	r2, [r3, #8]
 8003d9a:	6808      	ldr	r0, [r1, #0]
 8003d9c:	f3c2 0241 	ubfx	r2, r2, #1, #2
 8003da0:	2a02      	cmp	r2, #2
 8003da2:	bf0c      	ite	eq
 8003da4:	2203      	moveq	r2, #3
 8003da6:	2200      	movne	r2, #0
 8003da8:	f362 000a 	bfi	r0, r2, #0, #11
 8003dac:	6008      	str	r0, [r1, #0]
 8003dae:	685a      	ldr	r2, [r3, #4]
 8003db0:	f442 7280 	orr.w	r2, r2, #256	; 0x100
 8003db4:	2000      	movs	r0, #0
 8003db6:	605a      	str	r2, [r3, #4]
 8003db8:	4770      	bx	lr
 8003dba:	bf00      	nop

08003dbc <USB_OTG_EPActivate>:
 8003dbc:	b430      	push	{r4, r5}
 8003dbe:	784b      	ldrb	r3, [r1, #1]
 8003dc0:	2b01      	cmp	r3, #1
 8003dc2:	f04f 0200 	mov.w	r2, #0
 8003dc6:	d028      	beq.n	8003e1a <USB_OTG_EPActivate+0x5e>
 8003dc8:	780d      	ldrb	r5, [r1, #0]
 8003dca:	f105 0315 	add.w	r3, r5, #21
 8003dce:	f850 4023 	ldr.w	r4, [r0, r3, lsl #2]
 8003dd2:	2301      	movs	r3, #1
 8003dd4:	40ab      	lsls	r3, r5
 8003dd6:	f363 421f 	bfi	r2, r3, #16, #16
 8003dda:	6825      	ldr	r5, [r4, #0]
 8003ddc:	042b      	lsls	r3, r5, #16
 8003dde:	d415      	bmi.n	8003e0c <USB_OTG_EPActivate+0x50>
 8003de0:	688b      	ldr	r3, [r1, #8]
 8003de2:	f891 c003 	ldrb.w	ip, [r1, #3]
 8003de6:	88c9      	ldrh	r1, [r1, #6]
 8003de8:	f3c3 030a 	ubfx	r3, r3, #0, #11
 8003dec:	f043 5380 	orr.w	r3, r3, #268435456	; 0x10000000
 8003df0:	f443 4300 	orr.w	r3, r3, #32768	; 0x8000
 8003df4:	f00c 0c03 	and.w	ip, ip, #3
 8003df8:	f001 010f 	and.w	r1, r1, #15
 8003dfc:	ea43 438c 	orr.w	r3, r3, ip, lsl #18
 8003e00:	ea43 5381 	orr.w	r3, r3, r1, lsl #22
 8003e04:	4909      	ldr	r1, [pc, #36]	; (8003e2c <USB_OTG_EPActivate+0x70>)
 8003e06:	4029      	ands	r1, r5
 8003e08:	430b      	orrs	r3, r1
 8003e0a:	6023      	str	r3, [r4, #0]
 8003e0c:	6903      	ldr	r3, [r0, #16]
 8003e0e:	69d9      	ldr	r1, [r3, #28]
 8003e10:	430a      	orrs	r2, r1
 8003e12:	2000      	movs	r0, #0
 8003e14:	bc30      	pop	{r4, r5}
 8003e16:	61da      	str	r2, [r3, #28]
 8003e18:	4770      	bx	lr
 8003e1a:	780c      	ldrb	r4, [r1, #0]
 8003e1c:	40a3      	lsls	r3, r4
 8003e1e:	3406      	adds	r4, #6
 8003e20:	f363 020f 	bfi	r2, r3, #0, #16
 8003e24:	f850 4024 	ldr.w	r4, [r0, r4, lsl #2]
 8003e28:	e7d7      	b.n	8003dda <USB_OTG_EPActivate+0x1e>
 8003e2a:	bf00      	nop
 8003e2c:	ec337800 	.word	0xec337800

08003e30 <USB_OTG_EPDeactivate>:
 8003e30:	784b      	ldrb	r3, [r1, #1]
 8003e32:	780a      	ldrb	r2, [r1, #0]
 8003e34:	2b01      	cmp	r3, #1
 8003e36:	f04f 0c00 	mov.w	ip, #0
 8003e3a:	d00f      	beq.n	8003e5c <USB_OTG_EPDeactivate+0x2c>
 8003e3c:	f102 0115 	add.w	r1, r2, #21
 8003e40:	2301      	movs	r3, #1
 8003e42:	4093      	lsls	r3, r2
 8003e44:	f850 1021 	ldr.w	r1, [r0, r1, lsl #2]
 8003e48:	f363 4c1f 	bfi	ip, r3, #16, #16
 8003e4c:	6902      	ldr	r2, [r0, #16]
 8003e4e:	2000      	movs	r0, #0
 8003e50:	6008      	str	r0, [r1, #0]
 8003e52:	69d3      	ldr	r3, [r2, #28]
 8003e54:	ea23 030c 	bic.w	r3, r3, ip
 8003e58:	61d3      	str	r3, [r2, #28]
 8003e5a:	4770      	bx	lr
 8003e5c:	1d91      	adds	r1, r2, #6
 8003e5e:	4093      	lsls	r3, r2
 8003e60:	f850 1021 	ldr.w	r1, [r0, r1, lsl #2]
 8003e64:	f363 0c0f 	bfi	ip, r3, #0, #16
 8003e68:	e7f0      	b.n	8003e4c <USB_OTG_EPDeactivate+0x1c>
 8003e6a:	bf00      	nop

08003e6c <USB_OTG_EPStartXfer>:
 8003e6c:	e92d 43f0 	stmdb	sp!, {r4, r5, r6, r7, r8, r9, lr}
 8003e70:	784b      	ldrb	r3, [r1, #1]
 8003e72:	2b01      	cmp	r3, #1
 8003e74:	d030      	beq.n	8003ed8 <USB_OTG_EPStartXfer+0x6c>
 8003e76:	780b      	ldrb	r3, [r1, #0]
 8003e78:	3315      	adds	r3, #21
 8003e7a:	f850 5023 	ldr.w	r5, [r0, r3, lsl #2]
 8003e7e:	694b      	ldr	r3, [r1, #20]
 8003e80:	682c      	ldr	r4, [r5, #0]
 8003e82:	692e      	ldr	r6, [r5, #16]
 8003e84:	b31b      	cbz	r3, 8003ece <USB_OTG_EPStartXfer+0x62>
 8003e86:	688f      	ldr	r7, [r1, #8]
 8003e88:	443b      	add	r3, r7
 8003e8a:	3b01      	subs	r3, #1
 8003e8c:	fbb3 f3f7 	udiv	r3, r3, r7
 8003e90:	f3c3 0209 	ubfx	r2, r3, #0, #10
 8003e94:	fb07 f202 	mul.w	r2, r7, r2
 8003e98:	f3c3 0309 	ubfx	r3, r3, #0, #10
 8003e9c:	f3c2 0212 	ubfx	r2, r2, #0, #19
 8003ea0:	ea42 42c3 	orr.w	r2, r2, r3, lsl #19
 8003ea4:	f362 061c 	bfi	r6, r2, #0, #29
 8003ea8:	612e      	str	r6, [r5, #16]
 8003eaa:	78c3      	ldrb	r3, [r0, #3]
 8003eac:	2b01      	cmp	r3, #1
 8003eae:	bf04      	itt	eq
 8003eb0:	690b      	ldreq	r3, [r1, #16]
 8003eb2:	616b      	streq	r3, [r5, #20]
 8003eb4:	78cb      	ldrb	r3, [r1, #3]
 8003eb6:	2b01      	cmp	r3, #1
 8003eb8:	d06b      	beq.n	8003f92 <USB_OTG_EPStartXfer+0x126>
 8003eba:	f3c4 6307 	ubfx	r3, r4, #24, #8
 8003ebe:	f063 037b 	orn	r3, r3, #123	; 0x7b
 8003ec2:	f363 641f 	bfi	r4, r3, #24, #8
 8003ec6:	602c      	str	r4, [r5, #0]
 8003ec8:	2000      	movs	r0, #0
 8003eca:	e8bd 83f0 	ldmia.w	sp!, {r4, r5, r6, r7, r8, r9, pc}
 8003ece:	688a      	ldr	r2, [r1, #8]
 8003ed0:	2301      	movs	r3, #1
 8003ed2:	f3c2 0212 	ubfx	r2, r2, #0, #19
 8003ed6:	e7e3      	b.n	8003ea0 <USB_OTG_EPStartXfer+0x34>
 8003ed8:	f891 e000 	ldrb.w	lr, [r1]
 8003edc:	694d      	ldr	r5, [r1, #20]
 8003ede:	eb00 0c8e 	add.w	ip, r0, lr, lsl #2
 8003ee2:	f8dc 7018 	ldr.w	r7, [ip, #24]
 8003ee6:	683c      	ldr	r4, [r7, #0]
 8003ee8:	693a      	ldr	r2, [r7, #16]
 8003eea:	f002 4260 	and.w	r2, r2, #3758096384	; 0xe0000000
 8003eee:	b34d      	cbz	r5, 8003f44 <USB_OTG_EPStartXfer+0xd8>
 8003ef0:	f8d1 9008 	ldr.w	r9, [r1, #8]
 8003ef4:	4e34      	ldr	r6, [pc, #208]	; (8003fc8 <USB_OTG_EPStartXfer+0x15c>)
 8003ef6:	eb05 0809 	add.w	r8, r5, r9
 8003efa:	f108 38ff 	add.w	r8, r8, #4294967295	; 0xffffffff
 8003efe:	fbb8 f8f9 	udiv	r8, r8, r9
 8003f02:	ea06 46c8 	and.w	r6, r6, r8, lsl #19
 8003f06:	f3c5 0812 	ubfx	r8, r5, #0, #19
 8003f0a:	ea46 0608 	orr.w	r6, r6, r8
 8003f0e:	f891 8003 	ldrb.w	r8, [r1, #3]
 8003f12:	4332      	orrs	r2, r6
 8003f14:	f1b8 0f01 	cmp.w	r8, #1
 8003f18:	4616      	mov	r6, r2
 8003f1a:	d048      	beq.n	8003fae <USB_OTG_EPStartXfer+0x142>
 8003f1c:	613a      	str	r2, [r7, #16]
 8003f1e:	78c2      	ldrb	r2, [r0, #3]
 8003f20:	2a01      	cmp	r2, #1
 8003f22:	d04d      	beq.n	8003fc0 <USB_OTG_EPStartXfer+0x154>
 8003f24:	6902      	ldr	r2, [r0, #16]
 8003f26:	6b51      	ldr	r1, [r2, #52]	; 0x34
 8003f28:	fa03 f30e 	lsl.w	r3, r3, lr
 8003f2c:	430b      	orrs	r3, r1
 8003f2e:	6353      	str	r3, [r2, #52]	; 0x34
 8003f30:	f3c4 6307 	ubfx	r3, r4, #24, #8
 8003f34:	f063 037b 	orn	r3, r3, #123	; 0x7b
 8003f38:	f363 641f 	bfi	r4, r3, #24, #8
 8003f3c:	603c      	str	r4, [r7, #0]
 8003f3e:	2000      	movs	r0, #0
 8003f40:	e8bd 83f0 	ldmia.w	sp!, {r4, r5, r6, r7, r8, r9, pc}
 8003f44:	f442 2200 	orr.w	r2, r2, #524288	; 0x80000
 8003f48:	78ce      	ldrb	r6, [r1, #3]
 8003f4a:	613a      	str	r2, [r7, #16]
 8003f4c:	78c3      	ldrb	r3, [r0, #3]
 8003f4e:	2b01      	cmp	r3, #1
 8003f50:	d027      	beq.n	8003fa2 <USB_OTG_EPStartXfer+0x136>
 8003f52:	2e01      	cmp	r6, #1
 8003f54:	d1ec      	bne.n	8003f30 <USB_OTG_EPStartXfer+0xc4>
 8003f56:	6902      	ldr	r2, [r0, #16]
 8003f58:	6892      	ldr	r2, [r2, #8]
 8003f5a:	f412 7f80 	tst.w	r2, #256	; 0x100
 8003f5e:	f3c4 6207 	ubfx	r2, r4, #24, #8
 8003f62:	bf0c      	ite	eq
 8003f64:	f062 025b 	orneq	r2, r2, #91	; 0x5b
 8003f68:	f062 026b 	ornne	r2, r2, #107	; 0x6b
 8003f6c:	f362 641f 	bfi	r4, r2, #24, #8
 8003f70:	603c      	str	r4, [r7, #0]
 8003f72:	2b00      	cmp	r3, #0
 8003f74:	d1a8      	bne.n	8003ec8 <USB_OTG_EPStartXfer+0x5c>
 8003f76:	b2a8      	uxth	r0, r5
 8003f78:	3003      	adds	r0, #3
 8003f7a:	1080      	asrs	r0, r0, #2
 8003f7c:	f8dc 40d0 	ldr.w	r4, [ip, #208]	; 0xd0
 8003f80:	d0a2      	beq.n	8003ec8 <USB_OTG_EPStartXfer+0x5c>
 8003f82:	68ca      	ldr	r2, [r1, #12]
 8003f84:	f852 1b04 	ldr.w	r1, [r2], #4
 8003f88:	6021      	str	r1, [r4, #0]
 8003f8a:	3301      	adds	r3, #1
 8003f8c:	4298      	cmp	r0, r3
 8003f8e:	d1f9      	bne.n	8003f84 <USB_OTG_EPStartXfer+0x118>
 8003f90:	e79a      	b.n	8003ec8 <USB_OTG_EPStartXfer+0x5c>
 8003f92:	794b      	ldrb	r3, [r1, #5]
 8003f94:	b113      	cbz	r3, 8003f9c <USB_OTG_EPStartXfer+0x130>
 8003f96:	f044 5400 	orr.w	r4, r4, #536870912	; 0x20000000
 8003f9a:	e78e      	b.n	8003eba <USB_OTG_EPStartXfer+0x4e>
 8003f9c:	f044 5480 	orr.w	r4, r4, #268435456	; 0x10000000
 8003fa0:	e78b      	b.n	8003eba <USB_OTG_EPStartXfer+0x4e>
 8003fa2:	690b      	ldr	r3, [r1, #16]
 8003fa4:	617b      	str	r3, [r7, #20]
 8003fa6:	2e01      	cmp	r6, #1
 8003fa8:	d1c2      	bne.n	8003f30 <USB_OTG_EPStartXfer+0xc4>
 8003faa:	2301      	movs	r3, #1
 8003fac:	e7d3      	b.n	8003f56 <USB_OTG_EPStartXfer+0xea>
 8003fae:	f368 765e 	bfi	r6, r8, #29, #2
 8003fb2:	613e      	str	r6, [r7, #16]
 8003fb4:	78c3      	ldrb	r3, [r0, #3]
 8003fb6:	2b01      	cmp	r3, #1
 8003fb8:	d1cd      	bne.n	8003f56 <USB_OTG_EPStartXfer+0xea>
 8003fba:	690b      	ldr	r3, [r1, #16]
 8003fbc:	617b      	str	r3, [r7, #20]
 8003fbe:	e7f4      	b.n	8003faa <USB_OTG_EPStartXfer+0x13e>
 8003fc0:	690b      	ldr	r3, [r1, #16]
 8003fc2:	617b      	str	r3, [r7, #20]
 8003fc4:	e7b4      	b.n	8003f30 <USB_OTG_EPStartXfer+0xc4>
 8003fc6:	bf00      	nop
 8003fc8:	1ff80000 	.word	0x1ff80000

08003fcc <USB_OTG_EP0StartXfer>:
 8003fcc:	b470      	push	{r4, r5, r6}
 8003fce:	784b      	ldrb	r3, [r1, #1]
 8003fd0:	2b01      	cmp	r3, #1
 8003fd2:	d026      	beq.n	8004022 <USB_OTG_EP0StartXfer+0x56>
 8003fd4:	780b      	ldrb	r3, [r1, #0]
 8003fd6:	694a      	ldr	r2, [r1, #20]
 8003fd8:	3315      	adds	r3, #21
 8003fda:	f850 5023 	ldr.w	r5, [r0, r3, lsl #2]
 8003fde:	682c      	ldr	r4, [r5, #0]
 8003fe0:	692b      	ldr	r3, [r5, #16]
 8003fe2:	b1d2      	cbz	r2, 800401a <USB_OTG_EP0StartXfer+0x4e>
 8003fe4:	688a      	ldr	r2, [r1, #8]
 8003fe6:	614a      	str	r2, [r1, #20]
 8003fe8:	f002 027f 	and.w	r2, r2, #127	; 0x7f
 8003fec:	f423 13c0 	bic.w	r3, r3, #1572864	; 0x180000
 8003ff0:	f023 037f 	bic.w	r3, r3, #127	; 0x7f
 8003ff4:	f442 2200 	orr.w	r2, r2, #524288	; 0x80000
 8003ff8:	4313      	orrs	r3, r2
 8003ffa:	612b      	str	r3, [r5, #16]
 8003ffc:	78c3      	ldrb	r3, [r0, #3]
 8003ffe:	2b01      	cmp	r3, #1
 8004000:	bf04      	itt	eq
 8004002:	690b      	ldreq	r3, [r1, #16]
 8004004:	616b      	streq	r3, [r5, #20]
 8004006:	f3c4 6307 	ubfx	r3, r4, #24, #8
 800400a:	f063 037b 	orn	r3, r3, #123	; 0x7b
 800400e:	f363 641f 	bfi	r4, r3, #24, #8
 8004012:	602c      	str	r4, [r5, #0]
 8004014:	2000      	movs	r0, #0
 8004016:	bc70      	pop	{r4, r5, r6}
 8004018:	4770      	bx	lr
 800401a:	688a      	ldr	r2, [r1, #8]
 800401c:	f002 027f 	and.w	r2, r2, #127	; 0x7f
 8004020:	e7e4      	b.n	8003fec <USB_OTG_EP0StartXfer+0x20>
 8004022:	6985      	ldr	r5, [r0, #24]
 8004024:	694a      	ldr	r2, [r1, #20]
 8004026:	682c      	ldr	r4, [r5, #0]
 8004028:	692b      	ldr	r3, [r5, #16]
 800402a:	b9f2      	cbnz	r2, 800406a <USB_OTG_EP0StartXfer+0x9e>
 800402c:	f423 13c0 	bic.w	r3, r3, #1572864	; 0x180000
 8004030:	f023 037f 	bic.w	r3, r3, #127	; 0x7f
 8004034:	f442 2200 	orr.w	r2, r2, #524288	; 0x80000
 8004038:	4313      	orrs	r3, r2
 800403a:	612b      	str	r3, [r5, #16]
 800403c:	78c3      	ldrb	r3, [r0, #3]
 800403e:	2b01      	cmp	r3, #1
 8004040:	d01c      	beq.n	800407c <USB_OTG_EP0StartXfer+0xb0>
 8004042:	f3c4 6207 	ubfx	r2, r4, #24, #8
 8004046:	f062 027b 	orn	r2, r2, #123	; 0x7b
 800404a:	f362 641f 	bfi	r4, r2, #24, #8
 800404e:	602c      	str	r4, [r5, #0]
 8004050:	2b00      	cmp	r3, #0
 8004052:	d1df      	bne.n	8004014 <USB_OTG_EP0StartXfer+0x48>
 8004054:	694b      	ldr	r3, [r1, #20]
 8004056:	2b00      	cmp	r3, #0
 8004058:	d0dc      	beq.n	8004014 <USB_OTG_EP0StartXfer+0x48>
 800405a:	6902      	ldr	r2, [r0, #16]
 800405c:	7808      	ldrb	r0, [r1, #0]
 800405e:	6b51      	ldr	r1, [r2, #52]	; 0x34
 8004060:	2301      	movs	r3, #1
 8004062:	4083      	lsls	r3, r0
 8004064:	430b      	orrs	r3, r1
 8004066:	6353      	str	r3, [r2, #52]	; 0x34
 8004068:	e7d4      	b.n	8004014 <USB_OTG_EP0StartXfer+0x48>
 800406a:	688e      	ldr	r6, [r1, #8]
 800406c:	42b2      	cmp	r2, r6
 800406e:	bf86      	itte	hi
 8004070:	614e      	strhi	r6, [r1, #20]
 8004072:	f006 027f 	andhi.w	r2, r6, #127	; 0x7f
 8004076:	f002 027f 	andls.w	r2, r2, #127	; 0x7f
 800407a:	e7d7      	b.n	800402c <USB_OTG_EP0StartXfer+0x60>
 800407c:	780b      	ldrb	r3, [r1, #0]
 800407e:	6909      	ldr	r1, [r1, #16]
 8004080:	3306      	adds	r3, #6
 8004082:	f850 2023 	ldr.w	r2, [r0, r3, lsl #2]
 8004086:	f3c4 6307 	ubfx	r3, r4, #24, #8
 800408a:	f063 037b 	orn	r3, r3, #123	; 0x7b
 800408e:	f363 641f 	bfi	r4, r3, #24, #8
 8004092:	6151      	str	r1, [r2, #20]
 8004094:	2000      	movs	r0, #0
 8004096:	602c      	str	r4, [r5, #0]
 8004098:	bc70      	pop	{r4, r5, r6}
 800409a:	4770      	bx	lr

0800409c <USB_OTG_EPSetStall>:
 800409c:	784b      	ldrb	r3, [r1, #1]
 800409e:	2b01      	cmp	r3, #1
 80040a0:	d009      	beq.n	80040b6 <USB_OTG_EPSetStall+0x1a>
 80040a2:	780b      	ldrb	r3, [r1, #0]
 80040a4:	3315      	adds	r3, #21
 80040a6:	f850 2023 	ldr.w	r2, [r0, r3, lsl #2]
 80040aa:	6813      	ldr	r3, [r2, #0]
 80040ac:	f443 1300 	orr.w	r3, r3, #2097152	; 0x200000
 80040b0:	6013      	str	r3, [r2, #0]
 80040b2:	2000      	movs	r0, #0
 80040b4:	4770      	bx	lr
 80040b6:	780a      	ldrb	r2, [r1, #0]
 80040b8:	4909      	ldr	r1, [pc, #36]	; (80040e0 <USB_OTG_EPSetStall+0x44>)
 80040ba:	3206      	adds	r2, #6
 80040bc:	f850 0022 	ldr.w	r0, [r0, r2, lsl #2]
 80040c0:	6802      	ldr	r2, [r0, #0]
 80040c2:	2a00      	cmp	r2, #0
 80040c4:	bfa8      	it	ge
 80040c6:	f3c2 7380 	ubfxge	r3, r2, #30, #1
 80040ca:	039b      	lsls	r3, r3, #14
 80040cc:	ea01 4112 	and.w	r1, r1, r2, lsr #16
 80040d0:	f043 0320 	orr.w	r3, r3, #32
 80040d4:	430b      	orrs	r3, r1
 80040d6:	f363 421f 	bfi	r2, r3, #16, #16
 80040da:	6002      	str	r2, [r0, #0]
 80040dc:	2000      	movs	r0, #0
 80040de:	4770      	bx	lr
 80040e0:	ffffbfdf 	.word	0xffffbfdf

080040e4 <USB_OTG_EPClearStall>:
 80040e4:	784b      	ldrb	r3, [r1, #1]
 80040e6:	78ca      	ldrb	r2, [r1, #3]
 80040e8:	2b01      	cmp	r3, #1
 80040ea:	780b      	ldrb	r3, [r1, #0]
 80040ec:	bf0c      	ite	eq
 80040ee:	3306      	addeq	r3, #6
 80040f0:	3315      	addne	r3, #21
 80040f2:	3a02      	subs	r2, #2
 80040f4:	f850 0023 	ldr.w	r0, [r0, r3, lsl #2]
 80040f8:	6803      	ldr	r3, [r0, #0]
 80040fa:	2a01      	cmp	r2, #1
 80040fc:	f36f 5355 	bfc	r3, #21, #1
 8004100:	bf8c      	ite	hi
 8004102:	f3c3 7200 	ubfxhi	r2, r3, #28, #1
 8004106:	2201      	movls	r2, #1
 8004108:	f362 731c 	bfi	r3, r2, #28, #1
 800410c:	6003      	str	r3, [r0, #0]
 800410e:	2000      	movs	r0, #0
 8004110:	4770      	bx	lr
 8004112:	bf00      	nop

08004114 <USB_OTG_ReadDevAllOutEp_itr>:
 8004114:	6903      	ldr	r3, [r0, #16]
 8004116:	6998      	ldr	r0, [r3, #24]
 8004118:	69db      	ldr	r3, [r3, #28]
 800411a:	4018      	ands	r0, r3
 800411c:	0c00      	lsrs	r0, r0, #16
 800411e:	4770      	bx	lr

08004120 <USB_OTG_ReadDevOutEP_itr>:
 8004120:	b2c9      	uxtb	r1, r1
 8004122:	3115      	adds	r1, #21
 8004124:	6903      	ldr	r3, [r0, #16]
 8004126:	f850 2021 	ldr.w	r2, [r0, r1, lsl #2]
 800412a:	6890      	ldr	r0, [r2, #8]
 800412c:	695b      	ldr	r3, [r3, #20]
 800412e:	4018      	ands	r0, r3
 8004130:	4770      	bx	lr
 8004132:	bf00      	nop

08004134 <USB_OTG_ReadDevAllInEPItr>:
 8004134:	6903      	ldr	r3, [r0, #16]
 8004136:	6998      	ldr	r0, [r3, #24]
 8004138:	69db      	ldr	r3, [r3, #28]
 800413a:	4018      	ands	r0, r3
 800413c:	b280      	uxth	r0, r0
 800413e:	4770      	bx	lr

08004140 <USB_OTG_EP0_OutStart>:
 8004140:	6d43      	ldr	r3, [r0, #84]	; 0x54
 8004142:	4a06      	ldr	r2, [pc, #24]	; (800415c <USB_OTG_EP0_OutStart+0x1c>)
 8004144:	611a      	str	r2, [r3, #16]
 8004146:	78c2      	ldrb	r2, [r0, #3]
 8004148:	2a01      	cmp	r2, #1
 800414a:	d106      	bne.n	800415a <USB_OTG_EP0_OutStart+0x1a>
 800414c:	f500 60b9 	add.w	r0, r0, #1480	; 0x5c8
 8004150:	6158      	str	r0, [r3, #20]
 8004152:	f04f 2280 	mov.w	r2, #2147516416	; 0x80008000
 8004156:	6819      	ldr	r1, [r3, #0]
 8004158:	601a      	str	r2, [r3, #0]
 800415a:	4770      	bx	lr
 800415c:	c0080018 	.word	0xc0080018

08004160 <DCD_Init>:
 8004160:	b5f0      	push	{r4, r5, r6, r7, lr}
 8004162:	4606      	mov	r6, r0
 8004164:	f7ff fbfc 	bl	8003960 <USB_OTG_SelectCore>
 8004168:	7875      	ldrb	r5, [r6, #1]
 800416a:	2001      	movs	r0, #1
 800416c:	f8a6 0112 	strh.w	r0, [r6, #274]	; 0x112
 8004170:	b36d      	cbz	r5, 80041ce <DCD_Init+0x6e>
 8004172:	2100      	movs	r1, #0
 8004174:	4633      	mov	r3, r6
 8004176:	4632      	mov	r2, r6
 8004178:	460c      	mov	r4, r1
 800417a:	2740      	movs	r7, #64	; 0x40
 800417c:	f882 1118 	strb.w	r1, [r2, #280]	; 0x118
 8004180:	f8a2 111e 	strh.w	r1, [r2, #286]	; 0x11e
 8004184:	3101      	adds	r1, #1
 8004186:	42a9      	cmp	r1, r5
 8004188:	f882 0119 	strb.w	r0, [r2, #281]	; 0x119
 800418c:	f882 411b 	strb.w	r4, [r2, #283]	; 0x11b
 8004190:	f8c2 7120 	str.w	r7, [r2, #288]	; 0x120
 8004194:	f8c2 4124 	str.w	r4, [r2, #292]	; 0x124
 8004198:	f8c2 412c 	str.w	r4, [r2, #300]	; 0x12c
 800419c:	f102 0228 	add.w	r2, r2, #40	; 0x28
 80041a0:	d1ec      	bne.n	800417c <DCD_Init+0x1c>
 80041a2:	2200      	movs	r2, #0
 80041a4:	4611      	mov	r1, r2
 80041a6:	2040      	movs	r0, #64	; 0x40
 80041a8:	f883 2370 	strb.w	r2, [r3, #880]	; 0x370
 80041ac:	f8a3 2376 	strh.w	r2, [r3, #886]	; 0x376
 80041b0:	3201      	adds	r2, #1
 80041b2:	42aa      	cmp	r2, r5
 80041b4:	f883 1371 	strb.w	r1, [r3, #881]	; 0x371
 80041b8:	f883 1373 	strb.w	r1, [r3, #883]	; 0x373
 80041bc:	f8c3 0378 	str.w	r0, [r3, #888]	; 0x378
 80041c0:	f8c3 137c 	str.w	r1, [r3, #892]	; 0x37c
 80041c4:	f8c3 1384 	str.w	r1, [r3, #900]	; 0x384
 80041c8:	f103 0328 	add.w	r3, r3, #40	; 0x28
 80041cc:	d1ec      	bne.n	80041a8 <DCD_Init+0x48>
 80041ce:	4630      	mov	r0, r6
 80041d0:	f7ff fcd2 	bl	8003b78 <USB_OTG_DisableGlobalInt>
 80041d4:	4630      	mov	r0, r6
 80041d6:	f7ff fc53 	bl	8003a80 <USB_OTG_CoreInit>
 80041da:	2100      	movs	r1, #0
 80041dc:	4630      	mov	r0, r6
 80041de:	f7ff fcf3 	bl	8003bc8 <USB_OTG_SetCurrentMode>
 80041e2:	4630      	mov	r0, r6
 80041e4:	f7ff fd30 	bl	8003c48 <USB_OTG_CoreInitDev>
 80041e8:	4630      	mov	r0, r6
 80041ea:	e8bd 40f0 	ldmia.w	sp!, {r4, r5, r6, r7, lr}
 80041ee:	f7ff bcbb 	b.w	8003b68 <USB_OTG_EnableGlobalInt>
 80041f2:	bf00      	nop

080041f4 <DCD_EP_Open>:
 80041f4:	fa5f fc81 	uxtb.w	ip, r1
 80041f8:	0609      	lsls	r1, r1, #24
 80041fa:	b500      	push	{lr}
 80041fc:	b292      	uxth	r2, r2
 80041fe:	b2db      	uxtb	r3, r3
 8004200:	d41a      	bmi.n	8004238 <DCD_EP_Open+0x44>
 8004202:	eb0c 0e8c 	add.w	lr, ip, ip, lsl #2
 8004206:	eb00 0ece 	add.w	lr, r0, lr, lsl #3
 800420a:	2128      	movs	r1, #40	; 0x28
 800420c:	fb01 010c 	mla	r1, r1, ip, r0
 8004210:	f8ce 2378 	str.w	r2, [lr, #888]	; 0x378
 8004214:	2200      	movs	r2, #0
 8004216:	f501 715c 	add.w	r1, r1, #880	; 0x370
 800421a:	f88e c370 	strb.w	ip, [lr, #880]	; 0x370
 800421e:	f88e 3373 	strb.w	r3, [lr, #883]	; 0x373
 8004222:	f88e 2371 	strb.w	r2, [lr, #881]	; 0x371
 8004226:	2b02      	cmp	r3, #2
 8004228:	bf04      	itt	eq
 800422a:	2300      	moveq	r3, #0
 800422c:	710b      	strbeq	r3, [r1, #4]
 800422e:	f7ff fdc5 	bl	8003dbc <USB_OTG_EPActivate>
 8004232:	2000      	movs	r0, #0
 8004234:	f85d fb04 	ldr.w	pc, [sp], #4
 8004238:	f00c 0c7f 	and.w	ip, ip, #127	; 0x7f
 800423c:	eb0c 0e8c 	add.w	lr, ip, ip, lsl #2
 8004240:	eb00 0ece 	add.w	lr, r0, lr, lsl #3
 8004244:	2128      	movs	r1, #40	; 0x28
 8004246:	fb01 010c 	mla	r1, r1, ip, r0
 800424a:	f8ce 2120 	str.w	r2, [lr, #288]	; 0x120
 800424e:	2201      	movs	r2, #1
 8004250:	f501 718c 	add.w	r1, r1, #280	; 0x118
 8004254:	f88e c118 	strb.w	ip, [lr, #280]	; 0x118
 8004258:	f88e 311b 	strb.w	r3, [lr, #283]	; 0x11b
 800425c:	f8ae c11e 	strh.w	ip, [lr, #286]	; 0x11e
 8004260:	f88e 2119 	strb.w	r2, [lr, #281]	; 0x119
 8004264:	e7df      	b.n	8004226 <DCD_EP_Open+0x32>
 8004266:	bf00      	nop

08004268 <DCD_EP_Close>:
 8004268:	b24a      	sxtb	r2, r1
 800426a:	2a00      	cmp	r2, #0
 800426c:	b500      	push	{lr}
 800426e:	b2cb      	uxtb	r3, r1
 8004270:	db0c      	blt.n	800428c <DCD_EP_Close+0x24>
 8004272:	2128      	movs	r1, #40	; 0x28
 8004274:	fb01 0103 	mla	r1, r1, r3, r0
 8004278:	f501 715c 	add.w	r1, r1, #880	; 0x370
 800427c:	0fd2      	lsrs	r2, r2, #31
 800427e:	700b      	strb	r3, [r1, #0]
 8004280:	704a      	strb	r2, [r1, #1]
 8004282:	f7ff fdd5 	bl	8003e30 <USB_OTG_EPDeactivate>
 8004286:	2000      	movs	r0, #0
 8004288:	f85d fb04 	ldr.w	pc, [sp], #4
 800428c:	f003 037f 	and.w	r3, r3, #127	; 0x7f
 8004290:	2128      	movs	r1, #40	; 0x28
 8004292:	fb01 0103 	mla	r1, r1, r3, r0
 8004296:	f501 718c 	add.w	r1, r1, #280	; 0x118
 800429a:	e7ef      	b.n	800427c <DCD_EP_Close+0x14>

0800429c <DCD_EP_PrepareRx>:
 800429c:	b510      	push	{r4, lr}
 800429e:	f001 047f 	and.w	r4, r1, #127	; 0x7f
 80042a2:	eb04 0c84 	add.w	ip, r4, r4, lsl #2
 80042a6:	eb00 0ccc 	add.w	ip, r0, ip, lsl #3
 80042aa:	b29b      	uxth	r3, r3
 80042ac:	f8cc 3384 	str.w	r3, [ip, #900]	; 0x384
 80042b0:	2300      	movs	r3, #0
 80042b2:	f8cc 237c 	str.w	r2, [ip, #892]	; 0x37c
 80042b6:	f88c 4370 	strb.w	r4, [ip, #880]	; 0x370
 80042ba:	f8cc 3388 	str.w	r3, [ip, #904]	; 0x388
 80042be:	f88c 3371 	strb.w	r3, [ip, #881]	; 0x371
 80042c2:	78c3      	ldrb	r3, [r0, #3]
 80042c4:	2128      	movs	r1, #40	; 0x28
 80042c6:	fb01 0104 	mla	r1, r1, r4, r0
 80042ca:	2b01      	cmp	r3, #1
 80042cc:	f501 715c 	add.w	r1, r1, #880	; 0x370
 80042d0:	bf08      	it	eq
 80042d2:	f8cc 2380 	streq.w	r2, [ip, #896]	; 0x380
 80042d6:	b91c      	cbnz	r4, 80042e0 <DCD_EP_PrepareRx+0x44>
 80042d8:	f7ff fe78 	bl	8003fcc <USB_OTG_EP0StartXfer>
 80042dc:	2000      	movs	r0, #0
 80042de:	bd10      	pop	{r4, pc}
 80042e0:	f7ff fdc4 	bl	8003e6c <USB_OTG_EPStartXfer>
 80042e4:	2000      	movs	r0, #0
 80042e6:	bd10      	pop	{r4, pc}

080042e8 <DCD_EP_Tx>:
 80042e8:	b510      	push	{r4, lr}
 80042ea:	f001 047f 	and.w	r4, r1, #127	; 0x7f
 80042ee:	eb04 0e84 	add.w	lr, r4, r4, lsl #2
 80042f2:	eb00 0ece 	add.w	lr, r0, lr, lsl #3
 80042f6:	f8ce 312c 	str.w	r3, [lr, #300]	; 0x12c
 80042fa:	2300      	movs	r3, #0
 80042fc:	f8ce 3130 	str.w	r3, [lr, #304]	; 0x130
 8004300:	2328      	movs	r3, #40	; 0x28
 8004302:	fb03 0c04 	mla	ip, r3, r4, r0
 8004306:	2301      	movs	r3, #1
 8004308:	f88e 4118 	strb.w	r4, [lr, #280]	; 0x118
 800430c:	f8ce 2124 	str.w	r2, [lr, #292]	; 0x124
 8004310:	f8ce 2128 	str.w	r2, [lr, #296]	; 0x128
 8004314:	f50c 718c 	add.w	r1, ip, #280	; 0x118
 8004318:	f88e 3119 	strb.w	r3, [lr, #281]	; 0x119
 800431c:	b91c      	cbnz	r4, 8004326 <DCD_EP_Tx+0x3e>
 800431e:	f7ff fe55 	bl	8003fcc <USB_OTG_EP0StartXfer>
 8004322:	2000      	movs	r0, #0
 8004324:	bd10      	pop	{r4, pc}
 8004326:	f7ff fda1 	bl	8003e6c <USB_OTG_EPStartXfer>
 800432a:	2000      	movs	r0, #0
 800432c:	bd10      	pop	{r4, pc}
 800432e:	bf00      	nop

08004330 <DCD_EP_Stall>:
 8004330:	b24a      	sxtb	r2, r1
 8004332:	2a00      	cmp	r2, #0
 8004334:	b500      	push	{lr}
 8004336:	b2cb      	uxtb	r3, r1
 8004338:	db10      	blt.n	800435c <DCD_EP_Stall+0x2c>
 800433a:	2128      	movs	r1, #40	; 0x28
 800433c:	fb01 0103 	mla	r1, r1, r3, r0
 8004340:	f501 715c 	add.w	r1, r1, #880	; 0x370
 8004344:	0fd2      	lsrs	r2, r2, #31
 8004346:	f04f 0c01 	mov.w	ip, #1
 800434a:	f881 c002 	strb.w	ip, [r1, #2]
 800434e:	700b      	strb	r3, [r1, #0]
 8004350:	704a      	strb	r2, [r1, #1]
 8004352:	f7ff fea3 	bl	800409c <USB_OTG_EPSetStall>
 8004356:	2000      	movs	r0, #0
 8004358:	f85d fb04 	ldr.w	pc, [sp], #4
 800435c:	f003 037f 	and.w	r3, r3, #127	; 0x7f
 8004360:	2128      	movs	r1, #40	; 0x28
 8004362:	fb01 0103 	mla	r1, r1, r3, r0
 8004366:	f501 718c 	add.w	r1, r1, #280	; 0x118
 800436a:	e7eb      	b.n	8004344 <DCD_EP_Stall+0x14>

0800436c <DCD_EP_ClrStall>:
 800436c:	b24a      	sxtb	r2, r1
 800436e:	2a00      	cmp	r2, #0
 8004370:	b510      	push	{r4, lr}
 8004372:	b2cb      	uxtb	r3, r1
 8004374:	db0d      	blt.n	8004392 <DCD_EP_ClrStall+0x26>
 8004376:	2128      	movs	r1, #40	; 0x28
 8004378:	fb01 0103 	mla	r1, r1, r3, r0
 800437c:	f501 715c 	add.w	r1, r1, #880	; 0x370
 8004380:	2400      	movs	r4, #0
 8004382:	0fd2      	lsrs	r2, r2, #31
 8004384:	708c      	strb	r4, [r1, #2]
 8004386:	700b      	strb	r3, [r1, #0]
 8004388:	704a      	strb	r2, [r1, #1]
 800438a:	f7ff feab 	bl	80040e4 <USB_OTG_EPClearStall>
 800438e:	4620      	mov	r0, r4
 8004390:	bd10      	pop	{r4, pc}
 8004392:	f003 037f 	and.w	r3, r3, #127	; 0x7f
 8004396:	2128      	movs	r1, #40	; 0x28
 8004398:	fb01 0103 	mla	r1, r1, r3, r0
 800439c:	f501 718c 	add.w	r1, r1, #280	; 0x118
 80043a0:	e7ee      	b.n	8004380 <DCD_EP_ClrStall+0x14>
 80043a2:	bf00      	nop

080043a4 <DCD_EP_SetAddress>:
 80043a4:	6902      	ldr	r2, [r0, #16]
 80043a6:	b2c9      	uxtb	r1, r1
 80043a8:	6810      	ldr	r0, [r2, #0]
 80043aa:	2300      	movs	r3, #0
 80043ac:	f361 130a 	bfi	r3, r1, #4, #7
 80043b0:	4303      	orrs	r3, r0
 80043b2:	6013      	str	r3, [r2, #0]
 80043b4:	4770      	bx	lr
 80043b6:	bf00      	nop

080043b8 <USBD_OTG_ISR_Handler>:
 80043b8:	e92d 4ff0 	stmdb	sp!, {r4, r5, r6, r7, r8, r9, sl, fp, lr}
 80043bc:	b082      	sub	sp, #8
 80043be:	4604      	mov	r4, r0
 80043c0:	f7ff fc1a 	bl	8003bf8 <USB_OTG_IsDeviceMode>
 80043c4:	b918      	cbnz	r0, 80043ce <USBD_OTG_ISR_Handler+0x16>
 80043c6:	2000      	movs	r0, #0
 80043c8:	b002      	add	sp, #8
 80043ca:	e8bd 8ff0 	ldmia.w	sp!, {r4, r5, r6, r7, r8, r9, sl, fp, pc}
 80043ce:	4620      	mov	r0, r4
 80043d0:	f7ff fc18 	bl	8003c04 <USB_OTG_ReadCoreItr>
 80043d4:	4680      	mov	r8, r0
 80043d6:	2800      	cmp	r0, #0
 80043d8:	d0f5      	beq.n	80043c6 <USBD_OTG_ISR_Handler+0xe>
 80043da:	f3c0 4a07 	ubfx	sl, r0, #16, #8
 80043de:	f01a 0008 	ands.w	r0, sl, #8
 80043e2:	f040 80ca 	bne.w	800457a <USBD_OTG_ISR_Handler+0x1c2>
 80043e6:	f01a 0f04 	tst.w	sl, #4
 80043ea:	d172      	bne.n	80044d2 <USBD_OTG_ISR_Handler+0x11a>
 80043ec:	f018 0f02 	tst.w	r8, #2
 80043f0:	fa5f f588 	uxtb.w	r5, r8
 80043f4:	d002      	beq.n	80043fc <USBD_OTG_ISR_Handler+0x44>
 80043f6:	68e3      	ldr	r3, [r4, #12]
 80043f8:	2202      	movs	r2, #2
 80043fa:	615a      	str	r2, [r3, #20]
 80043fc:	f1b8 0f00 	cmp.w	r8, #0
 8004400:	ea4f 6718 	mov.w	r7, r8, lsr #24
 8004404:	f2c0 817e 	blt.w	8004704 <USBD_OTG_ISR_Handler+0x34c>
 8004408:	f418 6f00 	tst.w	r8, #2048	; 0x800
 800440c:	f3c8 2607 	ubfx	r6, r8, #8, #8
 8004410:	f040 8117 	bne.w	8004642 <USBD_OTG_ISR_Handler+0x28a>
 8004414:	072b      	lsls	r3, r5, #28
 8004416:	d508      	bpl.n	800442a <USBD_OTG_ISR_Handler+0x72>
 8004418:	4b9a      	ldr	r3, [pc, #616]	; (8004684 <USBD_OTG_ISR_Handler+0x2cc>)
 800441a:	681b      	ldr	r3, [r3, #0]
 800441c:	4620      	mov	r0, r4
 800441e:	68db      	ldr	r3, [r3, #12]
 8004420:	4798      	blx	r3
 8004422:	68e3      	ldr	r3, [r4, #12]
 8004424:	2208      	movs	r2, #8
 8004426:	615a      	str	r2, [r3, #20]
 8004428:	2001      	movs	r0, #1
 800442a:	06e9      	lsls	r1, r5, #27
 800442c:	d43a      	bmi.n	80044a4 <USBD_OTG_ISR_Handler+0xec>
 800442e:	06f2      	lsls	r2, r6, #27
 8004430:	f100 812c 	bmi.w	800468c <USBD_OTG_ISR_Handler+0x2d4>
 8004434:	06b3      	lsls	r3, r6, #26
 8004436:	f100 80e6 	bmi.w	8004606 <USBD_OTG_ISR_Handler+0x24e>
 800443a:	f01a 0f10 	tst.w	sl, #16
 800443e:	d009      	beq.n	8004454 <USBD_OTG_ISR_Handler+0x9c>
 8004440:	4b90      	ldr	r3, [pc, #576]	; (8004684 <USBD_OTG_ISR_Handler+0x2cc>)
 8004442:	681b      	ldr	r3, [r3, #0]
 8004444:	4620      	mov	r0, r4
 8004446:	69db      	ldr	r3, [r3, #28]
 8004448:	4798      	blx	r3
 800444a:	68e3      	ldr	r3, [r4, #12]
 800444c:	f44f 1280 	mov.w	r2, #1048576	; 0x100000
 8004450:	615a      	str	r2, [r3, #20]
 8004452:	2001      	movs	r0, #1
 8004454:	f01a 0f20 	tst.w	sl, #32
 8004458:	d009      	beq.n	800446e <USBD_OTG_ISR_Handler+0xb6>
 800445a:	4b8a      	ldr	r3, [pc, #552]	; (8004684 <USBD_OTG_ISR_Handler+0x2cc>)
 800445c:	681b      	ldr	r3, [r3, #0]
 800445e:	4620      	mov	r0, r4
 8004460:	6a1b      	ldr	r3, [r3, #32]
 8004462:	4798      	blx	r3
 8004464:	68e3      	ldr	r3, [r4, #12]
 8004466:	f44f 1200 	mov.w	r2, #2097152	; 0x200000
 800446a:	615a      	str	r2, [r3, #20]
 800446c:	2001      	movs	r0, #1
 800446e:	067e      	lsls	r6, r7, #25
 8004470:	d509      	bpl.n	8004486 <USBD_OTG_ISR_Handler+0xce>
 8004472:	4b84      	ldr	r3, [pc, #528]	; (8004684 <USBD_OTG_ISR_Handler+0x2cc>)
 8004474:	681b      	ldr	r3, [r3, #0]
 8004476:	4620      	mov	r0, r4
 8004478:	6a5b      	ldr	r3, [r3, #36]	; 0x24
 800447a:	4798      	blx	r3
 800447c:	68e3      	ldr	r3, [r4, #12]
 800447e:	f04f 4280 	mov.w	r2, #1073741824	; 0x40000000
 8004482:	615a      	str	r2, [r3, #20]
 8004484:	2001      	movs	r0, #1
 8004486:	0769      	lsls	r1, r5, #29
 8004488:	d59e      	bpl.n	80043c8 <USBD_OTG_ISR_Handler+0x10>
 800448a:	68e3      	ldr	r3, [r4, #12]
 800448c:	685d      	ldr	r5, [r3, #4]
 800448e:	076a      	lsls	r2, r5, #29
 8004490:	d505      	bpl.n	800449e <USBD_OTG_ISR_Handler+0xe6>
 8004492:	4b7c      	ldr	r3, [pc, #496]	; (8004684 <USBD_OTG_ISR_Handler+0x2cc>)
 8004494:	681b      	ldr	r3, [r3, #0]
 8004496:	4620      	mov	r0, r4
 8004498:	6a9b      	ldr	r3, [r3, #40]	; 0x28
 800449a:	4798      	blx	r3
 800449c:	68e3      	ldr	r3, [r4, #12]
 800449e:	605d      	str	r5, [r3, #4]
 80044a0:	2001      	movs	r0, #1
 80044a2:	e791      	b.n	80043c8 <USBD_OTG_ISR_Handler+0x10>
 80044a4:	68e3      	ldr	r3, [r4, #12]
 80044a6:	699a      	ldr	r2, [r3, #24]
 80044a8:	f022 0210 	bic.w	r2, r2, #16
 80044ac:	619a      	str	r2, [r3, #24]
 80044ae:	f8d3 8020 	ldr.w	r8, [r3, #32]
 80044b2:	f3c8 4243 	ubfx	r2, r8, #17, #4
 80044b6:	2a02      	cmp	r2, #2
 80044b8:	f008 090f 	and.w	r9, r8, #15
 80044bc:	f000 81c5 	beq.w	800484a <USBD_OTG_ISR_Handler+0x492>
 80044c0:	2a06      	cmp	r2, #6
 80044c2:	f000 81af 	beq.w	8004824 <USBD_OTG_ISR_Handler+0x46c>
 80044c6:	699a      	ldr	r2, [r3, #24]
 80044c8:	f042 0210 	orr.w	r2, r2, #16
 80044cc:	619a      	str	r2, [r3, #24]
 80044ce:	2001      	movs	r0, #1
 80044d0:	e7ad      	b.n	800442e <USBD_OTG_ISR_Handler+0x76>
 80044d2:	4620      	mov	r0, r4
 80044d4:	f7ff fe2e 	bl	8004134 <USB_OTG_ReadDevAllInEPItr>
 80044d8:	4681      	mov	r9, r0
 80044da:	2800      	cmp	r0, #0
 80044dc:	d04b      	beq.n	8004576 <USBD_OTG_ISR_Handler+0x1be>
 80044de:	f04f 0b00 	mov.w	fp, #0
 80044e2:	e88d 0500 	stmia.w	sp, {r8, sl}
 80044e6:	4625      	mov	r5, r4
 80044e8:	f104 0718 	add.w	r7, r4, #24
 80044ec:	46a2      	mov	sl, r4
 80044ee:	465c      	mov	r4, fp
 80044f0:	f019 0f01 	tst.w	r9, #1
 80044f4:	d031      	beq.n	800455a <USBD_OTG_ISR_Handler+0x1a2>
 80044f6:	f8da 1010 	ldr.w	r1, [sl, #16]
 80044fa:	fa5f fb84 	uxtb.w	fp, r4
 80044fe:	6908      	ldr	r0, [r1, #16]
 8004500:	6b4e      	ldr	r6, [r1, #52]	; 0x34
 8004502:	f10b 0206 	add.w	r2, fp, #6
 8004506:	fa26 f60b 	lsr.w	r6, r6, fp
 800450a:	f85a 2022 	ldr.w	r2, [sl, r2, lsl #2]
 800450e:	01f6      	lsls	r6, r6, #7
 8004510:	6892      	ldr	r2, [r2, #8]
 8004512:	b2f6      	uxtb	r6, r6
 8004514:	4306      	orrs	r6, r0
 8004516:	4016      	ands	r6, r2
 8004518:	b2f2      	uxtb	r2, r6
 800451a:	f016 0601 	ands.w	r6, r6, #1
 800451e:	f000 810c 	beq.w	800473a <USBD_OTG_ISR_Handler+0x382>
 8004522:	4a58      	ldr	r2, [pc, #352]	; (8004684 <USBD_OTG_ISR_Handler+0x2cc>)
 8004524:	6b48      	ldr	r0, [r1, #52]	; 0x34
 8004526:	683b      	ldr	r3, [r7, #0]
 8004528:	6812      	ldr	r2, [r2, #0]
 800452a:	f04f 0c01 	mov.w	ip, #1
 800452e:	fa0c f804 	lsl.w	r8, ip, r4
 8004532:	ea20 0008 	bic.w	r0, r0, r8
 8004536:	6852      	ldr	r2, [r2, #4]
 8004538:	6348      	str	r0, [r1, #52]	; 0x34
 800453a:	f8c3 c008 	str.w	ip, [r3, #8]
 800453e:	4659      	mov	r1, fp
 8004540:	4650      	mov	r0, sl
 8004542:	4790      	blx	r2
 8004544:	f89a 2003 	ldrb.w	r2, [sl, #3]
 8004548:	2a01      	cmp	r2, #1
 800454a:	f000 819c 	beq.w	8004886 <USBD_OTG_ISR_Handler+0x4ce>
 800454e:	0673      	lsls	r3, r6, #25
 8004550:	f140 80f9 	bpl.w	8004746 <USBD_OTG_ISR_Handler+0x38e>
 8004554:	683a      	ldr	r2, [r7, #0]
 8004556:	2140      	movs	r1, #64	; 0x40
 8004558:	6091      	str	r1, [r2, #8]
 800455a:	ea5f 0959 	movs.w	r9, r9, lsr #1
 800455e:	f104 0401 	add.w	r4, r4, #1
 8004562:	f105 0528 	add.w	r5, r5, #40	; 0x28
 8004566:	f107 0704 	add.w	r7, r7, #4
 800456a:	d1c1      	bne.n	80044f0 <USBD_OTG_ISR_Handler+0x138>
 800456c:	4654      	mov	r4, sl
 800456e:	f8dd 8000 	ldr.w	r8, [sp]
 8004572:	f8dd a004 	ldr.w	sl, [sp, #4]
 8004576:	2001      	movs	r0, #1
 8004578:	e738      	b.n	80043ec <USBD_OTG_ISR_Handler+0x34>
 800457a:	4620      	mov	r0, r4
 800457c:	f7ff fdca 	bl	8004114 <USB_OTG_ReadDevAllOutEp_itr>
 8004580:	4605      	mov	r5, r0
 8004582:	2800      	cmp	r0, #0
 8004584:	f000 8141 	beq.w	800480a <USBD_OTG_ISR_Handler+0x452>
 8004588:	4f3e      	ldr	r7, [pc, #248]	; (8004684 <USBD_OTG_ISR_Handler+0x2cc>)
 800458a:	f8cd 8000 	str.w	r8, [sp]
 800458e:	f104 0654 	add.w	r6, r4, #84	; 0x54
 8004592:	46a3      	mov	fp, r4
 8004594:	f04f 0900 	mov.w	r9, #0
 8004598:	e008      	b.n	80045ac <USBD_OTG_ISR_Handler+0x1f4>
 800459a:	086d      	lsrs	r5, r5, #1
 800459c:	f109 0901 	add.w	r9, r9, #1
 80045a0:	f106 0604 	add.w	r6, r6, #4
 80045a4:	f10b 0b28 	add.w	fp, fp, #40	; 0x28
 80045a8:	f000 812d 	beq.w	8004806 <USBD_OTG_ISR_Handler+0x44e>
 80045ac:	07e9      	lsls	r1, r5, #31
 80045ae:	d5f4      	bpl.n	800459a <USBD_OTG_ISR_Handler+0x1e2>
 80045b0:	fa5f f889 	uxtb.w	r8, r9
 80045b4:	4641      	mov	r1, r8
 80045b6:	4620      	mov	r0, r4
 80045b8:	f7ff fdb2 	bl	8004120 <USB_OTG_ReadDevOutEP_itr>
 80045bc:	07c2      	lsls	r2, r0, #31
 80045be:	b2c3      	uxtb	r3, r0
 80045c0:	f140 80c7 	bpl.w	8004752 <USBD_OTG_ISR_Handler+0x39a>
 80045c4:	6833      	ldr	r3, [r6, #0]
 80045c6:	2201      	movs	r2, #1
 80045c8:	609a      	str	r2, [r3, #8]
 80045ca:	78e2      	ldrb	r2, [r4, #3]
 80045cc:	2a01      	cmp	r2, #1
 80045ce:	d107      	bne.n	80045e0 <USBD_OTG_ISR_Handler+0x228>
 80045d0:	691a      	ldr	r2, [r3, #16]
 80045d2:	f8db 3378 	ldr.w	r3, [fp, #888]	; 0x378
 80045d6:	f3c2 0212 	ubfx	r2, r2, #0, #19
 80045da:	1a9b      	subs	r3, r3, r2
 80045dc:	f8cb 3388 	str.w	r3, [fp, #904]	; 0x388
 80045e0:	683b      	ldr	r3, [r7, #0]
 80045e2:	4641      	mov	r1, r8
 80045e4:	681b      	ldr	r3, [r3, #0]
 80045e6:	4620      	mov	r0, r4
 80045e8:	4798      	blx	r3
 80045ea:	78e3      	ldrb	r3, [r4, #3]
 80045ec:	2b01      	cmp	r3, #1
 80045ee:	d1d4      	bne.n	800459a <USBD_OTG_ISR_Handler+0x1e2>
 80045f0:	f1b9 0f00 	cmp.w	r9, #0
 80045f4:	d1d1      	bne.n	800459a <USBD_OTG_ISR_Handler+0x1e2>
 80045f6:	f894 3111 	ldrb.w	r3, [r4, #273]	; 0x111
 80045fa:	2b05      	cmp	r3, #5
 80045fc:	d1cd      	bne.n	800459a <USBD_OTG_ISR_Handler+0x1e2>
 80045fe:	4620      	mov	r0, r4
 8004600:	f7ff fd9e 	bl	8004140 <USB_OTG_EP0_OutStart>
 8004604:	e7c9      	b.n	800459a <USBD_OTG_ISR_Handler+0x1e2>
 8004606:	4620      	mov	r0, r4
 8004608:	f7ff fbc4 	bl	8003d94 <USB_OTG_EP0Activate>
 800460c:	68e3      	ldr	r3, [r4, #12]
 800460e:	4620      	mov	r0, r4
 8004610:	68de      	ldr	r6, [r3, #12]
 8004612:	f7ff fbb3 	bl	8003d7c <USB_OTG_GetDeviceSpeed>
 8004616:	2803      	cmp	r0, #3
 8004618:	bf0c      	ite	eq
 800461a:	2209      	moveq	r2, #9
 800461c:	2205      	movne	r2, #5
 800461e:	f362 268d 	bfi	r6, r2, #10, #4
 8004622:	bf0c      	ite	eq
 8004624:	2200      	moveq	r2, #0
 8004626:	2201      	movne	r2, #1
 8004628:	70a2      	strb	r2, [r4, #2]
 800462a:	68e3      	ldr	r3, [r4, #12]
 800462c:	bf0c      	ite	eq
 800462e:	f44f 7200 	moveq.w	r2, #512	; 0x200
 8004632:	2240      	movne	r2, #64	; 0x40
 8004634:	80a2      	strh	r2, [r4, #4]
 8004636:	f44f 5200 	mov.w	r2, #8192	; 0x2000
 800463a:	60de      	str	r6, [r3, #12]
 800463c:	2001      	movs	r0, #1
 800463e:	615a      	str	r2, [r3, #20]
 8004640:	e6fb      	b.n	800443a <USBD_OTG_ISR_Handler+0x82>
 8004642:	4b10      	ldr	r3, [pc, #64]	; (8004684 <USBD_OTG_ISR_Handler+0x2cc>)
 8004644:	681b      	ldr	r3, [r3, #0]
 8004646:	4620      	mov	r0, r4
 8004648:	695b      	ldr	r3, [r3, #20]
 800464a:	4798      	blx	r3
 800464c:	6923      	ldr	r3, [r4, #16]
 800464e:	6899      	ldr	r1, [r3, #8]
 8004650:	68e3      	ldr	r3, [r4, #12]
 8004652:	f44f 6200 	mov.w	r2, #2048	; 0x800
 8004656:	615a      	str	r2, [r3, #20]
 8004658:	7aa3      	ldrb	r3, [r4, #10]
 800465a:	b183      	cbz	r3, 800467e <USBD_OTG_ISR_Handler+0x2c6>
 800465c:	07ca      	lsls	r2, r1, #31
 800465e:	d50e      	bpl.n	800467e <USBD_OTG_ISR_Handler+0x2c6>
 8004660:	f8d4 310c 	ldr.w	r3, [r4, #268]	; 0x10c
 8004664:	4908      	ldr	r1, [pc, #32]	; (8004688 <USBD_OTG_ISR_Handler+0x2d0>)
 8004666:	681a      	ldr	r2, [r3, #0]
 8004668:	f042 0201 	orr.w	r2, r2, #1
 800466c:	601a      	str	r2, [r3, #0]
 800466e:	681a      	ldr	r2, [r3, #0]
 8004670:	f042 0203 	orr.w	r2, r2, #3
 8004674:	601a      	str	r2, [r3, #0]
 8004676:	690b      	ldr	r3, [r1, #16]
 8004678:	f043 0306 	orr.w	r3, r3, #6
 800467c:	610b      	str	r3, [r1, #16]
 800467e:	2001      	movs	r0, #1
 8004680:	e6c8      	b.n	8004414 <USBD_OTG_ISR_Handler+0x5c>
 8004682:	bf00      	nop
 8004684:	20000164 	.word	0x20000164
 8004688:	e000ed00 	.word	0xe000ed00
 800468c:	6922      	ldr	r2, [r4, #16]
 800468e:	6853      	ldr	r3, [r2, #4]
 8004690:	f04f 0800 	mov.w	r8, #0
 8004694:	f023 0301 	bic.w	r3, r3, #1
 8004698:	6053      	str	r3, [r2, #4]
 800469a:	4641      	mov	r1, r8
 800469c:	4620      	mov	r0, r4
 800469e:	f7ff fa73 	bl	8003b88 <USB_OTG_FlushTxFifo>
 80046a2:	7862      	ldrb	r2, [r4, #1]
 80046a4:	4641      	mov	r1, r8
 80046a6:	b15a      	cbz	r2, 80046c0 <USBD_OTG_ISR_Handler+0x308>
 80046a8:	f104 0314 	add.w	r3, r4, #20
 80046ac:	eb03 0c82 	add.w	ip, r3, r2, lsl #2
 80046b0:	22ff      	movs	r2, #255	; 0xff
 80046b2:	f853 0f04 	ldr.w	r0, [r3, #4]!
 80046b6:	6082      	str	r2, [r0, #8]
 80046b8:	6bd8      	ldr	r0, [r3, #60]	; 0x3c
 80046ba:	4563      	cmp	r3, ip
 80046bc:	6082      	str	r2, [r0, #8]
 80046be:	d1f8      	bne.n	80046b2 <USBD_OTG_ISR_Handler+0x2fa>
 80046c0:	220f      	movs	r2, #15
 80046c2:	6923      	ldr	r3, [r4, #16]
 80046c4:	f362 0807 	bfi	r8, r2, #0, #8
 80046c8:	222f      	movs	r2, #47	; 0x2f
 80046ca:	f362 0107 	bfi	r1, r2, #0, #8
 80046ce:	f04f 32ff 	mov.w	r2, #4294967295	; 0xffffffff
 80046d2:	619a      	str	r2, [r3, #24]
 80046d4:	f04f 1201 	mov.w	r2, #65537	; 0x10001
 80046d8:	61da      	str	r2, [r3, #28]
 80046da:	f8c3 8014 	str.w	r8, [r3, #20]
 80046de:	6119      	str	r1, [r3, #16]
 80046e0:	681a      	ldr	r2, [r3, #0]
 80046e2:	f36f 120a 	bfc	r2, #4, #7
 80046e6:	601a      	str	r2, [r3, #0]
 80046e8:	4620      	mov	r0, r4
 80046ea:	f7ff fd29 	bl	8004140 <USB_OTG_EP0_OutStart>
 80046ee:	4b76      	ldr	r3, [pc, #472]	; (80048c8 <USBD_OTG_ISR_Handler+0x510>)
 80046f0:	68e2      	ldr	r2, [r4, #12]
 80046f2:	681b      	ldr	r3, [r3, #0]
 80046f4:	f44f 5180 	mov.w	r1, #4096	; 0x1000
 80046f8:	691b      	ldr	r3, [r3, #16]
 80046fa:	6151      	str	r1, [r2, #20]
 80046fc:	4620      	mov	r0, r4
 80046fe:	4798      	blx	r3
 8004700:	2001      	movs	r0, #1
 8004702:	e697      	b.n	8004434 <USBD_OTG_ISR_Handler+0x7c>
 8004704:	7aa3      	ldrb	r3, [r4, #10]
 8004706:	b143      	cbz	r3, 800471a <USBD_OTG_ISR_Handler+0x362>
 8004708:	f8d4 310c 	ldr.w	r3, [r4, #268]	; 0x10c
 800470c:	f8d4 210c 	ldr.w	r2, [r4, #268]	; 0x10c
 8004710:	f023 0103 	bic.w	r1, r3, #3
 8004714:	f361 0307 	bfi	r3, r1, #0, #8
 8004718:	6013      	str	r3, [r2, #0]
 800471a:	4b6b      	ldr	r3, [pc, #428]	; (80048c8 <USBD_OTG_ISR_Handler+0x510>)
 800471c:	6922      	ldr	r2, [r4, #16]
 800471e:	681b      	ldr	r3, [r3, #0]
 8004720:	6999      	ldr	r1, [r3, #24]
 8004722:	6853      	ldr	r3, [r2, #4]
 8004724:	f023 0301 	bic.w	r3, r3, #1
 8004728:	6053      	str	r3, [r2, #4]
 800472a:	4620      	mov	r0, r4
 800472c:	4788      	blx	r1
 800472e:	68e3      	ldr	r3, [r4, #12]
 8004730:	f04f 4200 	mov.w	r2, #2147483648	; 0x80000000
 8004734:	615a      	str	r2, [r3, #20]
 8004736:	2001      	movs	r0, #1
 8004738:	e666      	b.n	8004408 <USBD_OTG_ISR_Handler+0x50>
 800473a:	0753      	lsls	r3, r2, #29
 800473c:	d50f      	bpl.n	800475e <USBD_OTG_ISR_Handler+0x3a6>
 800473e:	683a      	ldr	r2, [r7, #0]
 8004740:	2304      	movs	r3, #4
 8004742:	6093      	str	r3, [r2, #8]
 8004744:	461e      	mov	r6, r3
 8004746:	07b0      	lsls	r0, r6, #30
 8004748:	d50e      	bpl.n	8004768 <USBD_OTG_ISR_Handler+0x3b0>
 800474a:	683a      	ldr	r2, [r7, #0]
 800474c:	2102      	movs	r1, #2
 800474e:	6091      	str	r1, [r2, #8]
 8004750:	e703      	b.n	800455a <USBD_OTG_ISR_Handler+0x1a2>
 8004752:	0798      	lsls	r0, r3, #30
 8004754:	d551      	bpl.n	80047fa <USBD_OTG_ISR_Handler+0x442>
 8004756:	6833      	ldr	r3, [r6, #0]
 8004758:	2202      	movs	r2, #2
 800475a:	609a      	str	r2, [r3, #8]
 800475c:	e71d      	b.n	800459a <USBD_OTG_ISR_Handler+0x1e2>
 800475e:	0716      	lsls	r6, r2, #28
 8004760:	d545      	bpl.n	80047ee <USBD_OTG_ISR_Handler+0x436>
 8004762:	683a      	ldr	r2, [r7, #0]
 8004764:	2608      	movs	r6, #8
 8004766:	6096      	str	r6, [r2, #8]
 8004768:	0631      	lsls	r1, r6, #24
 800476a:	f57f aef6 	bpl.w	800455a <USBD_OTG_ISR_Handler+0x1a2>
 800476e:	683b      	ldr	r3, [r7, #0]
 8004770:	f8d5 012c 	ldr.w	r0, [r5, #300]	; 0x12c
 8004774:	699e      	ldr	r6, [r3, #24]
 8004776:	f8d5 1130 	ldr.w	r1, [r5, #304]	; 0x130
 800477a:	f8d5 2120 	ldr.w	r2, [r5, #288]	; 0x120
 800477e:	fa1f fe86 	uxth.w	lr, r6
 8004782:	1a46      	subs	r6, r0, r1
 8004784:	42b2      	cmp	r2, r6
 8004786:	bf28      	it	cs
 8004788:	4632      	movcs	r2, r6
 800478a:	3203      	adds	r2, #3
 800478c:	ebbe 0f92 	cmp.w	lr, r2, lsr #2
 8004790:	461e      	mov	r6, r3
 8004792:	d824      	bhi.n	80047de <USBD_OTG_ISR_Handler+0x426>
 8004794:	e028      	b.n	80047e8 <USBD_OTG_ISR_Handler+0x430>
 8004796:	f8d5 3120 	ldr.w	r3, [r5, #288]	; 0x120
 800479a:	f8d5 1124 	ldr.w	r1, [r5, #292]	; 0x124
 800479e:	429e      	cmp	r6, r3
 80047a0:	bf28      	it	cs
 80047a2:	461e      	movcs	r6, r3
 80047a4:	b2b3      	uxth	r3, r6
 80047a6:	465a      	mov	r2, fp
 80047a8:	4650      	mov	r0, sl
 80047aa:	f7ff f8a9 	bl	8003900 <USB_OTG_WritePacket>
 80047ae:	f8d5 1130 	ldr.w	r1, [r5, #304]	; 0x130
 80047b2:	f8d5 3124 	ldr.w	r3, [r5, #292]	; 0x124
 80047b6:	f8d5 012c 	ldr.w	r0, [r5, #300]	; 0x12c
 80047ba:	4431      	add	r1, r6
 80047bc:	f106 0803 	add.w	r8, r6, #3
 80047c0:	4433      	add	r3, r6
 80047c2:	4281      	cmp	r1, r0
 80047c4:	ea4f 0898 	mov.w	r8, r8, lsr #2
 80047c8:	f8c5 3124 	str.w	r3, [r5, #292]	; 0x124
 80047cc:	f8c5 1130 	str.w	r1, [r5, #304]	; 0x130
 80047d0:	d265      	bcs.n	800489e <USBD_OTG_ISR_Handler+0x4e6>
 80047d2:	683b      	ldr	r3, [r7, #0]
 80047d4:	699a      	ldr	r2, [r3, #24]
 80047d6:	b292      	uxth	r2, r2
 80047d8:	4590      	cmp	r8, r2
 80047da:	461e      	mov	r6, r3
 80047dc:	d204      	bcs.n	80047e8 <USBD_OTG_ISR_Handler+0x430>
 80047de:	4281      	cmp	r1, r0
 80047e0:	eba0 0601 	sub.w	r6, r0, r1
 80047e4:	d3d7      	bcc.n	8004796 <USBD_OTG_ISR_Handler+0x3de>
 80047e6:	461e      	mov	r6, r3
 80047e8:	2280      	movs	r2, #128	; 0x80
 80047ea:	60b2      	str	r2, [r6, #8]
 80047ec:	e6b5      	b.n	800455a <USBD_OTG_ISR_Handler+0x1a2>
 80047ee:	06d0      	lsls	r0, r2, #27
 80047f0:	d561      	bpl.n	80048b6 <USBD_OTG_ISR_Handler+0x4fe>
 80047f2:	683a      	ldr	r2, [r7, #0]
 80047f4:	2110      	movs	r1, #16
 80047f6:	6091      	str	r1, [r2, #8]
 80047f8:	e6af      	b.n	800455a <USBD_OTG_ISR_Handler+0x1a2>
 80047fa:	0759      	lsls	r1, r3, #29
 80047fc:	d507      	bpl.n	800480e <USBD_OTG_ISR_Handler+0x456>
 80047fe:	6833      	ldr	r3, [r6, #0]
 8004800:	2204      	movs	r2, #4
 8004802:	609a      	str	r2, [r3, #8]
 8004804:	e6c9      	b.n	800459a <USBD_OTG_ISR_Handler+0x1e2>
 8004806:	f8dd 8000 	ldr.w	r8, [sp]
 800480a:	2001      	movs	r0, #1
 800480c:	e5eb      	b.n	80043e6 <USBD_OTG_ISR_Handler+0x2e>
 800480e:	071a      	lsls	r2, r3, #28
 8004810:	f57f aec3 	bpl.w	800459a <USBD_OTG_ISR_Handler+0x1e2>
 8004814:	683b      	ldr	r3, [r7, #0]
 8004816:	4620      	mov	r0, r4
 8004818:	689b      	ldr	r3, [r3, #8]
 800481a:	4798      	blx	r3
 800481c:	6833      	ldr	r3, [r6, #0]
 800481e:	2208      	movs	r2, #8
 8004820:	609a      	str	r2, [r3, #8]
 8004822:	e6ba      	b.n	800459a <USBD_OTG_ISR_Handler+0x1e2>
 8004824:	eb09 0989 	add.w	r9, r9, r9, lsl #2
 8004828:	eb04 09c9 	add.w	r9, r4, r9, lsl #3
 800482c:	2208      	movs	r2, #8
 800482e:	f504 61b9 	add.w	r1, r4, #1480	; 0x5c8
 8004832:	4620      	mov	r0, r4
 8004834:	f7ff f87a 	bl	800392c <USB_OTG_ReadPacket>
 8004838:	f8d9 3388 	ldr.w	r3, [r9, #904]	; 0x388
 800483c:	f3c8 180a 	ubfx	r8, r8, #4, #11
 8004840:	4443      	add	r3, r8
 8004842:	f8c9 3388 	str.w	r3, [r9, #904]	; 0x388
 8004846:	68e3      	ldr	r3, [r4, #12]
 8004848:	e63d      	b.n	80044c6 <USBD_OTG_ISR_Handler+0x10e>
 800484a:	f647 72f0 	movw	r2, #32752	; 0x7ff0
 800484e:	ea12 0f08 	tst.w	r2, r8
 8004852:	f43f ae38 	beq.w	80044c6 <USBD_OTG_ISR_Handler+0x10e>
 8004856:	eb09 0989 	add.w	r9, r9, r9, lsl #2
 800485a:	eb04 09c9 	add.w	r9, r4, r9, lsl #3
 800485e:	f3c8 180a 	ubfx	r8, r8, #4, #11
 8004862:	f8d9 137c 	ldr.w	r1, [r9, #892]	; 0x37c
 8004866:	4642      	mov	r2, r8
 8004868:	4620      	mov	r0, r4
 800486a:	f7ff f85f 	bl	800392c <USB_OTG_ReadPacket>
 800486e:	f8d9 337c 	ldr.w	r3, [r9, #892]	; 0x37c
 8004872:	4443      	add	r3, r8
 8004874:	f8c9 337c 	str.w	r3, [r9, #892]	; 0x37c
 8004878:	f8d9 3388 	ldr.w	r3, [r9, #904]	; 0x388
 800487c:	4443      	add	r3, r8
 800487e:	f8c9 3388 	str.w	r3, [r9, #904]	; 0x388
 8004882:	68e3      	ldr	r3, [r4, #12]
 8004884:	e61f      	b.n	80044c6 <USBD_OTG_ISR_Handler+0x10e>
 8004886:	2c00      	cmp	r4, #0
 8004888:	f47f ae61 	bne.w	800454e <USBD_OTG_ISR_Handler+0x196>
 800488c:	f89a 2111 	ldrb.w	r2, [sl, #273]	; 0x111
 8004890:	2a04      	cmp	r2, #4
 8004892:	f47f ae5c 	bne.w	800454e <USBD_OTG_ISR_Handler+0x196>
 8004896:	4650      	mov	r0, sl
 8004898:	f7ff fc52 	bl	8004140 <USB_OTG_EP0_OutStart>
 800489c:	e657      	b.n	800454e <USBD_OTG_ISR_Handler+0x196>
 800489e:	f8da 0010 	ldr.w	r0, [sl, #16]
 80048a2:	f895 6118 	ldrb.w	r6, [r5, #280]	; 0x118
 80048a6:	6b42      	ldr	r2, [r0, #52]	; 0x34
 80048a8:	2101      	movs	r1, #1
 80048aa:	40b1      	lsls	r1, r6
 80048ac:	ea22 0201 	bic.w	r2, r2, r1
 80048b0:	683e      	ldr	r6, [r7, #0]
 80048b2:	6342      	str	r2, [r0, #52]	; 0x34
 80048b4:	e798      	b.n	80047e8 <USBD_OTG_ISR_Handler+0x430>
 80048b6:	0691      	lsls	r1, r2, #26
 80048b8:	bf58      	it	pl
 80048ba:	4616      	movpl	r6, r2
 80048bc:	f57f ae47 	bpl.w	800454e <USBD_OTG_ISR_Handler+0x196>
 80048c0:	683a      	ldr	r2, [r7, #0]
 80048c2:	2120      	movs	r1, #32
 80048c4:	6091      	str	r1, [r2, #8]
 80048c6:	e648      	b.n	800455a <USBD_OTG_ISR_Handler+0x1a2>
 80048c8:	20000164 	.word	0x20000164
 80048cc:	5f424c53 	.word	0x5f424c53
 80048d0:	4554494c 	.word	0x4554494c
 80048d4:	7067203a 	.word	0x7067203a
 80048d8:	635f6f69 	.word	0x635f6f69
 80048dc:	69666e6f 	.word	0x69666e6f
 80048e0:	6e697067 	.word	0x6e697067
 80048e4:	0a292873 	.word	0x0a292873
 80048e8:	00000000 	.word	0x00000000
 80048ec:	61706575 	.word	0x61706575
 80048f0:	0000000a 	.word	0x0000000a
 80048f4:	5b667562 	.word	0x5b667562
 80048f8:	205d6425 	.word	0x205d6425
 80048fc:	6425203d 	.word	0x6425203d
 8004900:	0000000a 	.word	0x0000000a
 8004904:	64626c73 	.word	0x64626c73
 8004908:	63697665 	.word	0x63697665
 800490c:	00000065 	.word	0x00000065
 8004910:	6f697067 	.word	0x6f697067
 8004914:	7665645f 	.word	0x7665645f
 8004918:	00656369 	.word	0x00656369

0800491c <slb_device>:
 800491c:	08004904 08004930 20000284 20000024     .I..0I..... $.. 
 800492c:	00000000                                ....

08004930 <slb_config>:
 8004930:	00000021 00000101 00000000 0800023d     !...........=...
 8004940:	080001e5                                ....

08004944 <gpio_device>:
 8004944:	08004910 08004958 00000000 00000000     .I..XI..........
 8004954:	2000000c                                ... 

08004958 <gpio_config>:
 8004958:	00800001 00008000 00000000 2a2a2a0a     .............***
 8004968:	73617420 6425206b 7473202c 3a6b6361      task %d, stack:
 8004978:	25783020 73282070 20657a69 0a296425      0x%p (size %d).
 8004988:	00000000 4c554e3c 00003e4c 33323130     ....<NULL>..0123
 8004998:	37363534 62613938 66656463 00000000     456789abcdef....
 80049a8:	204d5241 74726f43 4d207865 73282034     ARM Cortex M4 (s
 80049b8:	32336d74 78783466 00000029 37392e30     tm32f4xx)...0.97
 80049c8:	00000000 2f584355 7620534f 62207325     ....UCX/OS v%s b
 80049d8:	20746f6f 25206e6f 00000a73 70616568     oot on %s...heap
 80049e8:	696e695f 2c292874 20642520 65747962     _init(), %d byte
 80049f8:	72662073 000a6565 74696873 25202c31     s free..shit1, %
 8004a08:	00000a64 74696873 00000a32 252c6264     d...shit2...db,%
 8004a18:	64252c64 0000000a 2a2a2a0a 4c414820     d,%d.....*** HAL
 8004a28:	25282054 00002964 25202d20 00000a73     T (%d).. - %s...
 8004a38:	6b736174 3a642520 25783020 73202c70     task %d: 0x%p, s
 8004a48:	6b636174 7830203a 202c7025 657a6973     tack: 0x%p, size
 8004a58:	0a642520 00000000 334d5453 69562032      %d.....STM32 Vi
 8004a68:	61757472 6f43206c 726f506d 00000074     rtual ComPort...
 8004a78:	694d5453 656f7263 7463656c 696e6f72     STMicroelectroni
 8004a88:	00007363 30303030 30303030 43303530     cs..00000000050C
 8004a98:	00000000 20504356 666e6f43 00006769     ....VCP Config..
 8004aa8:	20504356 65746e49 63616672 00000065     VCP Interface...
 8004ab8:	65206f6e 726f7272 00000000 6c696166     no error....fail
 8004ac8:	00657275 74206f6e 736b7361 206f7420     ure.no tasks to 
 8004ad8:	006e7572 2062636b 6f6c6c61 61662063     run.kcb alloc fa
 8004ae8:	64656c69 00000000 20626374 6f6c6c61     iled....tcb allo
 8004af8:	61662063 64656c69 00000000 63617473     c failed....stac
 8004b08:	6c61206b 20636f6c 6c696166 00006465     k alloc failed..
 8004b18:	6b736174 746f6e20 756f6620 0000646e     task not found..
 8004b28:	6b736174 73757320 646e6570 69616620     task suspend fai
 8004b38:	0064656c 6b736174 73657220 20656d75     led.task resume 
 8004b48:	6c696166 00006465 6b736174 766e6920     failed..task inv
 8004b58:	64696c61 69727020 7469726f 00000079     alid priority...
 8004b68:	63617473 6863206b 206b6365 6c696166     stack check fail
 8004b78:	00006465 65706970 6c6c6120 6620636f     ed..pipe alloc f
 8004b88:	656c6961 00000064 65706970 61656420     ailed...pipe dea
 8004b98:	636f6c6c 69616620 0064656c 616d6573     lloc failed.sema
 8004ba8:	6c6c6120 6620636f 656c6961 00000064      alloc failed...
 8004bb8:	616d6573 61656420 636f6c6c 69616620     sema dealloc fai
 8004bc8:	0064656c 616d6573 65706f20 69746172     led.sema operati
 8004bd8:	66206e6f 656c6961 00000064 7373656d     on failed...mess
 8004be8:	20656761 75657571 6f6e2065 6d652074     age queue not em
 8004bf8:	00797470 6e6b6e75 206e776f 73616572     pty.unknown reas
 8004c08:	00006e6f                                on..
